ARM GAS  C:\Users\vasil\AppData\Local\Temp\ccgBRBHP.s 			page 1


   1              		.cpu cortex-m3
   2              		.arch armv7-m
   3              		.fpu softvfp
   4              		.eabi_attribute 20, 1
   5              		.eabi_attribute 21, 1
   6              		.eabi_attribute 23, 3
   7              		.eabi_attribute 24, 1
   8              		.eabi_attribute 25, 1
   9              		.eabi_attribute 26, 1
  10              		.eabi_attribute 30, 1
  11              		.eabi_attribute 34, 1
  12              		.eabi_attribute 18, 4
  13              		.file	"stm32f1xx_hal_rcc_ex.c"
  14              		.text
  15              	.Ltext0:
  16              		.cfi_sections	.debug_frame
  17              		.section	.text.HAL_RCCEx_PeriphCLKConfig,"ax",%progbits
  18              		.align	1
  19              		.global	HAL_RCCEx_PeriphCLKConfig
  20              		.syntax unified
  21              		.thumb
  22              		.thumb_func
  24              	HAL_RCCEx_PeriphCLKConfig:
  25              	.LVL0:
  26              	.LFB65:
  27              		.file 1 "C:/Users/vasil/STM32Cube/Repository/STM32Cube_FW_F1_V1.8.5/Drivers/STM32F1xx_HAL_Driver/S
   1:C:/Users/vasil/STM32Cube/Repository/STM32Cube_FW_F1_V1.8.5/Drivers/STM32F1xx_HAL_Driver/Src\stm32f1xx_hal_rcc_ex.c **** /**
   2:C:/Users/vasil/STM32Cube/Repository/STM32Cube_FW_F1_V1.8.5/Drivers/STM32F1xx_HAL_Driver/Src\stm32f1xx_hal_rcc_ex.c ****   ******************************************************************************
   3:C:/Users/vasil/STM32Cube/Repository/STM32Cube_FW_F1_V1.8.5/Drivers/STM32F1xx_HAL_Driver/Src\stm32f1xx_hal_rcc_ex.c ****   * @file    stm32f1xx_hal_rcc_ex.c
   4:C:/Users/vasil/STM32Cube/Repository/STM32Cube_FW_F1_V1.8.5/Drivers/STM32F1xx_HAL_Driver/Src\stm32f1xx_hal_rcc_ex.c ****   * @author  MCD Application Team
   5:C:/Users/vasil/STM32Cube/Repository/STM32Cube_FW_F1_V1.8.5/Drivers/STM32F1xx_HAL_Driver/Src\stm32f1xx_hal_rcc_ex.c ****   * @brief   Extended RCC HAL module driver.
   6:C:/Users/vasil/STM32Cube/Repository/STM32Cube_FW_F1_V1.8.5/Drivers/STM32F1xx_HAL_Driver/Src\stm32f1xx_hal_rcc_ex.c ****   *          This file provides firmware functions to manage the following
   7:C:/Users/vasil/STM32Cube/Repository/STM32Cube_FW_F1_V1.8.5/Drivers/STM32F1xx_HAL_Driver/Src\stm32f1xx_hal_rcc_ex.c ****   *          functionalities RCC extension peripheral:
   8:C:/Users/vasil/STM32Cube/Repository/STM32Cube_FW_F1_V1.8.5/Drivers/STM32F1xx_HAL_Driver/Src\stm32f1xx_hal_rcc_ex.c ****   *           + Extended Peripheral Control functions
   9:C:/Users/vasil/STM32Cube/Repository/STM32Cube_FW_F1_V1.8.5/Drivers/STM32F1xx_HAL_Driver/Src\stm32f1xx_hal_rcc_ex.c ****   *
  10:C:/Users/vasil/STM32Cube/Repository/STM32Cube_FW_F1_V1.8.5/Drivers/STM32F1xx_HAL_Driver/Src\stm32f1xx_hal_rcc_ex.c ****   ******************************************************************************
  11:C:/Users/vasil/STM32Cube/Repository/STM32Cube_FW_F1_V1.8.5/Drivers/STM32F1xx_HAL_Driver/Src\stm32f1xx_hal_rcc_ex.c ****   * @attention
  12:C:/Users/vasil/STM32Cube/Repository/STM32Cube_FW_F1_V1.8.5/Drivers/STM32F1xx_HAL_Driver/Src\stm32f1xx_hal_rcc_ex.c ****   *
  13:C:/Users/vasil/STM32Cube/Repository/STM32Cube_FW_F1_V1.8.5/Drivers/STM32F1xx_HAL_Driver/Src\stm32f1xx_hal_rcc_ex.c ****   * Copyright (c) 2016 STMicroelectronics.
  14:C:/Users/vasil/STM32Cube/Repository/STM32Cube_FW_F1_V1.8.5/Drivers/STM32F1xx_HAL_Driver/Src\stm32f1xx_hal_rcc_ex.c ****   * All rights reserved.
  15:C:/Users/vasil/STM32Cube/Repository/STM32Cube_FW_F1_V1.8.5/Drivers/STM32F1xx_HAL_Driver/Src\stm32f1xx_hal_rcc_ex.c ****   *
  16:C:/Users/vasil/STM32Cube/Repository/STM32Cube_FW_F1_V1.8.5/Drivers/STM32F1xx_HAL_Driver/Src\stm32f1xx_hal_rcc_ex.c ****   * This software is licensed under terms that can be found in the LICENSE file in
  17:C:/Users/vasil/STM32Cube/Repository/STM32Cube_FW_F1_V1.8.5/Drivers/STM32F1xx_HAL_Driver/Src\stm32f1xx_hal_rcc_ex.c ****   * the root directory of this software component.
  18:C:/Users/vasil/STM32Cube/Repository/STM32Cube_FW_F1_V1.8.5/Drivers/STM32F1xx_HAL_Driver/Src\stm32f1xx_hal_rcc_ex.c ****   * If no LICENSE file comes with this software, it is provided AS-IS.
  19:C:/Users/vasil/STM32Cube/Repository/STM32Cube_FW_F1_V1.8.5/Drivers/STM32F1xx_HAL_Driver/Src\stm32f1xx_hal_rcc_ex.c ****   ******************************************************************************
  20:C:/Users/vasil/STM32Cube/Repository/STM32Cube_FW_F1_V1.8.5/Drivers/STM32F1xx_HAL_Driver/Src\stm32f1xx_hal_rcc_ex.c ****   */
  21:C:/Users/vasil/STM32Cube/Repository/STM32Cube_FW_F1_V1.8.5/Drivers/STM32F1xx_HAL_Driver/Src\stm32f1xx_hal_rcc_ex.c **** 
  22:C:/Users/vasil/STM32Cube/Repository/STM32Cube_FW_F1_V1.8.5/Drivers/STM32F1xx_HAL_Driver/Src\stm32f1xx_hal_rcc_ex.c **** /* Includes ------------------------------------------------------------------*/
  23:C:/Users/vasil/STM32Cube/Repository/STM32Cube_FW_F1_V1.8.5/Drivers/STM32F1xx_HAL_Driver/Src\stm32f1xx_hal_rcc_ex.c **** #include "stm32f1xx_hal.h"
  24:C:/Users/vasil/STM32Cube/Repository/STM32Cube_FW_F1_V1.8.5/Drivers/STM32F1xx_HAL_Driver/Src\stm32f1xx_hal_rcc_ex.c **** 
  25:C:/Users/vasil/STM32Cube/Repository/STM32Cube_FW_F1_V1.8.5/Drivers/STM32F1xx_HAL_Driver/Src\stm32f1xx_hal_rcc_ex.c **** /** @addtogroup STM32F1xx_HAL_Driver
  26:C:/Users/vasil/STM32Cube/Repository/STM32Cube_FW_F1_V1.8.5/Drivers/STM32F1xx_HAL_Driver/Src\stm32f1xx_hal_rcc_ex.c ****   * @{
  27:C:/Users/vasil/STM32Cube/Repository/STM32Cube_FW_F1_V1.8.5/Drivers/STM32F1xx_HAL_Driver/Src\stm32f1xx_hal_rcc_ex.c ****   */
  28:C:/Users/vasil/STM32Cube/Repository/STM32Cube_FW_F1_V1.8.5/Drivers/STM32F1xx_HAL_Driver/Src\stm32f1xx_hal_rcc_ex.c **** 
  29:C:/Users/vasil/STM32Cube/Repository/STM32Cube_FW_F1_V1.8.5/Drivers/STM32F1xx_HAL_Driver/Src\stm32f1xx_hal_rcc_ex.c **** #ifdef HAL_RCC_MODULE_ENABLED
  30:C:/Users/vasil/STM32Cube/Repository/STM32Cube_FW_F1_V1.8.5/Drivers/STM32F1xx_HAL_Driver/Src\stm32f1xx_hal_rcc_ex.c **** 
  31:C:/Users/vasil/STM32Cube/Repository/STM32Cube_FW_F1_V1.8.5/Drivers/STM32F1xx_HAL_Driver/Src\stm32f1xx_hal_rcc_ex.c **** /** @defgroup RCCEx RCCEx
ARM GAS  C:\Users\vasil\AppData\Local\Temp\ccgBRBHP.s 			page 2


  32:C:/Users/vasil/STM32Cube/Repository/STM32Cube_FW_F1_V1.8.5/Drivers/STM32F1xx_HAL_Driver/Src\stm32f1xx_hal_rcc_ex.c ****   * @brief RCC Extension HAL module driver.
  33:C:/Users/vasil/STM32Cube/Repository/STM32Cube_FW_F1_V1.8.5/Drivers/STM32F1xx_HAL_Driver/Src\stm32f1xx_hal_rcc_ex.c ****   * @{
  34:C:/Users/vasil/STM32Cube/Repository/STM32Cube_FW_F1_V1.8.5/Drivers/STM32F1xx_HAL_Driver/Src\stm32f1xx_hal_rcc_ex.c ****   */
  35:C:/Users/vasil/STM32Cube/Repository/STM32Cube_FW_F1_V1.8.5/Drivers/STM32F1xx_HAL_Driver/Src\stm32f1xx_hal_rcc_ex.c **** 
  36:C:/Users/vasil/STM32Cube/Repository/STM32Cube_FW_F1_V1.8.5/Drivers/STM32F1xx_HAL_Driver/Src\stm32f1xx_hal_rcc_ex.c **** /* Private typedef -----------------------------------------------------------*/
  37:C:/Users/vasil/STM32Cube/Repository/STM32Cube_FW_F1_V1.8.5/Drivers/STM32F1xx_HAL_Driver/Src\stm32f1xx_hal_rcc_ex.c **** /* Private define ------------------------------------------------------------*/
  38:C:/Users/vasil/STM32Cube/Repository/STM32Cube_FW_F1_V1.8.5/Drivers/STM32F1xx_HAL_Driver/Src\stm32f1xx_hal_rcc_ex.c **** /** @defgroup RCCEx_Private_Constants RCCEx Private Constants
  39:C:/Users/vasil/STM32Cube/Repository/STM32Cube_FW_F1_V1.8.5/Drivers/STM32F1xx_HAL_Driver/Src\stm32f1xx_hal_rcc_ex.c ****   * @{
  40:C:/Users/vasil/STM32Cube/Repository/STM32Cube_FW_F1_V1.8.5/Drivers/STM32F1xx_HAL_Driver/Src\stm32f1xx_hal_rcc_ex.c ****   */
  41:C:/Users/vasil/STM32Cube/Repository/STM32Cube_FW_F1_V1.8.5/Drivers/STM32F1xx_HAL_Driver/Src\stm32f1xx_hal_rcc_ex.c **** /**
  42:C:/Users/vasil/STM32Cube/Repository/STM32Cube_FW_F1_V1.8.5/Drivers/STM32F1xx_HAL_Driver/Src\stm32f1xx_hal_rcc_ex.c ****   * @}
  43:C:/Users/vasil/STM32Cube/Repository/STM32Cube_FW_F1_V1.8.5/Drivers/STM32F1xx_HAL_Driver/Src\stm32f1xx_hal_rcc_ex.c ****   */
  44:C:/Users/vasil/STM32Cube/Repository/STM32Cube_FW_F1_V1.8.5/Drivers/STM32F1xx_HAL_Driver/Src\stm32f1xx_hal_rcc_ex.c **** 
  45:C:/Users/vasil/STM32Cube/Repository/STM32Cube_FW_F1_V1.8.5/Drivers/STM32F1xx_HAL_Driver/Src\stm32f1xx_hal_rcc_ex.c **** /* Private macro -------------------------------------------------------------*/
  46:C:/Users/vasil/STM32Cube/Repository/STM32Cube_FW_F1_V1.8.5/Drivers/STM32F1xx_HAL_Driver/Src\stm32f1xx_hal_rcc_ex.c **** /** @defgroup RCCEx_Private_Macros RCCEx Private Macros
  47:C:/Users/vasil/STM32Cube/Repository/STM32Cube_FW_F1_V1.8.5/Drivers/STM32F1xx_HAL_Driver/Src\stm32f1xx_hal_rcc_ex.c ****   * @{
  48:C:/Users/vasil/STM32Cube/Repository/STM32Cube_FW_F1_V1.8.5/Drivers/STM32F1xx_HAL_Driver/Src\stm32f1xx_hal_rcc_ex.c ****   */
  49:C:/Users/vasil/STM32Cube/Repository/STM32Cube_FW_F1_V1.8.5/Drivers/STM32F1xx_HAL_Driver/Src\stm32f1xx_hal_rcc_ex.c **** /**
  50:C:/Users/vasil/STM32Cube/Repository/STM32Cube_FW_F1_V1.8.5/Drivers/STM32F1xx_HAL_Driver/Src\stm32f1xx_hal_rcc_ex.c ****   * @}
  51:C:/Users/vasil/STM32Cube/Repository/STM32Cube_FW_F1_V1.8.5/Drivers/STM32F1xx_HAL_Driver/Src\stm32f1xx_hal_rcc_ex.c ****   */
  52:C:/Users/vasil/STM32Cube/Repository/STM32Cube_FW_F1_V1.8.5/Drivers/STM32F1xx_HAL_Driver/Src\stm32f1xx_hal_rcc_ex.c **** 
  53:C:/Users/vasil/STM32Cube/Repository/STM32Cube_FW_F1_V1.8.5/Drivers/STM32F1xx_HAL_Driver/Src\stm32f1xx_hal_rcc_ex.c **** /* Private variables ---------------------------------------------------------*/
  54:C:/Users/vasil/STM32Cube/Repository/STM32Cube_FW_F1_V1.8.5/Drivers/STM32F1xx_HAL_Driver/Src\stm32f1xx_hal_rcc_ex.c **** /* Private function prototypes -----------------------------------------------*/
  55:C:/Users/vasil/STM32Cube/Repository/STM32Cube_FW_F1_V1.8.5/Drivers/STM32F1xx_HAL_Driver/Src\stm32f1xx_hal_rcc_ex.c **** /* Private functions ---------------------------------------------------------*/
  56:C:/Users/vasil/STM32Cube/Repository/STM32Cube_FW_F1_V1.8.5/Drivers/STM32F1xx_HAL_Driver/Src\stm32f1xx_hal_rcc_ex.c **** 
  57:C:/Users/vasil/STM32Cube/Repository/STM32Cube_FW_F1_V1.8.5/Drivers/STM32F1xx_HAL_Driver/Src\stm32f1xx_hal_rcc_ex.c **** /** @defgroup RCCEx_Exported_Functions RCCEx Exported Functions
  58:C:/Users/vasil/STM32Cube/Repository/STM32Cube_FW_F1_V1.8.5/Drivers/STM32F1xx_HAL_Driver/Src\stm32f1xx_hal_rcc_ex.c ****   * @{
  59:C:/Users/vasil/STM32Cube/Repository/STM32Cube_FW_F1_V1.8.5/Drivers/STM32F1xx_HAL_Driver/Src\stm32f1xx_hal_rcc_ex.c ****   */
  60:C:/Users/vasil/STM32Cube/Repository/STM32Cube_FW_F1_V1.8.5/Drivers/STM32F1xx_HAL_Driver/Src\stm32f1xx_hal_rcc_ex.c **** 
  61:C:/Users/vasil/STM32Cube/Repository/STM32Cube_FW_F1_V1.8.5/Drivers/STM32F1xx_HAL_Driver/Src\stm32f1xx_hal_rcc_ex.c **** /** @defgroup RCCEx_Exported_Functions_Group1 Peripheral Control functions
  62:C:/Users/vasil/STM32Cube/Repository/STM32Cube_FW_F1_V1.8.5/Drivers/STM32F1xx_HAL_Driver/Src\stm32f1xx_hal_rcc_ex.c ****   *  @brief  Extended Peripheral Control functions
  63:C:/Users/vasil/STM32Cube/Repository/STM32Cube_FW_F1_V1.8.5/Drivers/STM32F1xx_HAL_Driver/Src\stm32f1xx_hal_rcc_ex.c ****   *
  64:C:/Users/vasil/STM32Cube/Repository/STM32Cube_FW_F1_V1.8.5/Drivers/STM32F1xx_HAL_Driver/Src\stm32f1xx_hal_rcc_ex.c **** @verbatim
  65:C:/Users/vasil/STM32Cube/Repository/STM32Cube_FW_F1_V1.8.5/Drivers/STM32F1xx_HAL_Driver/Src\stm32f1xx_hal_rcc_ex.c ****  ===============================================================================
  66:C:/Users/vasil/STM32Cube/Repository/STM32Cube_FW_F1_V1.8.5/Drivers/STM32F1xx_HAL_Driver/Src\stm32f1xx_hal_rcc_ex.c ****                 ##### Extended Peripheral Control functions  #####
  67:C:/Users/vasil/STM32Cube/Repository/STM32Cube_FW_F1_V1.8.5/Drivers/STM32F1xx_HAL_Driver/Src\stm32f1xx_hal_rcc_ex.c ****  ===============================================================================
  68:C:/Users/vasil/STM32Cube/Repository/STM32Cube_FW_F1_V1.8.5/Drivers/STM32F1xx_HAL_Driver/Src\stm32f1xx_hal_rcc_ex.c ****     [..]
  69:C:/Users/vasil/STM32Cube/Repository/STM32Cube_FW_F1_V1.8.5/Drivers/STM32F1xx_HAL_Driver/Src\stm32f1xx_hal_rcc_ex.c ****     This subsection provides a set of functions allowing to control the RCC Clocks
  70:C:/Users/vasil/STM32Cube/Repository/STM32Cube_FW_F1_V1.8.5/Drivers/STM32F1xx_HAL_Driver/Src\stm32f1xx_hal_rcc_ex.c ****     frequencies.
  71:C:/Users/vasil/STM32Cube/Repository/STM32Cube_FW_F1_V1.8.5/Drivers/STM32F1xx_HAL_Driver/Src\stm32f1xx_hal_rcc_ex.c ****     [..]
  72:C:/Users/vasil/STM32Cube/Repository/STM32Cube_FW_F1_V1.8.5/Drivers/STM32F1xx_HAL_Driver/Src\stm32f1xx_hal_rcc_ex.c ****     (@) Important note: Care must be taken when HAL_RCCEx_PeriphCLKConfig() is used to
  73:C:/Users/vasil/STM32Cube/Repository/STM32Cube_FW_F1_V1.8.5/Drivers/STM32F1xx_HAL_Driver/Src\stm32f1xx_hal_rcc_ex.c ****         select the RTC clock source; in this case the Backup domain will be reset in
  74:C:/Users/vasil/STM32Cube/Repository/STM32Cube_FW_F1_V1.8.5/Drivers/STM32F1xx_HAL_Driver/Src\stm32f1xx_hal_rcc_ex.c ****         order to modify the RTC Clock source, as consequence RTC registers (including
  75:C:/Users/vasil/STM32Cube/Repository/STM32Cube_FW_F1_V1.8.5/Drivers/STM32F1xx_HAL_Driver/Src\stm32f1xx_hal_rcc_ex.c ****         the backup registers) are set to their reset values.
  76:C:/Users/vasil/STM32Cube/Repository/STM32Cube_FW_F1_V1.8.5/Drivers/STM32F1xx_HAL_Driver/Src\stm32f1xx_hal_rcc_ex.c **** 
  77:C:/Users/vasil/STM32Cube/Repository/STM32Cube_FW_F1_V1.8.5/Drivers/STM32F1xx_HAL_Driver/Src\stm32f1xx_hal_rcc_ex.c **** @endverbatim
  78:C:/Users/vasil/STM32Cube/Repository/STM32Cube_FW_F1_V1.8.5/Drivers/STM32F1xx_HAL_Driver/Src\stm32f1xx_hal_rcc_ex.c ****   * @{
  79:C:/Users/vasil/STM32Cube/Repository/STM32Cube_FW_F1_V1.8.5/Drivers/STM32F1xx_HAL_Driver/Src\stm32f1xx_hal_rcc_ex.c ****   */
  80:C:/Users/vasil/STM32Cube/Repository/STM32Cube_FW_F1_V1.8.5/Drivers/STM32F1xx_HAL_Driver/Src\stm32f1xx_hal_rcc_ex.c **** 
  81:C:/Users/vasil/STM32Cube/Repository/STM32Cube_FW_F1_V1.8.5/Drivers/STM32F1xx_HAL_Driver/Src\stm32f1xx_hal_rcc_ex.c **** /**
  82:C:/Users/vasil/STM32Cube/Repository/STM32Cube_FW_F1_V1.8.5/Drivers/STM32F1xx_HAL_Driver/Src\stm32f1xx_hal_rcc_ex.c ****   * @brief  Initializes the RCC extended peripherals clocks according to the specified parameters i
  83:C:/Users/vasil/STM32Cube/Repository/STM32Cube_FW_F1_V1.8.5/Drivers/STM32F1xx_HAL_Driver/Src\stm32f1xx_hal_rcc_ex.c ****   *         RCC_PeriphCLKInitTypeDef.
  84:C:/Users/vasil/STM32Cube/Repository/STM32Cube_FW_F1_V1.8.5/Drivers/STM32F1xx_HAL_Driver/Src\stm32f1xx_hal_rcc_ex.c ****   * @param  PeriphClkInit pointer to an RCC_PeriphCLKInitTypeDef structure that
  85:C:/Users/vasil/STM32Cube/Repository/STM32Cube_FW_F1_V1.8.5/Drivers/STM32F1xx_HAL_Driver/Src\stm32f1xx_hal_rcc_ex.c ****   *         contains the configuration information for the Extended Peripherals clocks(RTC clock).
  86:C:/Users/vasil/STM32Cube/Repository/STM32Cube_FW_F1_V1.8.5/Drivers/STM32F1xx_HAL_Driver/Src\stm32f1xx_hal_rcc_ex.c ****   *
  87:C:/Users/vasil/STM32Cube/Repository/STM32Cube_FW_F1_V1.8.5/Drivers/STM32F1xx_HAL_Driver/Src\stm32f1xx_hal_rcc_ex.c ****   * @note   Care must be taken when HAL_RCCEx_PeriphCLKConfig() is used to select
  88:C:/Users/vasil/STM32Cube/Repository/STM32Cube_FW_F1_V1.8.5/Drivers/STM32F1xx_HAL_Driver/Src\stm32f1xx_hal_rcc_ex.c ****   *         the RTC clock source; in this case the Backup domain will be reset in
ARM GAS  C:\Users\vasil\AppData\Local\Temp\ccgBRBHP.s 			page 3


  89:C:/Users/vasil/STM32Cube/Repository/STM32Cube_FW_F1_V1.8.5/Drivers/STM32F1xx_HAL_Driver/Src\stm32f1xx_hal_rcc_ex.c ****   *         order to modify the RTC Clock source, as consequence RTC registers (including
  90:C:/Users/vasil/STM32Cube/Repository/STM32Cube_FW_F1_V1.8.5/Drivers/STM32F1xx_HAL_Driver/Src\stm32f1xx_hal_rcc_ex.c ****   *         the backup registers) are set to their reset values.
  91:C:/Users/vasil/STM32Cube/Repository/STM32Cube_FW_F1_V1.8.5/Drivers/STM32F1xx_HAL_Driver/Src\stm32f1xx_hal_rcc_ex.c ****   *
  92:C:/Users/vasil/STM32Cube/Repository/STM32Cube_FW_F1_V1.8.5/Drivers/STM32F1xx_HAL_Driver/Src\stm32f1xx_hal_rcc_ex.c ****   * @note   In case of STM32F105xC or STM32F107xC devices, PLLI2S will be enabled if requested on
  93:C:/Users/vasil/STM32Cube/Repository/STM32Cube_FW_F1_V1.8.5/Drivers/STM32F1xx_HAL_Driver/Src\stm32f1xx_hal_rcc_ex.c ****   *         one of 2 I2S interfaces. When PLLI2S is enabled, you need to call HAL_RCCEx_DisablePLLI
  94:C:/Users/vasil/STM32Cube/Repository/STM32Cube_FW_F1_V1.8.5/Drivers/STM32F1xx_HAL_Driver/Src\stm32f1xx_hal_rcc_ex.c ****   *         manually disable it.
  95:C:/Users/vasil/STM32Cube/Repository/STM32Cube_FW_F1_V1.8.5/Drivers/STM32F1xx_HAL_Driver/Src\stm32f1xx_hal_rcc_ex.c ****   *
  96:C:/Users/vasil/STM32Cube/Repository/STM32Cube_FW_F1_V1.8.5/Drivers/STM32F1xx_HAL_Driver/Src\stm32f1xx_hal_rcc_ex.c ****   * @retval HAL status
  97:C:/Users/vasil/STM32Cube/Repository/STM32Cube_FW_F1_V1.8.5/Drivers/STM32F1xx_HAL_Driver/Src\stm32f1xx_hal_rcc_ex.c ****   */
  98:C:/Users/vasil/STM32Cube/Repository/STM32Cube_FW_F1_V1.8.5/Drivers/STM32F1xx_HAL_Driver/Src\stm32f1xx_hal_rcc_ex.c **** HAL_StatusTypeDef HAL_RCCEx_PeriphCLKConfig(RCC_PeriphCLKInitTypeDef  *PeriphClkInit)
  99:C:/Users/vasil/STM32Cube/Repository/STM32Cube_FW_F1_V1.8.5/Drivers/STM32F1xx_HAL_Driver/Src\stm32f1xx_hal_rcc_ex.c **** {
  28              		.loc 1 99 1 view -0
  29              		.cfi_startproc
  30              		@ args = 0, pretend = 0, frame = 8
  31              		@ frame_needed = 0, uses_anonymous_args = 0
  32              		.loc 1 99 1 is_stmt 0 view .LVU1
  33 0000 70B5     		push	{r4, r5, r6, lr}
  34              		.cfi_def_cfa_offset 16
  35              		.cfi_offset 4, -16
  36              		.cfi_offset 5, -12
  37              		.cfi_offset 6, -8
  38              		.cfi_offset 14, -4
  39 0002 82B0     		sub	sp, sp, #8
  40              		.cfi_def_cfa_offset 24
  41 0004 0446     		mov	r4, r0
 100:C:/Users/vasil/STM32Cube/Repository/STM32Cube_FW_F1_V1.8.5/Drivers/STM32F1xx_HAL_Driver/Src\stm32f1xx_hal_rcc_ex.c ****   uint32_t tickstart = 0U, temp_reg = 0U;
  42              		.loc 1 100 3 is_stmt 1 view .LVU2
  43              	.LVL1:
 101:C:/Users/vasil/STM32Cube/Repository/STM32Cube_FW_F1_V1.8.5/Drivers/STM32F1xx_HAL_Driver/Src\stm32f1xx_hal_rcc_ex.c **** #if defined(STM32F105xC) || defined(STM32F107xC)
 102:C:/Users/vasil/STM32Cube/Repository/STM32Cube_FW_F1_V1.8.5/Drivers/STM32F1xx_HAL_Driver/Src\stm32f1xx_hal_rcc_ex.c ****   uint32_t  pllactive = 0U;
 103:C:/Users/vasil/STM32Cube/Repository/STM32Cube_FW_F1_V1.8.5/Drivers/STM32F1xx_HAL_Driver/Src\stm32f1xx_hal_rcc_ex.c **** #endif /* STM32F105xC || STM32F107xC */
 104:C:/Users/vasil/STM32Cube/Repository/STM32Cube_FW_F1_V1.8.5/Drivers/STM32F1xx_HAL_Driver/Src\stm32f1xx_hal_rcc_ex.c **** 
 105:C:/Users/vasil/STM32Cube/Repository/STM32Cube_FW_F1_V1.8.5/Drivers/STM32F1xx_HAL_Driver/Src\stm32f1xx_hal_rcc_ex.c ****   /* Check the parameters */
 106:C:/Users/vasil/STM32Cube/Repository/STM32Cube_FW_F1_V1.8.5/Drivers/STM32F1xx_HAL_Driver/Src\stm32f1xx_hal_rcc_ex.c ****   assert_param(IS_RCC_PERIPHCLOCK(PeriphClkInit->PeriphClockSelection));
  44              		.loc 1 106 3 view .LVU3
 107:C:/Users/vasil/STM32Cube/Repository/STM32Cube_FW_F1_V1.8.5/Drivers/STM32F1xx_HAL_Driver/Src\stm32f1xx_hal_rcc_ex.c **** 
 108:C:/Users/vasil/STM32Cube/Repository/STM32Cube_FW_F1_V1.8.5/Drivers/STM32F1xx_HAL_Driver/Src\stm32f1xx_hal_rcc_ex.c ****   /*------------------------------- RTC/LCD Configuration ------------------------*/
 109:C:/Users/vasil/STM32Cube/Repository/STM32Cube_FW_F1_V1.8.5/Drivers/STM32F1xx_HAL_Driver/Src\stm32f1xx_hal_rcc_ex.c ****   if ((((PeriphClkInit->PeriphClockSelection) & RCC_PERIPHCLK_RTC) == RCC_PERIPHCLK_RTC))
  45              		.loc 1 109 3 view .LVU4
  46              		.loc 1 109 23 is_stmt 0 view .LVU5
  47 0006 0368     		ldr	r3, [r0]
  48              		.loc 1 109 6 view .LVU6
  49 0008 13F0010F 		tst	r3, #1
  50 000c 36D0     		beq	.L2
  51              	.LBB2:
 110:C:/Users/vasil/STM32Cube/Repository/STM32Cube_FW_F1_V1.8.5/Drivers/STM32F1xx_HAL_Driver/Src\stm32f1xx_hal_rcc_ex.c ****   {
 111:C:/Users/vasil/STM32Cube/Repository/STM32Cube_FW_F1_V1.8.5/Drivers/STM32F1xx_HAL_Driver/Src\stm32f1xx_hal_rcc_ex.c ****     FlagStatus pwrclkchanged = RESET;
  52              		.loc 1 111 5 is_stmt 1 view .LVU7
  53              	.LVL2:
 112:C:/Users/vasil/STM32Cube/Repository/STM32Cube_FW_F1_V1.8.5/Drivers/STM32F1xx_HAL_Driver/Src\stm32f1xx_hal_rcc_ex.c **** 
 113:C:/Users/vasil/STM32Cube/Repository/STM32Cube_FW_F1_V1.8.5/Drivers/STM32F1xx_HAL_Driver/Src\stm32f1xx_hal_rcc_ex.c ****     /* check for RTC Parameters used to output RTCCLK */
 114:C:/Users/vasil/STM32Cube/Repository/STM32Cube_FW_F1_V1.8.5/Drivers/STM32F1xx_HAL_Driver/Src\stm32f1xx_hal_rcc_ex.c ****     assert_param(IS_RCC_RTCCLKSOURCE(PeriphClkInit->RTCClockSelection));
  54              		.loc 1 114 5 view .LVU8
 115:C:/Users/vasil/STM32Cube/Repository/STM32Cube_FW_F1_V1.8.5/Drivers/STM32F1xx_HAL_Driver/Src\stm32f1xx_hal_rcc_ex.c **** 
 116:C:/Users/vasil/STM32Cube/Repository/STM32Cube_FW_F1_V1.8.5/Drivers/STM32F1xx_HAL_Driver/Src\stm32f1xx_hal_rcc_ex.c ****     /* As soon as function is called to change RTC clock source, activation of the
 117:C:/Users/vasil/STM32Cube/Repository/STM32Cube_FW_F1_V1.8.5/Drivers/STM32F1xx_HAL_Driver/Src\stm32f1xx_hal_rcc_ex.c ****        power domain is done. */
 118:C:/Users/vasil/STM32Cube/Repository/STM32Cube_FW_F1_V1.8.5/Drivers/STM32F1xx_HAL_Driver/Src\stm32f1xx_hal_rcc_ex.c ****     /* Requires to enable write access to Backup Domain of necessary */
ARM GAS  C:\Users\vasil\AppData\Local\Temp\ccgBRBHP.s 			page 4


 119:C:/Users/vasil/STM32Cube/Repository/STM32Cube_FW_F1_V1.8.5/Drivers/STM32F1xx_HAL_Driver/Src\stm32f1xx_hal_rcc_ex.c ****     if (__HAL_RCC_PWR_IS_CLK_DISABLED())
  55              		.loc 1 119 5 view .LVU9
  56              		.loc 1 119 9 is_stmt 0 view .LVU10
  57 000e 3F4B     		ldr	r3, .L20
  58 0010 DB69     		ldr	r3, [r3, #28]
  59              		.loc 1 119 8 view .LVU11
  60 0012 13F0805F 		tst	r3, #268435456
  61 0016 49D1     		bne	.L12
 120:C:/Users/vasil/STM32Cube/Repository/STM32Cube_FW_F1_V1.8.5/Drivers/STM32F1xx_HAL_Driver/Src\stm32f1xx_hal_rcc_ex.c ****     {
 121:C:/Users/vasil/STM32Cube/Repository/STM32Cube_FW_F1_V1.8.5/Drivers/STM32F1xx_HAL_Driver/Src\stm32f1xx_hal_rcc_ex.c ****       __HAL_RCC_PWR_CLK_ENABLE();
  62              		.loc 1 121 7 is_stmt 1 view .LVU12
  63              	.LBB3:
  64              		.loc 1 121 7 view .LVU13
  65              		.loc 1 121 7 view .LVU14
  66 0018 3C4B     		ldr	r3, .L20
  67 001a DA69     		ldr	r2, [r3, #28]
  68 001c 42F08052 		orr	r2, r2, #268435456
  69 0020 DA61     		str	r2, [r3, #28]
  70              		.loc 1 121 7 view .LVU15
  71 0022 DB69     		ldr	r3, [r3, #28]
  72 0024 03F08053 		and	r3, r3, #268435456
  73 0028 0193     		str	r3, [sp, #4]
  74              		.loc 1 121 7 view .LVU16
  75 002a 019B     		ldr	r3, [sp, #4]
  76              	.LBE3:
  77              		.loc 1 121 7 view .LVU17
 122:C:/Users/vasil/STM32Cube/Repository/STM32Cube_FW_F1_V1.8.5/Drivers/STM32F1xx_HAL_Driver/Src\stm32f1xx_hal_rcc_ex.c ****       pwrclkchanged = SET;
  78              		.loc 1 122 7 view .LVU18
  79              	.LVL3:
  80              		.loc 1 122 21 is_stmt 0 view .LVU19
  81 002c 0125     		movs	r5, #1
  82              	.LVL4:
  83              	.L3:
 123:C:/Users/vasil/STM32Cube/Repository/STM32Cube_FW_F1_V1.8.5/Drivers/STM32F1xx_HAL_Driver/Src\stm32f1xx_hal_rcc_ex.c ****     }
 124:C:/Users/vasil/STM32Cube/Repository/STM32Cube_FW_F1_V1.8.5/Drivers/STM32F1xx_HAL_Driver/Src\stm32f1xx_hal_rcc_ex.c **** 
 125:C:/Users/vasil/STM32Cube/Repository/STM32Cube_FW_F1_V1.8.5/Drivers/STM32F1xx_HAL_Driver/Src\stm32f1xx_hal_rcc_ex.c ****     if (HAL_IS_BIT_CLR(PWR->CR, PWR_CR_DBP))
  84              		.loc 1 125 5 is_stmt 1 view .LVU20
  85              		.loc 1 125 9 is_stmt 0 view .LVU21
  86 002e 384B     		ldr	r3, .L20+4
  87 0030 1B68     		ldr	r3, [r3]
  88              		.loc 1 125 8 view .LVU22
  89 0032 13F4807F 		tst	r3, #256
  90 0036 3BD0     		beq	.L17
  91              	.LVL5:
  92              	.L4:
 126:C:/Users/vasil/STM32Cube/Repository/STM32Cube_FW_F1_V1.8.5/Drivers/STM32F1xx_HAL_Driver/Src\stm32f1xx_hal_rcc_ex.c ****     {
 127:C:/Users/vasil/STM32Cube/Repository/STM32Cube_FW_F1_V1.8.5/Drivers/STM32F1xx_HAL_Driver/Src\stm32f1xx_hal_rcc_ex.c ****       /* Enable write access to Backup domain */
 128:C:/Users/vasil/STM32Cube/Repository/STM32Cube_FW_F1_V1.8.5/Drivers/STM32F1xx_HAL_Driver/Src\stm32f1xx_hal_rcc_ex.c ****       SET_BIT(PWR->CR, PWR_CR_DBP);
 129:C:/Users/vasil/STM32Cube/Repository/STM32Cube_FW_F1_V1.8.5/Drivers/STM32F1xx_HAL_Driver/Src\stm32f1xx_hal_rcc_ex.c **** 
 130:C:/Users/vasil/STM32Cube/Repository/STM32Cube_FW_F1_V1.8.5/Drivers/STM32F1xx_HAL_Driver/Src\stm32f1xx_hal_rcc_ex.c ****       /* Wait for Backup domain Write protection disable */
 131:C:/Users/vasil/STM32Cube/Repository/STM32Cube_FW_F1_V1.8.5/Drivers/STM32F1xx_HAL_Driver/Src\stm32f1xx_hal_rcc_ex.c ****       tickstart = HAL_GetTick();
 132:C:/Users/vasil/STM32Cube/Repository/STM32Cube_FW_F1_V1.8.5/Drivers/STM32F1xx_HAL_Driver/Src\stm32f1xx_hal_rcc_ex.c **** 
 133:C:/Users/vasil/STM32Cube/Repository/STM32Cube_FW_F1_V1.8.5/Drivers/STM32F1xx_HAL_Driver/Src\stm32f1xx_hal_rcc_ex.c ****       while (HAL_IS_BIT_CLR(PWR->CR, PWR_CR_DBP))
 134:C:/Users/vasil/STM32Cube/Repository/STM32Cube_FW_F1_V1.8.5/Drivers/STM32F1xx_HAL_Driver/Src\stm32f1xx_hal_rcc_ex.c ****       {
 135:C:/Users/vasil/STM32Cube/Repository/STM32Cube_FW_F1_V1.8.5/Drivers/STM32F1xx_HAL_Driver/Src\stm32f1xx_hal_rcc_ex.c ****         if ((HAL_GetTick() - tickstart) > RCC_DBP_TIMEOUT_VALUE)
 136:C:/Users/vasil/STM32Cube/Repository/STM32Cube_FW_F1_V1.8.5/Drivers/STM32F1xx_HAL_Driver/Src\stm32f1xx_hal_rcc_ex.c ****         {
 137:C:/Users/vasil/STM32Cube/Repository/STM32Cube_FW_F1_V1.8.5/Drivers/STM32F1xx_HAL_Driver/Src\stm32f1xx_hal_rcc_ex.c ****           return HAL_TIMEOUT;
ARM GAS  C:\Users\vasil\AppData\Local\Temp\ccgBRBHP.s 			page 5


 138:C:/Users/vasil/STM32Cube/Repository/STM32Cube_FW_F1_V1.8.5/Drivers/STM32F1xx_HAL_Driver/Src\stm32f1xx_hal_rcc_ex.c ****         }
 139:C:/Users/vasil/STM32Cube/Repository/STM32Cube_FW_F1_V1.8.5/Drivers/STM32F1xx_HAL_Driver/Src\stm32f1xx_hal_rcc_ex.c ****       }
 140:C:/Users/vasil/STM32Cube/Repository/STM32Cube_FW_F1_V1.8.5/Drivers/STM32F1xx_HAL_Driver/Src\stm32f1xx_hal_rcc_ex.c ****     }
 141:C:/Users/vasil/STM32Cube/Repository/STM32Cube_FW_F1_V1.8.5/Drivers/STM32F1xx_HAL_Driver/Src\stm32f1xx_hal_rcc_ex.c **** 
 142:C:/Users/vasil/STM32Cube/Repository/STM32Cube_FW_F1_V1.8.5/Drivers/STM32F1xx_HAL_Driver/Src\stm32f1xx_hal_rcc_ex.c ****     /* Reset the Backup domain only if the RTC Clock source selection is modified from reset value 
 143:C:/Users/vasil/STM32Cube/Repository/STM32Cube_FW_F1_V1.8.5/Drivers/STM32F1xx_HAL_Driver/Src\stm32f1xx_hal_rcc_ex.c ****     temp_reg = (RCC->BDCR & RCC_BDCR_RTCSEL);
  93              		.loc 1 143 5 is_stmt 1 view .LVU23
  94              		.loc 1 143 20 is_stmt 0 view .LVU24
  95 0038 344B     		ldr	r3, .L20
  96 003a 1B6A     		ldr	r3, [r3, #32]
  97              	.LVL6:
 144:C:/Users/vasil/STM32Cube/Repository/STM32Cube_FW_F1_V1.8.5/Drivers/STM32F1xx_HAL_Driver/Src\stm32f1xx_hal_rcc_ex.c ****     if ((temp_reg != 0x00000000U) && (temp_reg != (PeriphClkInit->RTCClockSelection & RCC_BDCR_RTCS
  98              		.loc 1 144 5 is_stmt 1 view .LVU25
  99              		.loc 1 144 8 is_stmt 0 view .LVU26
 100 003c 13F44073 		ands	r3, r3, #768
 101              	.LVL7:
 102              		.loc 1 144 8 view .LVU27
 103 0040 13D0     		beq	.L8
 104              		.loc 1 144 65 discriminator 1 view .LVU28
 105 0042 6268     		ldr	r2, [r4, #4]
 106              		.loc 1 144 85 discriminator 1 view .LVU29
 107 0044 02F44072 		and	r2, r2, #768
 108              		.loc 1 144 35 discriminator 1 view .LVU30
 109 0048 9A42     		cmp	r2, r3
 110 004a 0ED0     		beq	.L8
 145:C:/Users/vasil/STM32Cube/Repository/STM32Cube_FW_F1_V1.8.5/Drivers/STM32F1xx_HAL_Driver/Src\stm32f1xx_hal_rcc_ex.c ****     {
 146:C:/Users/vasil/STM32Cube/Repository/STM32Cube_FW_F1_V1.8.5/Drivers/STM32F1xx_HAL_Driver/Src\stm32f1xx_hal_rcc_ex.c ****       /* Store the content of BDCR register before the reset of Backup Domain */
 147:C:/Users/vasil/STM32Cube/Repository/STM32Cube_FW_F1_V1.8.5/Drivers/STM32F1xx_HAL_Driver/Src\stm32f1xx_hal_rcc_ex.c ****       temp_reg = (RCC->BDCR & ~(RCC_BDCR_RTCSEL));
 111              		.loc 1 147 7 is_stmt 1 view .LVU31
 112              		.loc 1 147 22 is_stmt 0 view .LVU32
 113 004c 2F4A     		ldr	r2, .L20
 114 004e 136A     		ldr	r3, [r2, #32]
 115              	.LVL8:
 116              		.loc 1 147 16 view .LVU33
 117 0050 23F44070 		bic	r0, r3, #768
 118              	.LVL9:
 148:C:/Users/vasil/STM32Cube/Repository/STM32Cube_FW_F1_V1.8.5/Drivers/STM32F1xx_HAL_Driver/Src\stm32f1xx_hal_rcc_ex.c ****       /* RTC Clock selection can be changed only if the Backup Domain is reset */
 149:C:/Users/vasil/STM32Cube/Repository/STM32Cube_FW_F1_V1.8.5/Drivers/STM32F1xx_HAL_Driver/Src\stm32f1xx_hal_rcc_ex.c ****       __HAL_RCC_BACKUPRESET_FORCE();
 119              		.loc 1 149 7 is_stmt 1 view .LVU34
 120 0054 2F49     		ldr	r1, .L20+8
 121 0056 0126     		movs	r6, #1
 122 0058 C1F84064 		str	r6, [r1, #1088]
 150:C:/Users/vasil/STM32Cube/Repository/STM32Cube_FW_F1_V1.8.5/Drivers/STM32F1xx_HAL_Driver/Src\stm32f1xx_hal_rcc_ex.c ****       __HAL_RCC_BACKUPRESET_RELEASE();
 123              		.loc 1 150 7 view .LVU35
 124 005c 0026     		movs	r6, #0
 125 005e C1F84064 		str	r6, [r1, #1088]
 151:C:/Users/vasil/STM32Cube/Repository/STM32Cube_FW_F1_V1.8.5/Drivers/STM32F1xx_HAL_Driver/Src\stm32f1xx_hal_rcc_ex.c ****       /* Restore the Content of BDCR register */
 152:C:/Users/vasil/STM32Cube/Repository/STM32Cube_FW_F1_V1.8.5/Drivers/STM32F1xx_HAL_Driver/Src\stm32f1xx_hal_rcc_ex.c ****       RCC->BDCR = temp_reg;
 126              		.loc 1 152 7 view .LVU36
 127              		.loc 1 152 17 is_stmt 0 view .LVU37
 128 0062 1062     		str	r0, [r2, #32]
 153:C:/Users/vasil/STM32Cube/Repository/STM32Cube_FW_F1_V1.8.5/Drivers/STM32F1xx_HAL_Driver/Src\stm32f1xx_hal_rcc_ex.c **** 
 154:C:/Users/vasil/STM32Cube/Repository/STM32Cube_FW_F1_V1.8.5/Drivers/STM32F1xx_HAL_Driver/Src\stm32f1xx_hal_rcc_ex.c ****       /* Wait for LSERDY if LSE was enabled */
 155:C:/Users/vasil/STM32Cube/Repository/STM32Cube_FW_F1_V1.8.5/Drivers/STM32F1xx_HAL_Driver/Src\stm32f1xx_hal_rcc_ex.c ****       if (HAL_IS_BIT_SET(temp_reg, RCC_BDCR_LSEON))
 129              		.loc 1 155 7 is_stmt 1 view .LVU38
 130              		.loc 1 155 10 is_stmt 0 view .LVU39
 131 0064 13F0010F 		tst	r3, #1
ARM GAS  C:\Users\vasil\AppData\Local\Temp\ccgBRBHP.s 			page 6


 132 0068 36D1     		bne	.L18
 133              	.LVL10:
 134              	.L8:
 156:C:/Users/vasil/STM32Cube/Repository/STM32Cube_FW_F1_V1.8.5/Drivers/STM32F1xx_HAL_Driver/Src\stm32f1xx_hal_rcc_ex.c ****       {
 157:C:/Users/vasil/STM32Cube/Repository/STM32Cube_FW_F1_V1.8.5/Drivers/STM32F1xx_HAL_Driver/Src\stm32f1xx_hal_rcc_ex.c ****         /* Get Start Tick */
 158:C:/Users/vasil/STM32Cube/Repository/STM32Cube_FW_F1_V1.8.5/Drivers/STM32F1xx_HAL_Driver/Src\stm32f1xx_hal_rcc_ex.c ****         tickstart = HAL_GetTick();
 159:C:/Users/vasil/STM32Cube/Repository/STM32Cube_FW_F1_V1.8.5/Drivers/STM32F1xx_HAL_Driver/Src\stm32f1xx_hal_rcc_ex.c **** 
 160:C:/Users/vasil/STM32Cube/Repository/STM32Cube_FW_F1_V1.8.5/Drivers/STM32F1xx_HAL_Driver/Src\stm32f1xx_hal_rcc_ex.c ****         /* Wait till LSE is ready */
 161:C:/Users/vasil/STM32Cube/Repository/STM32Cube_FW_F1_V1.8.5/Drivers/STM32F1xx_HAL_Driver/Src\stm32f1xx_hal_rcc_ex.c ****         while (__HAL_RCC_GET_FLAG(RCC_FLAG_LSERDY) == RESET)
 162:C:/Users/vasil/STM32Cube/Repository/STM32Cube_FW_F1_V1.8.5/Drivers/STM32F1xx_HAL_Driver/Src\stm32f1xx_hal_rcc_ex.c ****         {
 163:C:/Users/vasil/STM32Cube/Repository/STM32Cube_FW_F1_V1.8.5/Drivers/STM32F1xx_HAL_Driver/Src\stm32f1xx_hal_rcc_ex.c ****           if ((HAL_GetTick() - tickstart) > RCC_LSE_TIMEOUT_VALUE)
 164:C:/Users/vasil/STM32Cube/Repository/STM32Cube_FW_F1_V1.8.5/Drivers/STM32F1xx_HAL_Driver/Src\stm32f1xx_hal_rcc_ex.c ****           {
 165:C:/Users/vasil/STM32Cube/Repository/STM32Cube_FW_F1_V1.8.5/Drivers/STM32F1xx_HAL_Driver/Src\stm32f1xx_hal_rcc_ex.c ****             return HAL_TIMEOUT;
 166:C:/Users/vasil/STM32Cube/Repository/STM32Cube_FW_F1_V1.8.5/Drivers/STM32F1xx_HAL_Driver/Src\stm32f1xx_hal_rcc_ex.c ****           }
 167:C:/Users/vasil/STM32Cube/Repository/STM32Cube_FW_F1_V1.8.5/Drivers/STM32F1xx_HAL_Driver/Src\stm32f1xx_hal_rcc_ex.c ****         }
 168:C:/Users/vasil/STM32Cube/Repository/STM32Cube_FW_F1_V1.8.5/Drivers/STM32F1xx_HAL_Driver/Src\stm32f1xx_hal_rcc_ex.c ****       }
 169:C:/Users/vasil/STM32Cube/Repository/STM32Cube_FW_F1_V1.8.5/Drivers/STM32F1xx_HAL_Driver/Src\stm32f1xx_hal_rcc_ex.c ****     }
 170:C:/Users/vasil/STM32Cube/Repository/STM32Cube_FW_F1_V1.8.5/Drivers/STM32F1xx_HAL_Driver/Src\stm32f1xx_hal_rcc_ex.c ****     __HAL_RCC_RTC_CONFIG(PeriphClkInit->RTCClockSelection);
 135              		.loc 1 170 5 is_stmt 1 view .LVU40
 136 006a 284A     		ldr	r2, .L20
 137 006c 136A     		ldr	r3, [r2, #32]
 138 006e 23F44073 		bic	r3, r3, #768
 139 0072 6168     		ldr	r1, [r4, #4]
 140 0074 0B43     		orrs	r3, r3, r1
 141 0076 1362     		str	r3, [r2, #32]
 171:C:/Users/vasil/STM32Cube/Repository/STM32Cube_FW_F1_V1.8.5/Drivers/STM32F1xx_HAL_Driver/Src\stm32f1xx_hal_rcc_ex.c **** 
 172:C:/Users/vasil/STM32Cube/Repository/STM32Cube_FW_F1_V1.8.5/Drivers/STM32F1xx_HAL_Driver/Src\stm32f1xx_hal_rcc_ex.c ****     /* Require to disable power clock if necessary */
 173:C:/Users/vasil/STM32Cube/Repository/STM32Cube_FW_F1_V1.8.5/Drivers/STM32F1xx_HAL_Driver/Src\stm32f1xx_hal_rcc_ex.c ****     if (pwrclkchanged == SET)
 142              		.loc 1 173 5 view .LVU41
 143              		.loc 1 173 8 is_stmt 0 view .LVU42
 144 0078 002D     		cmp	r5, #0
 145 007a 3ED1     		bne	.L19
 146              	.LVL11:
 147              	.L2:
 148              		.loc 1 173 8 view .LVU43
 149              	.LBE2:
 174:C:/Users/vasil/STM32Cube/Repository/STM32Cube_FW_F1_V1.8.5/Drivers/STM32F1xx_HAL_Driver/Src\stm32f1xx_hal_rcc_ex.c ****     {
 175:C:/Users/vasil/STM32Cube/Repository/STM32Cube_FW_F1_V1.8.5/Drivers/STM32F1xx_HAL_Driver/Src\stm32f1xx_hal_rcc_ex.c ****       __HAL_RCC_PWR_CLK_DISABLE();
 176:C:/Users/vasil/STM32Cube/Repository/STM32Cube_FW_F1_V1.8.5/Drivers/STM32F1xx_HAL_Driver/Src\stm32f1xx_hal_rcc_ex.c ****     }
 177:C:/Users/vasil/STM32Cube/Repository/STM32Cube_FW_F1_V1.8.5/Drivers/STM32F1xx_HAL_Driver/Src\stm32f1xx_hal_rcc_ex.c ****   }
 178:C:/Users/vasil/STM32Cube/Repository/STM32Cube_FW_F1_V1.8.5/Drivers/STM32F1xx_HAL_Driver/Src\stm32f1xx_hal_rcc_ex.c **** 
 179:C:/Users/vasil/STM32Cube/Repository/STM32Cube_FW_F1_V1.8.5/Drivers/STM32F1xx_HAL_Driver/Src\stm32f1xx_hal_rcc_ex.c ****   /*------------------------------ ADC clock Configuration ------------------*/
 180:C:/Users/vasil/STM32Cube/Repository/STM32Cube_FW_F1_V1.8.5/Drivers/STM32F1xx_HAL_Driver/Src\stm32f1xx_hal_rcc_ex.c ****   if (((PeriphClkInit->PeriphClockSelection) & RCC_PERIPHCLK_ADC) == RCC_PERIPHCLK_ADC)
 150              		.loc 1 180 3 is_stmt 1 view .LVU44
 151              		.loc 1 180 22 is_stmt 0 view .LVU45
 152 007c 2368     		ldr	r3, [r4]
 153              		.loc 1 180 6 view .LVU46
 154 007e 13F0020F 		tst	r3, #2
 155 0082 06D0     		beq	.L11
 181:C:/Users/vasil/STM32Cube/Repository/STM32Cube_FW_F1_V1.8.5/Drivers/STM32F1xx_HAL_Driver/Src\stm32f1xx_hal_rcc_ex.c ****   {
 182:C:/Users/vasil/STM32Cube/Repository/STM32Cube_FW_F1_V1.8.5/Drivers/STM32F1xx_HAL_Driver/Src\stm32f1xx_hal_rcc_ex.c ****     /* Check the parameters */
 183:C:/Users/vasil/STM32Cube/Repository/STM32Cube_FW_F1_V1.8.5/Drivers/STM32F1xx_HAL_Driver/Src\stm32f1xx_hal_rcc_ex.c ****     assert_param(IS_RCC_ADCPLLCLK_DIV(PeriphClkInit->AdcClockSelection));
 156              		.loc 1 183 5 is_stmt 1 view .LVU47
 184:C:/Users/vasil/STM32Cube/Repository/STM32Cube_FW_F1_V1.8.5/Drivers/STM32F1xx_HAL_Driver/Src\stm32f1xx_hal_rcc_ex.c **** 
 185:C:/Users/vasil/STM32Cube/Repository/STM32Cube_FW_F1_V1.8.5/Drivers/STM32F1xx_HAL_Driver/Src\stm32f1xx_hal_rcc_ex.c ****     /* Configure the ADC clock source */
 186:C:/Users/vasil/STM32Cube/Repository/STM32Cube_FW_F1_V1.8.5/Drivers/STM32F1xx_HAL_Driver/Src\stm32f1xx_hal_rcc_ex.c ****     __HAL_RCC_ADC_CONFIG(PeriphClkInit->AdcClockSelection);
 157              		.loc 1 186 5 view .LVU48
ARM GAS  C:\Users\vasil\AppData\Local\Temp\ccgBRBHP.s 			page 7


 158 0084 214A     		ldr	r2, .L20
 159 0086 5368     		ldr	r3, [r2, #4]
 160 0088 23F44043 		bic	r3, r3, #49152
 161 008c A168     		ldr	r1, [r4, #8]
 162 008e 0B43     		orrs	r3, r3, r1
 163 0090 5360     		str	r3, [r2, #4]
 164              	.L11:
 187:C:/Users/vasil/STM32Cube/Repository/STM32Cube_FW_F1_V1.8.5/Drivers/STM32F1xx_HAL_Driver/Src\stm32f1xx_hal_rcc_ex.c ****   }
 188:C:/Users/vasil/STM32Cube/Repository/STM32Cube_FW_F1_V1.8.5/Drivers/STM32F1xx_HAL_Driver/Src\stm32f1xx_hal_rcc_ex.c **** 
 189:C:/Users/vasil/STM32Cube/Repository/STM32Cube_FW_F1_V1.8.5/Drivers/STM32F1xx_HAL_Driver/Src\stm32f1xx_hal_rcc_ex.c **** #if defined(STM32F105xC) || defined(STM32F107xC)
 190:C:/Users/vasil/STM32Cube/Repository/STM32Cube_FW_F1_V1.8.5/Drivers/STM32F1xx_HAL_Driver/Src\stm32f1xx_hal_rcc_ex.c ****   /*------------------------------ I2S2 Configuration ------------------------*/
 191:C:/Users/vasil/STM32Cube/Repository/STM32Cube_FW_F1_V1.8.5/Drivers/STM32F1xx_HAL_Driver/Src\stm32f1xx_hal_rcc_ex.c ****   if (((PeriphClkInit->PeriphClockSelection) & RCC_PERIPHCLK_I2S2) == RCC_PERIPHCLK_I2S2)
 192:C:/Users/vasil/STM32Cube/Repository/STM32Cube_FW_F1_V1.8.5/Drivers/STM32F1xx_HAL_Driver/Src\stm32f1xx_hal_rcc_ex.c ****   {
 193:C:/Users/vasil/STM32Cube/Repository/STM32Cube_FW_F1_V1.8.5/Drivers/STM32F1xx_HAL_Driver/Src\stm32f1xx_hal_rcc_ex.c ****     /* Check the parameters */
 194:C:/Users/vasil/STM32Cube/Repository/STM32Cube_FW_F1_V1.8.5/Drivers/STM32F1xx_HAL_Driver/Src\stm32f1xx_hal_rcc_ex.c ****     assert_param(IS_RCC_I2S2CLKSOURCE(PeriphClkInit->I2s2ClockSelection));
 195:C:/Users/vasil/STM32Cube/Repository/STM32Cube_FW_F1_V1.8.5/Drivers/STM32F1xx_HAL_Driver/Src\stm32f1xx_hal_rcc_ex.c **** 
 196:C:/Users/vasil/STM32Cube/Repository/STM32Cube_FW_F1_V1.8.5/Drivers/STM32F1xx_HAL_Driver/Src\stm32f1xx_hal_rcc_ex.c ****     /* Configure the I2S2 clock source */
 197:C:/Users/vasil/STM32Cube/Repository/STM32Cube_FW_F1_V1.8.5/Drivers/STM32F1xx_HAL_Driver/Src\stm32f1xx_hal_rcc_ex.c ****     __HAL_RCC_I2S2_CONFIG(PeriphClkInit->I2s2ClockSelection);
 198:C:/Users/vasil/STM32Cube/Repository/STM32Cube_FW_F1_V1.8.5/Drivers/STM32F1xx_HAL_Driver/Src\stm32f1xx_hal_rcc_ex.c ****   }
 199:C:/Users/vasil/STM32Cube/Repository/STM32Cube_FW_F1_V1.8.5/Drivers/STM32F1xx_HAL_Driver/Src\stm32f1xx_hal_rcc_ex.c **** 
 200:C:/Users/vasil/STM32Cube/Repository/STM32Cube_FW_F1_V1.8.5/Drivers/STM32F1xx_HAL_Driver/Src\stm32f1xx_hal_rcc_ex.c ****   /*------------------------------ I2S3 Configuration ------------------------*/
 201:C:/Users/vasil/STM32Cube/Repository/STM32Cube_FW_F1_V1.8.5/Drivers/STM32F1xx_HAL_Driver/Src\stm32f1xx_hal_rcc_ex.c ****   if (((PeriphClkInit->PeriphClockSelection) & RCC_PERIPHCLK_I2S3) == RCC_PERIPHCLK_I2S3)
 202:C:/Users/vasil/STM32Cube/Repository/STM32Cube_FW_F1_V1.8.5/Drivers/STM32F1xx_HAL_Driver/Src\stm32f1xx_hal_rcc_ex.c ****   {
 203:C:/Users/vasil/STM32Cube/Repository/STM32Cube_FW_F1_V1.8.5/Drivers/STM32F1xx_HAL_Driver/Src\stm32f1xx_hal_rcc_ex.c ****     /* Check the parameters */
 204:C:/Users/vasil/STM32Cube/Repository/STM32Cube_FW_F1_V1.8.5/Drivers/STM32F1xx_HAL_Driver/Src\stm32f1xx_hal_rcc_ex.c ****     assert_param(IS_RCC_I2S3CLKSOURCE(PeriphClkInit->I2s3ClockSelection));
 205:C:/Users/vasil/STM32Cube/Repository/STM32Cube_FW_F1_V1.8.5/Drivers/STM32F1xx_HAL_Driver/Src\stm32f1xx_hal_rcc_ex.c **** 
 206:C:/Users/vasil/STM32Cube/Repository/STM32Cube_FW_F1_V1.8.5/Drivers/STM32F1xx_HAL_Driver/Src\stm32f1xx_hal_rcc_ex.c ****     /* Configure the I2S3 clock source */
 207:C:/Users/vasil/STM32Cube/Repository/STM32Cube_FW_F1_V1.8.5/Drivers/STM32F1xx_HAL_Driver/Src\stm32f1xx_hal_rcc_ex.c ****     __HAL_RCC_I2S3_CONFIG(PeriphClkInit->I2s3ClockSelection);
 208:C:/Users/vasil/STM32Cube/Repository/STM32Cube_FW_F1_V1.8.5/Drivers/STM32F1xx_HAL_Driver/Src\stm32f1xx_hal_rcc_ex.c ****   }
 209:C:/Users/vasil/STM32Cube/Repository/STM32Cube_FW_F1_V1.8.5/Drivers/STM32F1xx_HAL_Driver/Src\stm32f1xx_hal_rcc_ex.c **** 
 210:C:/Users/vasil/STM32Cube/Repository/STM32Cube_FW_F1_V1.8.5/Drivers/STM32F1xx_HAL_Driver/Src\stm32f1xx_hal_rcc_ex.c ****   /*------------------------------ PLL I2S Configuration ----------------------*/
 211:C:/Users/vasil/STM32Cube/Repository/STM32Cube_FW_F1_V1.8.5/Drivers/STM32F1xx_HAL_Driver/Src\stm32f1xx_hal_rcc_ex.c ****   /* Check that PLLI2S need to be enabled */
 212:C:/Users/vasil/STM32Cube/Repository/STM32Cube_FW_F1_V1.8.5/Drivers/STM32F1xx_HAL_Driver/Src\stm32f1xx_hal_rcc_ex.c ****   if (HAL_IS_BIT_SET(RCC->CFGR2, RCC_CFGR2_I2S2SRC) || HAL_IS_BIT_SET(RCC->CFGR2, RCC_CFGR2_I2S3SRC
 213:C:/Users/vasil/STM32Cube/Repository/STM32Cube_FW_F1_V1.8.5/Drivers/STM32F1xx_HAL_Driver/Src\stm32f1xx_hal_rcc_ex.c ****   {
 214:C:/Users/vasil/STM32Cube/Repository/STM32Cube_FW_F1_V1.8.5/Drivers/STM32F1xx_HAL_Driver/Src\stm32f1xx_hal_rcc_ex.c ****     /* Update flag to indicate that PLL I2S should be active */
 215:C:/Users/vasil/STM32Cube/Repository/STM32Cube_FW_F1_V1.8.5/Drivers/STM32F1xx_HAL_Driver/Src\stm32f1xx_hal_rcc_ex.c ****     pllactive = 1;
 216:C:/Users/vasil/STM32Cube/Repository/STM32Cube_FW_F1_V1.8.5/Drivers/STM32F1xx_HAL_Driver/Src\stm32f1xx_hal_rcc_ex.c ****   }
 217:C:/Users/vasil/STM32Cube/Repository/STM32Cube_FW_F1_V1.8.5/Drivers/STM32F1xx_HAL_Driver/Src\stm32f1xx_hal_rcc_ex.c **** 
 218:C:/Users/vasil/STM32Cube/Repository/STM32Cube_FW_F1_V1.8.5/Drivers/STM32F1xx_HAL_Driver/Src\stm32f1xx_hal_rcc_ex.c ****   /* Check if PLL I2S need to be enabled */
 219:C:/Users/vasil/STM32Cube/Repository/STM32Cube_FW_F1_V1.8.5/Drivers/STM32F1xx_HAL_Driver/Src\stm32f1xx_hal_rcc_ex.c ****   if (pllactive == 1)
 220:C:/Users/vasil/STM32Cube/Repository/STM32Cube_FW_F1_V1.8.5/Drivers/STM32F1xx_HAL_Driver/Src\stm32f1xx_hal_rcc_ex.c ****   {
 221:C:/Users/vasil/STM32Cube/Repository/STM32Cube_FW_F1_V1.8.5/Drivers/STM32F1xx_HAL_Driver/Src\stm32f1xx_hal_rcc_ex.c ****     /* Enable PLL I2S only if not active */
 222:C:/Users/vasil/STM32Cube/Repository/STM32Cube_FW_F1_V1.8.5/Drivers/STM32F1xx_HAL_Driver/Src\stm32f1xx_hal_rcc_ex.c ****     if (HAL_IS_BIT_CLR(RCC->CR, RCC_CR_PLL3ON))
 223:C:/Users/vasil/STM32Cube/Repository/STM32Cube_FW_F1_V1.8.5/Drivers/STM32F1xx_HAL_Driver/Src\stm32f1xx_hal_rcc_ex.c ****     {
 224:C:/Users/vasil/STM32Cube/Repository/STM32Cube_FW_F1_V1.8.5/Drivers/STM32F1xx_HAL_Driver/Src\stm32f1xx_hal_rcc_ex.c ****       /* Check the parameters */
 225:C:/Users/vasil/STM32Cube/Repository/STM32Cube_FW_F1_V1.8.5/Drivers/STM32F1xx_HAL_Driver/Src\stm32f1xx_hal_rcc_ex.c ****       assert_param(IS_RCC_PLLI2S_MUL(PeriphClkInit->PLLI2S.PLLI2SMUL));
 226:C:/Users/vasil/STM32Cube/Repository/STM32Cube_FW_F1_V1.8.5/Drivers/STM32F1xx_HAL_Driver/Src\stm32f1xx_hal_rcc_ex.c ****       assert_param(IS_RCC_HSE_PREDIV2(PeriphClkInit->PLLI2S.HSEPrediv2Value));
 227:C:/Users/vasil/STM32Cube/Repository/STM32Cube_FW_F1_V1.8.5/Drivers/STM32F1xx_HAL_Driver/Src\stm32f1xx_hal_rcc_ex.c **** 
 228:C:/Users/vasil/STM32Cube/Repository/STM32Cube_FW_F1_V1.8.5/Drivers/STM32F1xx_HAL_Driver/Src\stm32f1xx_hal_rcc_ex.c ****       /* Prediv2 can be written only when the PLL2 is disabled. */
 229:C:/Users/vasil/STM32Cube/Repository/STM32Cube_FW_F1_V1.8.5/Drivers/STM32F1xx_HAL_Driver/Src\stm32f1xx_hal_rcc_ex.c ****       /* Return an error only if new value is different from the programmed value */
 230:C:/Users/vasil/STM32Cube/Repository/STM32Cube_FW_F1_V1.8.5/Drivers/STM32F1xx_HAL_Driver/Src\stm32f1xx_hal_rcc_ex.c ****       if (HAL_IS_BIT_SET(RCC->CR, RCC_CR_PLL2ON) && \
 231:C:/Users/vasil/STM32Cube/Repository/STM32Cube_FW_F1_V1.8.5/Drivers/STM32F1xx_HAL_Driver/Src\stm32f1xx_hal_rcc_ex.c ****           (__HAL_RCC_HSE_GET_PREDIV2() != PeriphClkInit->PLLI2S.HSEPrediv2Value))
 232:C:/Users/vasil/STM32Cube/Repository/STM32Cube_FW_F1_V1.8.5/Drivers/STM32F1xx_HAL_Driver/Src\stm32f1xx_hal_rcc_ex.c ****       {
 233:C:/Users/vasil/STM32Cube/Repository/STM32Cube_FW_F1_V1.8.5/Drivers/STM32F1xx_HAL_Driver/Src\stm32f1xx_hal_rcc_ex.c ****         return HAL_ERROR;
 234:C:/Users/vasil/STM32Cube/Repository/STM32Cube_FW_F1_V1.8.5/Drivers/STM32F1xx_HAL_Driver/Src\stm32f1xx_hal_rcc_ex.c ****       }
 235:C:/Users/vasil/STM32Cube/Repository/STM32Cube_FW_F1_V1.8.5/Drivers/STM32F1xx_HAL_Driver/Src\stm32f1xx_hal_rcc_ex.c **** 
 236:C:/Users/vasil/STM32Cube/Repository/STM32Cube_FW_F1_V1.8.5/Drivers/STM32F1xx_HAL_Driver/Src\stm32f1xx_hal_rcc_ex.c ****       /* Configure the HSE prediv2 factor --------------------------------*/
ARM GAS  C:\Users\vasil\AppData\Local\Temp\ccgBRBHP.s 			page 8


 237:C:/Users/vasil/STM32Cube/Repository/STM32Cube_FW_F1_V1.8.5/Drivers/STM32F1xx_HAL_Driver/Src\stm32f1xx_hal_rcc_ex.c ****       __HAL_RCC_HSE_PREDIV2_CONFIG(PeriphClkInit->PLLI2S.HSEPrediv2Value);
 238:C:/Users/vasil/STM32Cube/Repository/STM32Cube_FW_F1_V1.8.5/Drivers/STM32F1xx_HAL_Driver/Src\stm32f1xx_hal_rcc_ex.c **** 
 239:C:/Users/vasil/STM32Cube/Repository/STM32Cube_FW_F1_V1.8.5/Drivers/STM32F1xx_HAL_Driver/Src\stm32f1xx_hal_rcc_ex.c ****       /* Configure the main PLLI2S multiplication factors. */
 240:C:/Users/vasil/STM32Cube/Repository/STM32Cube_FW_F1_V1.8.5/Drivers/STM32F1xx_HAL_Driver/Src\stm32f1xx_hal_rcc_ex.c ****       __HAL_RCC_PLLI2S_CONFIG(PeriphClkInit->PLLI2S.PLLI2SMUL);
 241:C:/Users/vasil/STM32Cube/Repository/STM32Cube_FW_F1_V1.8.5/Drivers/STM32F1xx_HAL_Driver/Src\stm32f1xx_hal_rcc_ex.c **** 
 242:C:/Users/vasil/STM32Cube/Repository/STM32Cube_FW_F1_V1.8.5/Drivers/STM32F1xx_HAL_Driver/Src\stm32f1xx_hal_rcc_ex.c ****       /* Enable the main PLLI2S. */
 243:C:/Users/vasil/STM32Cube/Repository/STM32Cube_FW_F1_V1.8.5/Drivers/STM32F1xx_HAL_Driver/Src\stm32f1xx_hal_rcc_ex.c ****       __HAL_RCC_PLLI2S_ENABLE();
 244:C:/Users/vasil/STM32Cube/Repository/STM32Cube_FW_F1_V1.8.5/Drivers/STM32F1xx_HAL_Driver/Src\stm32f1xx_hal_rcc_ex.c **** 
 245:C:/Users/vasil/STM32Cube/Repository/STM32Cube_FW_F1_V1.8.5/Drivers/STM32F1xx_HAL_Driver/Src\stm32f1xx_hal_rcc_ex.c ****       /* Get Start Tick*/
 246:C:/Users/vasil/STM32Cube/Repository/STM32Cube_FW_F1_V1.8.5/Drivers/STM32F1xx_HAL_Driver/Src\stm32f1xx_hal_rcc_ex.c ****       tickstart = HAL_GetTick();
 247:C:/Users/vasil/STM32Cube/Repository/STM32Cube_FW_F1_V1.8.5/Drivers/STM32F1xx_HAL_Driver/Src\stm32f1xx_hal_rcc_ex.c **** 
 248:C:/Users/vasil/STM32Cube/Repository/STM32Cube_FW_F1_V1.8.5/Drivers/STM32F1xx_HAL_Driver/Src\stm32f1xx_hal_rcc_ex.c ****       /* Wait till PLLI2S is ready */
 249:C:/Users/vasil/STM32Cube/Repository/STM32Cube_FW_F1_V1.8.5/Drivers/STM32F1xx_HAL_Driver/Src\stm32f1xx_hal_rcc_ex.c ****       while (__HAL_RCC_GET_FLAG(RCC_FLAG_PLLI2SRDY)  == RESET)
 250:C:/Users/vasil/STM32Cube/Repository/STM32Cube_FW_F1_V1.8.5/Drivers/STM32F1xx_HAL_Driver/Src\stm32f1xx_hal_rcc_ex.c ****       {
 251:C:/Users/vasil/STM32Cube/Repository/STM32Cube_FW_F1_V1.8.5/Drivers/STM32F1xx_HAL_Driver/Src\stm32f1xx_hal_rcc_ex.c ****         if ((HAL_GetTick() - tickstart) > PLLI2S_TIMEOUT_VALUE)
 252:C:/Users/vasil/STM32Cube/Repository/STM32Cube_FW_F1_V1.8.5/Drivers/STM32F1xx_HAL_Driver/Src\stm32f1xx_hal_rcc_ex.c ****         {
 253:C:/Users/vasil/STM32Cube/Repository/STM32Cube_FW_F1_V1.8.5/Drivers/STM32F1xx_HAL_Driver/Src\stm32f1xx_hal_rcc_ex.c ****           return HAL_TIMEOUT;
 254:C:/Users/vasil/STM32Cube/Repository/STM32Cube_FW_F1_V1.8.5/Drivers/STM32F1xx_HAL_Driver/Src\stm32f1xx_hal_rcc_ex.c ****         }
 255:C:/Users/vasil/STM32Cube/Repository/STM32Cube_FW_F1_V1.8.5/Drivers/STM32F1xx_HAL_Driver/Src\stm32f1xx_hal_rcc_ex.c ****       }
 256:C:/Users/vasil/STM32Cube/Repository/STM32Cube_FW_F1_V1.8.5/Drivers/STM32F1xx_HAL_Driver/Src\stm32f1xx_hal_rcc_ex.c ****     }
 257:C:/Users/vasil/STM32Cube/Repository/STM32Cube_FW_F1_V1.8.5/Drivers/STM32F1xx_HAL_Driver/Src\stm32f1xx_hal_rcc_ex.c ****     else
 258:C:/Users/vasil/STM32Cube/Repository/STM32Cube_FW_F1_V1.8.5/Drivers/STM32F1xx_HAL_Driver/Src\stm32f1xx_hal_rcc_ex.c ****     {
 259:C:/Users/vasil/STM32Cube/Repository/STM32Cube_FW_F1_V1.8.5/Drivers/STM32F1xx_HAL_Driver/Src\stm32f1xx_hal_rcc_ex.c ****       /* Return an error only if user wants to change the PLLI2SMUL whereas PLLI2S is active */
 260:C:/Users/vasil/STM32Cube/Repository/STM32Cube_FW_F1_V1.8.5/Drivers/STM32F1xx_HAL_Driver/Src\stm32f1xx_hal_rcc_ex.c ****       if (READ_BIT(RCC->CFGR2, RCC_CFGR2_PLL3MUL) != PeriphClkInit->PLLI2S.PLLI2SMUL)
 261:C:/Users/vasil/STM32Cube/Repository/STM32Cube_FW_F1_V1.8.5/Drivers/STM32F1xx_HAL_Driver/Src\stm32f1xx_hal_rcc_ex.c ****       {
 262:C:/Users/vasil/STM32Cube/Repository/STM32Cube_FW_F1_V1.8.5/Drivers/STM32F1xx_HAL_Driver/Src\stm32f1xx_hal_rcc_ex.c ****         return HAL_ERROR;
 263:C:/Users/vasil/STM32Cube/Repository/STM32Cube_FW_F1_V1.8.5/Drivers/STM32F1xx_HAL_Driver/Src\stm32f1xx_hal_rcc_ex.c ****       }
 264:C:/Users/vasil/STM32Cube/Repository/STM32Cube_FW_F1_V1.8.5/Drivers/STM32F1xx_HAL_Driver/Src\stm32f1xx_hal_rcc_ex.c ****     }
 265:C:/Users/vasil/STM32Cube/Repository/STM32Cube_FW_F1_V1.8.5/Drivers/STM32F1xx_HAL_Driver/Src\stm32f1xx_hal_rcc_ex.c ****   }
 266:C:/Users/vasil/STM32Cube/Repository/STM32Cube_FW_F1_V1.8.5/Drivers/STM32F1xx_HAL_Driver/Src\stm32f1xx_hal_rcc_ex.c **** #endif /* STM32F105xC || STM32F107xC */
 267:C:/Users/vasil/STM32Cube/Repository/STM32Cube_FW_F1_V1.8.5/Drivers/STM32F1xx_HAL_Driver/Src\stm32f1xx_hal_rcc_ex.c **** 
 268:C:/Users/vasil/STM32Cube/Repository/STM32Cube_FW_F1_V1.8.5/Drivers/STM32F1xx_HAL_Driver/Src\stm32f1xx_hal_rcc_ex.c **** #if defined(STM32F102x6) || defined(STM32F102xB) || defined(STM32F103x6)\
 269:C:/Users/vasil/STM32Cube/Repository/STM32Cube_FW_F1_V1.8.5/Drivers/STM32F1xx_HAL_Driver/Src\stm32f1xx_hal_rcc_ex.c ****  || defined(STM32F103xB) || defined(STM32F103xE) || defined(STM32F103xG)\
 270:C:/Users/vasil/STM32Cube/Repository/STM32Cube_FW_F1_V1.8.5/Drivers/STM32F1xx_HAL_Driver/Src\stm32f1xx_hal_rcc_ex.c ****  || defined(STM32F105xC) || defined(STM32F107xC)
 271:C:/Users/vasil/STM32Cube/Repository/STM32Cube_FW_F1_V1.8.5/Drivers/STM32F1xx_HAL_Driver/Src\stm32f1xx_hal_rcc_ex.c ****   /*------------------------------ USB clock Configuration ------------------*/
 272:C:/Users/vasil/STM32Cube/Repository/STM32Cube_FW_F1_V1.8.5/Drivers/STM32F1xx_HAL_Driver/Src\stm32f1xx_hal_rcc_ex.c ****   if (((PeriphClkInit->PeriphClockSelection) & RCC_PERIPHCLK_USB) == RCC_PERIPHCLK_USB)
 165              		.loc 1 272 3 view .LVU49
 166              		.loc 1 272 22 is_stmt 0 view .LVU50
 167 0092 2368     		ldr	r3, [r4]
 168              		.loc 1 272 6 view .LVU51
 169 0094 13F0100F 		tst	r3, #16
 170 0098 34D0     		beq	.L15
 273:C:/Users/vasil/STM32Cube/Repository/STM32Cube_FW_F1_V1.8.5/Drivers/STM32F1xx_HAL_Driver/Src\stm32f1xx_hal_rcc_ex.c ****   {
 274:C:/Users/vasil/STM32Cube/Repository/STM32Cube_FW_F1_V1.8.5/Drivers/STM32F1xx_HAL_Driver/Src\stm32f1xx_hal_rcc_ex.c ****     /* Check the parameters */
 275:C:/Users/vasil/STM32Cube/Repository/STM32Cube_FW_F1_V1.8.5/Drivers/STM32F1xx_HAL_Driver/Src\stm32f1xx_hal_rcc_ex.c ****     assert_param(IS_RCC_USBPLLCLK_DIV(PeriphClkInit->UsbClockSelection));
 171              		.loc 1 275 5 is_stmt 1 view .LVU52
 276:C:/Users/vasil/STM32Cube/Repository/STM32Cube_FW_F1_V1.8.5/Drivers/STM32F1xx_HAL_Driver/Src\stm32f1xx_hal_rcc_ex.c **** 
 277:C:/Users/vasil/STM32Cube/Repository/STM32Cube_FW_F1_V1.8.5/Drivers/STM32F1xx_HAL_Driver/Src\stm32f1xx_hal_rcc_ex.c ****     /* Configure the USB clock source */
 278:C:/Users/vasil/STM32Cube/Repository/STM32Cube_FW_F1_V1.8.5/Drivers/STM32F1xx_HAL_Driver/Src\stm32f1xx_hal_rcc_ex.c ****     __HAL_RCC_USB_CONFIG(PeriphClkInit->UsbClockSelection);
 172              		.loc 1 278 5 view .LVU53
 173 009a 1C4A     		ldr	r2, .L20
 174 009c 5368     		ldr	r3, [r2, #4]
 175 009e 23F48003 		bic	r3, r3, #4194304
 176 00a2 E168     		ldr	r1, [r4, #12]
 177 00a4 0B43     		orrs	r3, r3, r1
 178 00a6 5360     		str	r3, [r2, #4]
 279:C:/Users/vasil/STM32Cube/Repository/STM32Cube_FW_F1_V1.8.5/Drivers/STM32F1xx_HAL_Driver/Src\stm32f1xx_hal_rcc_ex.c ****   }
ARM GAS  C:\Users\vasil\AppData\Local\Temp\ccgBRBHP.s 			page 9


 280:C:/Users/vasil/STM32Cube/Repository/STM32Cube_FW_F1_V1.8.5/Drivers/STM32F1xx_HAL_Driver/Src\stm32f1xx_hal_rcc_ex.c **** #endif /* STM32F102x6 || STM32F102xB || STM32F103x6 || STM32F103xB || STM32F103xE || STM32F103xG ||
 281:C:/Users/vasil/STM32Cube/Repository/STM32Cube_FW_F1_V1.8.5/Drivers/STM32F1xx_HAL_Driver/Src\stm32f1xx_hal_rcc_ex.c **** 
 282:C:/Users/vasil/STM32Cube/Repository/STM32Cube_FW_F1_V1.8.5/Drivers/STM32F1xx_HAL_Driver/Src\stm32f1xx_hal_rcc_ex.c ****   return HAL_OK;
 179              		.loc 1 282 10 is_stmt 0 view .LVU54
 180 00a8 0020     		movs	r0, #0
 181 00aa 2CE0     		b	.L6
 182              	.LVL12:
 183              	.L12:
 184              	.LBB4:
 111:C:/Users/vasil/STM32Cube/Repository/STM32Cube_FW_F1_V1.8.5/Drivers/STM32F1xx_HAL_Driver/Src\stm32f1xx_hal_rcc_ex.c **** 
 185              		.loc 1 111 16 view .LVU55
 186 00ac 0025     		movs	r5, #0
 187 00ae BEE7     		b	.L3
 188              	.LVL13:
 189              	.L17:
 128:C:/Users/vasil/STM32Cube/Repository/STM32Cube_FW_F1_V1.8.5/Drivers/STM32F1xx_HAL_Driver/Src\stm32f1xx_hal_rcc_ex.c **** 
 190              		.loc 1 128 7 is_stmt 1 view .LVU56
 191 00b0 174A     		ldr	r2, .L20+4
 192 00b2 1368     		ldr	r3, [r2]
 193 00b4 43F48073 		orr	r3, r3, #256
 194 00b8 1360     		str	r3, [r2]
 131:C:/Users/vasil/STM32Cube/Repository/STM32Cube_FW_F1_V1.8.5/Drivers/STM32F1xx_HAL_Driver/Src\stm32f1xx_hal_rcc_ex.c **** 
 195              		.loc 1 131 7 view .LVU57
 131:C:/Users/vasil/STM32Cube/Repository/STM32Cube_FW_F1_V1.8.5/Drivers/STM32F1xx_HAL_Driver/Src\stm32f1xx_hal_rcc_ex.c **** 
 196              		.loc 1 131 19 is_stmt 0 view .LVU58
 197 00ba FFF7FEFF 		bl	HAL_GetTick
 198              	.LVL14:
 131:C:/Users/vasil/STM32Cube/Repository/STM32Cube_FW_F1_V1.8.5/Drivers/STM32F1xx_HAL_Driver/Src\stm32f1xx_hal_rcc_ex.c **** 
 199              		.loc 1 131 19 view .LVU59
 200 00be 0646     		mov	r6, r0
 201              	.LVL15:
 133:C:/Users/vasil/STM32Cube/Repository/STM32Cube_FW_F1_V1.8.5/Drivers/STM32F1xx_HAL_Driver/Src\stm32f1xx_hal_rcc_ex.c ****       {
 202              		.loc 1 133 7 is_stmt 1 view .LVU60
 203              	.L5:
 133:C:/Users/vasil/STM32Cube/Repository/STM32Cube_FW_F1_V1.8.5/Drivers/STM32F1xx_HAL_Driver/Src\stm32f1xx_hal_rcc_ex.c ****       {
 204              		.loc 1 133 14 view .LVU61
 205 00c0 134B     		ldr	r3, .L20+4
 206 00c2 1B68     		ldr	r3, [r3]
 207 00c4 13F4807F 		tst	r3, #256
 208 00c8 B6D1     		bne	.L4
 135:C:/Users/vasil/STM32Cube/Repository/STM32Cube_FW_F1_V1.8.5/Drivers/STM32F1xx_HAL_Driver/Src\stm32f1xx_hal_rcc_ex.c ****         {
 209              		.loc 1 135 9 view .LVU62
 135:C:/Users/vasil/STM32Cube/Repository/STM32Cube_FW_F1_V1.8.5/Drivers/STM32F1xx_HAL_Driver/Src\stm32f1xx_hal_rcc_ex.c ****         {
 210              		.loc 1 135 14 is_stmt 0 view .LVU63
 211 00ca FFF7FEFF 		bl	HAL_GetTick
 212              	.LVL16:
 135:C:/Users/vasil/STM32Cube/Repository/STM32Cube_FW_F1_V1.8.5/Drivers/STM32F1xx_HAL_Driver/Src\stm32f1xx_hal_rcc_ex.c ****         {
 213              		.loc 1 135 28 view .LVU64
 214 00ce 801B     		subs	r0, r0, r6
 135:C:/Users/vasil/STM32Cube/Repository/STM32Cube_FW_F1_V1.8.5/Drivers/STM32F1xx_HAL_Driver/Src\stm32f1xx_hal_rcc_ex.c ****         {
 215              		.loc 1 135 12 view .LVU65
 216 00d0 6428     		cmp	r0, #100
 217 00d2 F5D9     		bls	.L5
 137:C:/Users/vasil/STM32Cube/Repository/STM32Cube_FW_F1_V1.8.5/Drivers/STM32F1xx_HAL_Driver/Src\stm32f1xx_hal_rcc_ex.c ****         }
 218              		.loc 1 137 18 view .LVU66
 219 00d4 0320     		movs	r0, #3
 220 00d6 16E0     		b	.L6
ARM GAS  C:\Users\vasil\AppData\Local\Temp\ccgBRBHP.s 			page 10


 221              	.LVL17:
 222              	.L18:
 158:C:/Users/vasil/STM32Cube/Repository/STM32Cube_FW_F1_V1.8.5/Drivers/STM32F1xx_HAL_Driver/Src\stm32f1xx_hal_rcc_ex.c **** 
 223              		.loc 1 158 9 is_stmt 1 view .LVU67
 158:C:/Users/vasil/STM32Cube/Repository/STM32Cube_FW_F1_V1.8.5/Drivers/STM32F1xx_HAL_Driver/Src\stm32f1xx_hal_rcc_ex.c **** 
 224              		.loc 1 158 21 is_stmt 0 view .LVU68
 225 00d8 FFF7FEFF 		bl	HAL_GetTick
 226              	.LVL18:
 158:C:/Users/vasil/STM32Cube/Repository/STM32Cube_FW_F1_V1.8.5/Drivers/STM32F1xx_HAL_Driver/Src\stm32f1xx_hal_rcc_ex.c **** 
 227              		.loc 1 158 21 view .LVU69
 228 00dc 0646     		mov	r6, r0
 229              	.LVL19:
 161:C:/Users/vasil/STM32Cube/Repository/STM32Cube_FW_F1_V1.8.5/Drivers/STM32F1xx_HAL_Driver/Src\stm32f1xx_hal_rcc_ex.c ****         {
 230              		.loc 1 161 9 is_stmt 1 view .LVU70
 231              	.L9:
 161:C:/Users/vasil/STM32Cube/Repository/STM32Cube_FW_F1_V1.8.5/Drivers/STM32F1xx_HAL_Driver/Src\stm32f1xx_hal_rcc_ex.c ****         {
 232              		.loc 1 161 52 view .LVU71
 161:C:/Users/vasil/STM32Cube/Repository/STM32Cube_FW_F1_V1.8.5/Drivers/STM32F1xx_HAL_Driver/Src\stm32f1xx_hal_rcc_ex.c ****         {
 233              		.loc 1 161 16 is_stmt 0 view .LVU72
 234 00de 0B4B     		ldr	r3, .L20
 235 00e0 1B6A     		ldr	r3, [r3, #32]
 161:C:/Users/vasil/STM32Cube/Repository/STM32Cube_FW_F1_V1.8.5/Drivers/STM32F1xx_HAL_Driver/Src\stm32f1xx_hal_rcc_ex.c ****         {
 236              		.loc 1 161 52 view .LVU73
 237 00e2 13F0020F 		tst	r3, #2
 238 00e6 C0D1     		bne	.L8
 163:C:/Users/vasil/STM32Cube/Repository/STM32Cube_FW_F1_V1.8.5/Drivers/STM32F1xx_HAL_Driver/Src\stm32f1xx_hal_rcc_ex.c ****           {
 239              		.loc 1 163 11 is_stmt 1 view .LVU74
 163:C:/Users/vasil/STM32Cube/Repository/STM32Cube_FW_F1_V1.8.5/Drivers/STM32F1xx_HAL_Driver/Src\stm32f1xx_hal_rcc_ex.c ****           {
 240              		.loc 1 163 16 is_stmt 0 view .LVU75
 241 00e8 FFF7FEFF 		bl	HAL_GetTick
 242              	.LVL20:
 163:C:/Users/vasil/STM32Cube/Repository/STM32Cube_FW_F1_V1.8.5/Drivers/STM32F1xx_HAL_Driver/Src\stm32f1xx_hal_rcc_ex.c ****           {
 243              		.loc 1 163 30 view .LVU76
 244 00ec 801B     		subs	r0, r0, r6
 163:C:/Users/vasil/STM32Cube/Repository/STM32Cube_FW_F1_V1.8.5/Drivers/STM32F1xx_HAL_Driver/Src\stm32f1xx_hal_rcc_ex.c ****           {
 245              		.loc 1 163 14 view .LVU77
 246 00ee 41F28833 		movw	r3, #5000
 247 00f2 9842     		cmp	r0, r3
 248 00f4 F3D9     		bls	.L9
 165:C:/Users/vasil/STM32Cube/Repository/STM32Cube_FW_F1_V1.8.5/Drivers/STM32F1xx_HAL_Driver/Src\stm32f1xx_hal_rcc_ex.c ****           }
 249              		.loc 1 165 20 view .LVU78
 250 00f6 0320     		movs	r0, #3
 251 00f8 05E0     		b	.L6
 252              	.LVL21:
 253              	.L19:
 175:C:/Users/vasil/STM32Cube/Repository/STM32Cube_FW_F1_V1.8.5/Drivers/STM32F1xx_HAL_Driver/Src\stm32f1xx_hal_rcc_ex.c ****     }
 254              		.loc 1 175 7 is_stmt 1 view .LVU79
 255 00fa D369     		ldr	r3, [r2, #28]
 256 00fc 23F08053 		bic	r3, r3, #268435456
 257 0100 D361     		str	r3, [r2, #28]
 258 0102 BBE7     		b	.L2
 259              	.LVL22:
 260              	.L15:
 175:C:/Users/vasil/STM32Cube/Repository/STM32Cube_FW_F1_V1.8.5/Drivers/STM32F1xx_HAL_Driver/Src\stm32f1xx_hal_rcc_ex.c ****     }
 261              		.loc 1 175 7 is_stmt 0 view .LVU80
 262              	.LBE4:
 263              		.loc 1 282 10 view .LVU81
ARM GAS  C:\Users\vasil\AppData\Local\Temp\ccgBRBHP.s 			page 11


 264 0104 0020     		movs	r0, #0
 265              	.L6:
 283:C:/Users/vasil/STM32Cube/Repository/STM32Cube_FW_F1_V1.8.5/Drivers/STM32F1xx_HAL_Driver/Src\stm32f1xx_hal_rcc_ex.c **** }
 266              		.loc 1 283 1 view .LVU82
 267 0106 02B0     		add	sp, sp, #8
 268              		.cfi_def_cfa_offset 16
 269              		@ sp needed
 270 0108 70BD     		pop	{r4, r5, r6, pc}
 271              	.LVL23:
 272              	.L21:
 273              		.loc 1 283 1 view .LVU83
 274 010a 00BF     		.align	2
 275              	.L20:
 276 010c 00100240 		.word	1073876992
 277 0110 00700040 		.word	1073770496
 278 0114 00004242 		.word	1111621632
 279              		.cfi_endproc
 280              	.LFE65:
 282              		.section	.text.HAL_RCCEx_GetPeriphCLKConfig,"ax",%progbits
 283              		.align	1
 284              		.global	HAL_RCCEx_GetPeriphCLKConfig
 285              		.syntax unified
 286              		.thumb
 287              		.thumb_func
 289              	HAL_RCCEx_GetPeriphCLKConfig:
 290              	.LVL24:
 291              	.LFB66:
 284:C:/Users/vasil/STM32Cube/Repository/STM32Cube_FW_F1_V1.8.5/Drivers/STM32F1xx_HAL_Driver/Src\stm32f1xx_hal_rcc_ex.c **** 
 285:C:/Users/vasil/STM32Cube/Repository/STM32Cube_FW_F1_V1.8.5/Drivers/STM32F1xx_HAL_Driver/Src\stm32f1xx_hal_rcc_ex.c **** /**
 286:C:/Users/vasil/STM32Cube/Repository/STM32Cube_FW_F1_V1.8.5/Drivers/STM32F1xx_HAL_Driver/Src\stm32f1xx_hal_rcc_ex.c ****   * @brief  Get the PeriphClkInit according to the internal
 287:C:/Users/vasil/STM32Cube/Repository/STM32Cube_FW_F1_V1.8.5/Drivers/STM32F1xx_HAL_Driver/Src\stm32f1xx_hal_rcc_ex.c ****   * RCC configuration registers.
 288:C:/Users/vasil/STM32Cube/Repository/STM32Cube_FW_F1_V1.8.5/Drivers/STM32F1xx_HAL_Driver/Src\stm32f1xx_hal_rcc_ex.c ****   * @param  PeriphClkInit pointer to an RCC_PeriphCLKInitTypeDef structure that
 289:C:/Users/vasil/STM32Cube/Repository/STM32Cube_FW_F1_V1.8.5/Drivers/STM32F1xx_HAL_Driver/Src\stm32f1xx_hal_rcc_ex.c ****   *         returns the configuration information for the Extended Peripherals clocks(RTC, I2S, ADC
 290:C:/Users/vasil/STM32Cube/Repository/STM32Cube_FW_F1_V1.8.5/Drivers/STM32F1xx_HAL_Driver/Src\stm32f1xx_hal_rcc_ex.c ****   * @retval None
 291:C:/Users/vasil/STM32Cube/Repository/STM32Cube_FW_F1_V1.8.5/Drivers/STM32F1xx_HAL_Driver/Src\stm32f1xx_hal_rcc_ex.c ****   */
 292:C:/Users/vasil/STM32Cube/Repository/STM32Cube_FW_F1_V1.8.5/Drivers/STM32F1xx_HAL_Driver/Src\stm32f1xx_hal_rcc_ex.c **** void HAL_RCCEx_GetPeriphCLKConfig(RCC_PeriphCLKInitTypeDef  *PeriphClkInit)
 293:C:/Users/vasil/STM32Cube/Repository/STM32Cube_FW_F1_V1.8.5/Drivers/STM32F1xx_HAL_Driver/Src\stm32f1xx_hal_rcc_ex.c **** {
 292              		.loc 1 293 1 is_stmt 1 view -0
 293              		.cfi_startproc
 294              		@ args = 0, pretend = 0, frame = 0
 295              		@ frame_needed = 0, uses_anonymous_args = 0
 296              		@ link register save eliminated.
 294:C:/Users/vasil/STM32Cube/Repository/STM32Cube_FW_F1_V1.8.5/Drivers/STM32F1xx_HAL_Driver/Src\stm32f1xx_hal_rcc_ex.c ****   uint32_t srcclk = 0U;
 297              		.loc 1 294 3 view .LVU85
 295:C:/Users/vasil/STM32Cube/Repository/STM32Cube_FW_F1_V1.8.5/Drivers/STM32F1xx_HAL_Driver/Src\stm32f1xx_hal_rcc_ex.c **** 
 296:C:/Users/vasil/STM32Cube/Repository/STM32Cube_FW_F1_V1.8.5/Drivers/STM32F1xx_HAL_Driver/Src\stm32f1xx_hal_rcc_ex.c ****   /* Set all possible values for the extended clock type parameter------------*/
 297:C:/Users/vasil/STM32Cube/Repository/STM32Cube_FW_F1_V1.8.5/Drivers/STM32F1xx_HAL_Driver/Src\stm32f1xx_hal_rcc_ex.c ****   PeriphClkInit->PeriphClockSelection = RCC_PERIPHCLK_RTC;
 298              		.loc 1 297 3 view .LVU86
 299              		.loc 1 297 39 is_stmt 0 view .LVU87
 300 0000 0123     		movs	r3, #1
 301 0002 0360     		str	r3, [r0]
 298:C:/Users/vasil/STM32Cube/Repository/STM32Cube_FW_F1_V1.8.5/Drivers/STM32F1xx_HAL_Driver/Src\stm32f1xx_hal_rcc_ex.c **** 
 299:C:/Users/vasil/STM32Cube/Repository/STM32Cube_FW_F1_V1.8.5/Drivers/STM32F1xx_HAL_Driver/Src\stm32f1xx_hal_rcc_ex.c ****   /* Get the RTC configuration -----------------------------------------------*/
 300:C:/Users/vasil/STM32Cube/Repository/STM32Cube_FW_F1_V1.8.5/Drivers/STM32F1xx_HAL_Driver/Src\stm32f1xx_hal_rcc_ex.c ****   srcclk = __HAL_RCC_GET_RTC_SOURCE();
 302              		.loc 1 300 3 is_stmt 1 view .LVU88
 303              		.loc 1 300 12 is_stmt 0 view .LVU89
 304 0004 084B     		ldr	r3, .L23
ARM GAS  C:\Users\vasil\AppData\Local\Temp\ccgBRBHP.s 			page 12


 305 0006 1A6A     		ldr	r2, [r3, #32]
 306              		.loc 1 300 10 view .LVU90
 307 0008 02F44072 		and	r2, r2, #768
 308              	.LVL25:
 301:C:/Users/vasil/STM32Cube/Repository/STM32Cube_FW_F1_V1.8.5/Drivers/STM32F1xx_HAL_Driver/Src\stm32f1xx_hal_rcc_ex.c ****   /* Source clock is LSE or LSI*/
 302:C:/Users/vasil/STM32Cube/Repository/STM32Cube_FW_F1_V1.8.5/Drivers/STM32F1xx_HAL_Driver/Src\stm32f1xx_hal_rcc_ex.c ****   PeriphClkInit->RTCClockSelection = srcclk;
 309              		.loc 1 302 3 is_stmt 1 view .LVU91
 310              		.loc 1 302 36 is_stmt 0 view .LVU92
 311 000c 4260     		str	r2, [r0, #4]
 303:C:/Users/vasil/STM32Cube/Repository/STM32Cube_FW_F1_V1.8.5/Drivers/STM32F1xx_HAL_Driver/Src\stm32f1xx_hal_rcc_ex.c **** 
 304:C:/Users/vasil/STM32Cube/Repository/STM32Cube_FW_F1_V1.8.5/Drivers/STM32F1xx_HAL_Driver/Src\stm32f1xx_hal_rcc_ex.c ****   /* Get the ADC clock configuration -----------------------------------------*/
 305:C:/Users/vasil/STM32Cube/Repository/STM32Cube_FW_F1_V1.8.5/Drivers/STM32F1xx_HAL_Driver/Src\stm32f1xx_hal_rcc_ex.c ****   PeriphClkInit->PeriphClockSelection |= RCC_PERIPHCLK_ADC;
 312              		.loc 1 305 3 is_stmt 1 view .LVU93
 313              		.loc 1 305 39 is_stmt 0 view .LVU94
 314 000e 0322     		movs	r2, #3
 315              	.LVL26:
 316              		.loc 1 305 39 view .LVU95
 317 0010 0260     		str	r2, [r0]
 306:C:/Users/vasil/STM32Cube/Repository/STM32Cube_FW_F1_V1.8.5/Drivers/STM32F1xx_HAL_Driver/Src\stm32f1xx_hal_rcc_ex.c ****   PeriphClkInit->AdcClockSelection = __HAL_RCC_GET_ADC_SOURCE();
 318              		.loc 1 306 3 is_stmt 1 view .LVU96
 319              		.loc 1 306 38 is_stmt 0 view .LVU97
 320 0012 5A68     		ldr	r2, [r3, #4]
 321 0014 02F44042 		and	r2, r2, #49152
 322              		.loc 1 306 36 view .LVU98
 323 0018 8260     		str	r2, [r0, #8]
 307:C:/Users/vasil/STM32Cube/Repository/STM32Cube_FW_F1_V1.8.5/Drivers/STM32F1xx_HAL_Driver/Src\stm32f1xx_hal_rcc_ex.c **** 
 308:C:/Users/vasil/STM32Cube/Repository/STM32Cube_FW_F1_V1.8.5/Drivers/STM32F1xx_HAL_Driver/Src\stm32f1xx_hal_rcc_ex.c **** #if defined(STM32F105xC) || defined(STM32F107xC)
 309:C:/Users/vasil/STM32Cube/Repository/STM32Cube_FW_F1_V1.8.5/Drivers/STM32F1xx_HAL_Driver/Src\stm32f1xx_hal_rcc_ex.c ****   /* Get the I2S2 clock configuration -----------------------------------------*/
 310:C:/Users/vasil/STM32Cube/Repository/STM32Cube_FW_F1_V1.8.5/Drivers/STM32F1xx_HAL_Driver/Src\stm32f1xx_hal_rcc_ex.c ****   PeriphClkInit->PeriphClockSelection |= RCC_PERIPHCLK_I2S2;
 311:C:/Users/vasil/STM32Cube/Repository/STM32Cube_FW_F1_V1.8.5/Drivers/STM32F1xx_HAL_Driver/Src\stm32f1xx_hal_rcc_ex.c ****   PeriphClkInit->I2s2ClockSelection = __HAL_RCC_GET_I2S2_SOURCE();
 312:C:/Users/vasil/STM32Cube/Repository/STM32Cube_FW_F1_V1.8.5/Drivers/STM32F1xx_HAL_Driver/Src\stm32f1xx_hal_rcc_ex.c **** 
 313:C:/Users/vasil/STM32Cube/Repository/STM32Cube_FW_F1_V1.8.5/Drivers/STM32F1xx_HAL_Driver/Src\stm32f1xx_hal_rcc_ex.c ****   /* Get the I2S3 clock configuration -----------------------------------------*/
 314:C:/Users/vasil/STM32Cube/Repository/STM32Cube_FW_F1_V1.8.5/Drivers/STM32F1xx_HAL_Driver/Src\stm32f1xx_hal_rcc_ex.c ****   PeriphClkInit->PeriphClockSelection |= RCC_PERIPHCLK_I2S3;
 315:C:/Users/vasil/STM32Cube/Repository/STM32Cube_FW_F1_V1.8.5/Drivers/STM32F1xx_HAL_Driver/Src\stm32f1xx_hal_rcc_ex.c ****   PeriphClkInit->I2s3ClockSelection = __HAL_RCC_GET_I2S3_SOURCE();
 316:C:/Users/vasil/STM32Cube/Repository/STM32Cube_FW_F1_V1.8.5/Drivers/STM32F1xx_HAL_Driver/Src\stm32f1xx_hal_rcc_ex.c **** 
 317:C:/Users/vasil/STM32Cube/Repository/STM32Cube_FW_F1_V1.8.5/Drivers/STM32F1xx_HAL_Driver/Src\stm32f1xx_hal_rcc_ex.c **** #endif /* STM32F105xC || STM32F107xC */
 318:C:/Users/vasil/STM32Cube/Repository/STM32Cube_FW_F1_V1.8.5/Drivers/STM32F1xx_HAL_Driver/Src\stm32f1xx_hal_rcc_ex.c **** 
 319:C:/Users/vasil/STM32Cube/Repository/STM32Cube_FW_F1_V1.8.5/Drivers/STM32F1xx_HAL_Driver/Src\stm32f1xx_hal_rcc_ex.c **** #if defined(STM32F103xE) || defined(STM32F103xG)
 320:C:/Users/vasil/STM32Cube/Repository/STM32Cube_FW_F1_V1.8.5/Drivers/STM32F1xx_HAL_Driver/Src\stm32f1xx_hal_rcc_ex.c ****   /* Get the I2S2 clock configuration -----------------------------------------*/
 321:C:/Users/vasil/STM32Cube/Repository/STM32Cube_FW_F1_V1.8.5/Drivers/STM32F1xx_HAL_Driver/Src\stm32f1xx_hal_rcc_ex.c ****   PeriphClkInit->PeriphClockSelection |= RCC_PERIPHCLK_I2S2;
 322:C:/Users/vasil/STM32Cube/Repository/STM32Cube_FW_F1_V1.8.5/Drivers/STM32F1xx_HAL_Driver/Src\stm32f1xx_hal_rcc_ex.c ****   PeriphClkInit->I2s2ClockSelection = RCC_I2S2CLKSOURCE_SYSCLK;
 323:C:/Users/vasil/STM32Cube/Repository/STM32Cube_FW_F1_V1.8.5/Drivers/STM32F1xx_HAL_Driver/Src\stm32f1xx_hal_rcc_ex.c **** 
 324:C:/Users/vasil/STM32Cube/Repository/STM32Cube_FW_F1_V1.8.5/Drivers/STM32F1xx_HAL_Driver/Src\stm32f1xx_hal_rcc_ex.c ****   /* Get the I2S3 clock configuration -----------------------------------------*/
 325:C:/Users/vasil/STM32Cube/Repository/STM32Cube_FW_F1_V1.8.5/Drivers/STM32F1xx_HAL_Driver/Src\stm32f1xx_hal_rcc_ex.c ****   PeriphClkInit->PeriphClockSelection |= RCC_PERIPHCLK_I2S3;
 326:C:/Users/vasil/STM32Cube/Repository/STM32Cube_FW_F1_V1.8.5/Drivers/STM32F1xx_HAL_Driver/Src\stm32f1xx_hal_rcc_ex.c ****   PeriphClkInit->I2s3ClockSelection = RCC_I2S3CLKSOURCE_SYSCLK;
 327:C:/Users/vasil/STM32Cube/Repository/STM32Cube_FW_F1_V1.8.5/Drivers/STM32F1xx_HAL_Driver/Src\stm32f1xx_hal_rcc_ex.c **** 
 328:C:/Users/vasil/STM32Cube/Repository/STM32Cube_FW_F1_V1.8.5/Drivers/STM32F1xx_HAL_Driver/Src\stm32f1xx_hal_rcc_ex.c **** #endif /* STM32F103xE || STM32F103xG */
 329:C:/Users/vasil/STM32Cube/Repository/STM32Cube_FW_F1_V1.8.5/Drivers/STM32F1xx_HAL_Driver/Src\stm32f1xx_hal_rcc_ex.c **** 
 330:C:/Users/vasil/STM32Cube/Repository/STM32Cube_FW_F1_V1.8.5/Drivers/STM32F1xx_HAL_Driver/Src\stm32f1xx_hal_rcc_ex.c **** #if defined(STM32F102x6) || defined(STM32F102xB) || defined(STM32F103x6)\
 331:C:/Users/vasil/STM32Cube/Repository/STM32Cube_FW_F1_V1.8.5/Drivers/STM32F1xx_HAL_Driver/Src\stm32f1xx_hal_rcc_ex.c ****  || defined(STM32F103xB) || defined(STM32F103xE) || defined(STM32F103xG)\
 332:C:/Users/vasil/STM32Cube/Repository/STM32Cube_FW_F1_V1.8.5/Drivers/STM32F1xx_HAL_Driver/Src\stm32f1xx_hal_rcc_ex.c ****  || defined(STM32F105xC) || defined(STM32F107xC)
 333:C:/Users/vasil/STM32Cube/Repository/STM32Cube_FW_F1_V1.8.5/Drivers/STM32F1xx_HAL_Driver/Src\stm32f1xx_hal_rcc_ex.c ****   /* Get the USB clock configuration -----------------------------------------*/
 334:C:/Users/vasil/STM32Cube/Repository/STM32Cube_FW_F1_V1.8.5/Drivers/STM32F1xx_HAL_Driver/Src\stm32f1xx_hal_rcc_ex.c ****   PeriphClkInit->PeriphClockSelection |= RCC_PERIPHCLK_USB;
 324              		.loc 1 334 3 is_stmt 1 view .LVU99
 325              		.loc 1 334 39 is_stmt 0 view .LVU100
 326 001a 1322     		movs	r2, #19
 327 001c 0260     		str	r2, [r0]
ARM GAS  C:\Users\vasil\AppData\Local\Temp\ccgBRBHP.s 			page 13


 335:C:/Users/vasil/STM32Cube/Repository/STM32Cube_FW_F1_V1.8.5/Drivers/STM32F1xx_HAL_Driver/Src\stm32f1xx_hal_rcc_ex.c ****   PeriphClkInit->UsbClockSelection = __HAL_RCC_GET_USB_SOURCE();
 328              		.loc 1 335 3 is_stmt 1 view .LVU101
 329              		.loc 1 335 38 is_stmt 0 view .LVU102
 330 001e 5B68     		ldr	r3, [r3, #4]
 331 0020 03F48003 		and	r3, r3, #4194304
 332              		.loc 1 335 36 view .LVU103
 333 0024 C360     		str	r3, [r0, #12]
 336:C:/Users/vasil/STM32Cube/Repository/STM32Cube_FW_F1_V1.8.5/Drivers/STM32F1xx_HAL_Driver/Src\stm32f1xx_hal_rcc_ex.c **** #endif /* STM32F102x6 || STM32F102xB || STM32F103x6 || STM32F103xB || STM32F103xE || STM32F103xG ||
 337:C:/Users/vasil/STM32Cube/Repository/STM32Cube_FW_F1_V1.8.5/Drivers/STM32F1xx_HAL_Driver/Src\stm32f1xx_hal_rcc_ex.c **** }
 334              		.loc 1 337 1 view .LVU104
 335 0026 7047     		bx	lr
 336              	.L24:
 337              		.align	2
 338              	.L23:
 339 0028 00100240 		.word	1073876992
 340              		.cfi_endproc
 341              	.LFE66:
 343              		.section	.text.HAL_RCCEx_GetPeriphCLKFreq,"ax",%progbits
 344              		.align	1
 345              		.global	HAL_RCCEx_GetPeriphCLKFreq
 346              		.syntax unified
 347              		.thumb
 348              		.thumb_func
 350              	HAL_RCCEx_GetPeriphCLKFreq:
 351              	.LVL27:
 352              	.LFB67:
 338:C:/Users/vasil/STM32Cube/Repository/STM32Cube_FW_F1_V1.8.5/Drivers/STM32F1xx_HAL_Driver/Src\stm32f1xx_hal_rcc_ex.c **** 
 339:C:/Users/vasil/STM32Cube/Repository/STM32Cube_FW_F1_V1.8.5/Drivers/STM32F1xx_HAL_Driver/Src\stm32f1xx_hal_rcc_ex.c **** /**
 340:C:/Users/vasil/STM32Cube/Repository/STM32Cube_FW_F1_V1.8.5/Drivers/STM32F1xx_HAL_Driver/Src\stm32f1xx_hal_rcc_ex.c ****   * @brief  Returns the peripheral clock frequency
 341:C:/Users/vasil/STM32Cube/Repository/STM32Cube_FW_F1_V1.8.5/Drivers/STM32F1xx_HAL_Driver/Src\stm32f1xx_hal_rcc_ex.c ****   * @note   Returns 0 if peripheral clock is unknown
 342:C:/Users/vasil/STM32Cube/Repository/STM32Cube_FW_F1_V1.8.5/Drivers/STM32F1xx_HAL_Driver/Src\stm32f1xx_hal_rcc_ex.c ****   * @param  PeriphClk Peripheral clock identifier
 343:C:/Users/vasil/STM32Cube/Repository/STM32Cube_FW_F1_V1.8.5/Drivers/STM32F1xx_HAL_Driver/Src\stm32f1xx_hal_rcc_ex.c ****   *         This parameter can be one of the following values:
 344:C:/Users/vasil/STM32Cube/Repository/STM32Cube_FW_F1_V1.8.5/Drivers/STM32F1xx_HAL_Driver/Src\stm32f1xx_hal_rcc_ex.c ****   *            @arg @ref RCC_PERIPHCLK_RTC  RTC peripheral clock
 345:C:/Users/vasil/STM32Cube/Repository/STM32Cube_FW_F1_V1.8.5/Drivers/STM32F1xx_HAL_Driver/Src\stm32f1xx_hal_rcc_ex.c ****   *            @arg @ref RCC_PERIPHCLK_ADC  ADC peripheral clock
 346:C:/Users/vasil/STM32Cube/Repository/STM32Cube_FW_F1_V1.8.5/Drivers/STM32F1xx_HAL_Driver/Src\stm32f1xx_hal_rcc_ex.c ****   @if STM32F103xE
 347:C:/Users/vasil/STM32Cube/Repository/STM32Cube_FW_F1_V1.8.5/Drivers/STM32F1xx_HAL_Driver/Src\stm32f1xx_hal_rcc_ex.c ****   *            @arg @ref RCC_PERIPHCLK_I2S2 I2S2 peripheral clock
 348:C:/Users/vasil/STM32Cube/Repository/STM32Cube_FW_F1_V1.8.5/Drivers/STM32F1xx_HAL_Driver/Src\stm32f1xx_hal_rcc_ex.c ****   *            @arg @ref RCC_PERIPHCLK_I2S3 I2S3 peripheral clock
 349:C:/Users/vasil/STM32Cube/Repository/STM32Cube_FW_F1_V1.8.5/Drivers/STM32F1xx_HAL_Driver/Src\stm32f1xx_hal_rcc_ex.c ****   *            @arg @ref RCC_PERIPHCLK_I2S3 I2S3 peripheral clock
 350:C:/Users/vasil/STM32Cube/Repository/STM32Cube_FW_F1_V1.8.5/Drivers/STM32F1xx_HAL_Driver/Src\stm32f1xx_hal_rcc_ex.c ****   @endif
 351:C:/Users/vasil/STM32Cube/Repository/STM32Cube_FW_F1_V1.8.5/Drivers/STM32F1xx_HAL_Driver/Src\stm32f1xx_hal_rcc_ex.c ****   @if STM32F103xG
 352:C:/Users/vasil/STM32Cube/Repository/STM32Cube_FW_F1_V1.8.5/Drivers/STM32F1xx_HAL_Driver/Src\stm32f1xx_hal_rcc_ex.c ****   *            @arg @ref RCC_PERIPHCLK_I2S2 I2S2 peripheral clock
 353:C:/Users/vasil/STM32Cube/Repository/STM32Cube_FW_F1_V1.8.5/Drivers/STM32F1xx_HAL_Driver/Src\stm32f1xx_hal_rcc_ex.c ****   *            @arg @ref RCC_PERIPHCLK_I2S3 I2S3 peripheral clock
 354:C:/Users/vasil/STM32Cube/Repository/STM32Cube_FW_F1_V1.8.5/Drivers/STM32F1xx_HAL_Driver/Src\stm32f1xx_hal_rcc_ex.c ****   *            @arg @ref RCC_PERIPHCLK_I2S3 I2S3 peripheral clock
 355:C:/Users/vasil/STM32Cube/Repository/STM32Cube_FW_F1_V1.8.5/Drivers/STM32F1xx_HAL_Driver/Src\stm32f1xx_hal_rcc_ex.c ****   *            @arg @ref RCC_PERIPHCLK_I2S2 I2S2 peripheral clock
 356:C:/Users/vasil/STM32Cube/Repository/STM32Cube_FW_F1_V1.8.5/Drivers/STM32F1xx_HAL_Driver/Src\stm32f1xx_hal_rcc_ex.c ****   @endif
 357:C:/Users/vasil/STM32Cube/Repository/STM32Cube_FW_F1_V1.8.5/Drivers/STM32F1xx_HAL_Driver/Src\stm32f1xx_hal_rcc_ex.c ****   @if STM32F105xC
 358:C:/Users/vasil/STM32Cube/Repository/STM32Cube_FW_F1_V1.8.5/Drivers/STM32F1xx_HAL_Driver/Src\stm32f1xx_hal_rcc_ex.c ****   *            @arg @ref RCC_PERIPHCLK_I2S2 I2S2 peripheral clock
 359:C:/Users/vasil/STM32Cube/Repository/STM32Cube_FW_F1_V1.8.5/Drivers/STM32F1xx_HAL_Driver/Src\stm32f1xx_hal_rcc_ex.c ****   *            @arg @ref RCC_PERIPHCLK_I2S3 I2S3 peripheral clock
 360:C:/Users/vasil/STM32Cube/Repository/STM32Cube_FW_F1_V1.8.5/Drivers/STM32F1xx_HAL_Driver/Src\stm32f1xx_hal_rcc_ex.c ****   *            @arg @ref RCC_PERIPHCLK_I2S3 I2S3 peripheral clock
 361:C:/Users/vasil/STM32Cube/Repository/STM32Cube_FW_F1_V1.8.5/Drivers/STM32F1xx_HAL_Driver/Src\stm32f1xx_hal_rcc_ex.c ****   *            @arg @ref RCC_PERIPHCLK_I2S2 I2S2 peripheral clock
 362:C:/Users/vasil/STM32Cube/Repository/STM32Cube_FW_F1_V1.8.5/Drivers/STM32F1xx_HAL_Driver/Src\stm32f1xx_hal_rcc_ex.c ****   *            @arg @ref RCC_PERIPHCLK_I2S3 I2S3 peripheral clock
 363:C:/Users/vasil/STM32Cube/Repository/STM32Cube_FW_F1_V1.8.5/Drivers/STM32F1xx_HAL_Driver/Src\stm32f1xx_hal_rcc_ex.c ****   *            @arg @ref RCC_PERIPHCLK_I2S3 I2S3 peripheral clock
 364:C:/Users/vasil/STM32Cube/Repository/STM32Cube_FW_F1_V1.8.5/Drivers/STM32F1xx_HAL_Driver/Src\stm32f1xx_hal_rcc_ex.c ****   *            @arg @ref RCC_PERIPHCLK_I2S2 I2S2 peripheral clock
 365:C:/Users/vasil/STM32Cube/Repository/STM32Cube_FW_F1_V1.8.5/Drivers/STM32F1xx_HAL_Driver/Src\stm32f1xx_hal_rcc_ex.c ****   *            @arg @ref RCC_PERIPHCLK_USB  USB peripheral clock
 366:C:/Users/vasil/STM32Cube/Repository/STM32Cube_FW_F1_V1.8.5/Drivers/STM32F1xx_HAL_Driver/Src\stm32f1xx_hal_rcc_ex.c ****   @endif
 367:C:/Users/vasil/STM32Cube/Repository/STM32Cube_FW_F1_V1.8.5/Drivers/STM32F1xx_HAL_Driver/Src\stm32f1xx_hal_rcc_ex.c ****   @if STM32F107xC
 368:C:/Users/vasil/STM32Cube/Repository/STM32Cube_FW_F1_V1.8.5/Drivers/STM32F1xx_HAL_Driver/Src\stm32f1xx_hal_rcc_ex.c ****   *            @arg @ref RCC_PERIPHCLK_I2S2 I2S2 peripheral clock
ARM GAS  C:\Users\vasil\AppData\Local\Temp\ccgBRBHP.s 			page 14


 369:C:/Users/vasil/STM32Cube/Repository/STM32Cube_FW_F1_V1.8.5/Drivers/STM32F1xx_HAL_Driver/Src\stm32f1xx_hal_rcc_ex.c ****   *            @arg @ref RCC_PERIPHCLK_I2S3 I2S3 peripheral clock
 370:C:/Users/vasil/STM32Cube/Repository/STM32Cube_FW_F1_V1.8.5/Drivers/STM32F1xx_HAL_Driver/Src\stm32f1xx_hal_rcc_ex.c ****   *            @arg @ref RCC_PERIPHCLK_I2S3 I2S3 peripheral clock
 371:C:/Users/vasil/STM32Cube/Repository/STM32Cube_FW_F1_V1.8.5/Drivers/STM32F1xx_HAL_Driver/Src\stm32f1xx_hal_rcc_ex.c ****   *            @arg @ref RCC_PERIPHCLK_I2S2 I2S2 peripheral clock
 372:C:/Users/vasil/STM32Cube/Repository/STM32Cube_FW_F1_V1.8.5/Drivers/STM32F1xx_HAL_Driver/Src\stm32f1xx_hal_rcc_ex.c ****   *            @arg @ref RCC_PERIPHCLK_I2S3 I2S3 peripheral clock
 373:C:/Users/vasil/STM32Cube/Repository/STM32Cube_FW_F1_V1.8.5/Drivers/STM32F1xx_HAL_Driver/Src\stm32f1xx_hal_rcc_ex.c ****   *            @arg @ref RCC_PERIPHCLK_I2S3 I2S3 peripheral clock
 374:C:/Users/vasil/STM32Cube/Repository/STM32Cube_FW_F1_V1.8.5/Drivers/STM32F1xx_HAL_Driver/Src\stm32f1xx_hal_rcc_ex.c ****   *            @arg @ref RCC_PERIPHCLK_I2S2 I2S2 peripheral clock
 375:C:/Users/vasil/STM32Cube/Repository/STM32Cube_FW_F1_V1.8.5/Drivers/STM32F1xx_HAL_Driver/Src\stm32f1xx_hal_rcc_ex.c ****   *            @arg @ref RCC_PERIPHCLK_USB  USB peripheral clock
 376:C:/Users/vasil/STM32Cube/Repository/STM32Cube_FW_F1_V1.8.5/Drivers/STM32F1xx_HAL_Driver/Src\stm32f1xx_hal_rcc_ex.c ****   @endif
 377:C:/Users/vasil/STM32Cube/Repository/STM32Cube_FW_F1_V1.8.5/Drivers/STM32F1xx_HAL_Driver/Src\stm32f1xx_hal_rcc_ex.c ****   @if STM32F102xx
 378:C:/Users/vasil/STM32Cube/Repository/STM32Cube_FW_F1_V1.8.5/Drivers/STM32F1xx_HAL_Driver/Src\stm32f1xx_hal_rcc_ex.c ****   *            @arg @ref RCC_PERIPHCLK_USB  USB peripheral clock
 379:C:/Users/vasil/STM32Cube/Repository/STM32Cube_FW_F1_V1.8.5/Drivers/STM32F1xx_HAL_Driver/Src\stm32f1xx_hal_rcc_ex.c ****   @endif
 380:C:/Users/vasil/STM32Cube/Repository/STM32Cube_FW_F1_V1.8.5/Drivers/STM32F1xx_HAL_Driver/Src\stm32f1xx_hal_rcc_ex.c ****   @if STM32F103xx
 381:C:/Users/vasil/STM32Cube/Repository/STM32Cube_FW_F1_V1.8.5/Drivers/STM32F1xx_HAL_Driver/Src\stm32f1xx_hal_rcc_ex.c ****   *            @arg @ref RCC_PERIPHCLK_USB  USB peripheral clock
 382:C:/Users/vasil/STM32Cube/Repository/STM32Cube_FW_F1_V1.8.5/Drivers/STM32F1xx_HAL_Driver/Src\stm32f1xx_hal_rcc_ex.c ****   @endif
 383:C:/Users/vasil/STM32Cube/Repository/STM32Cube_FW_F1_V1.8.5/Drivers/STM32F1xx_HAL_Driver/Src\stm32f1xx_hal_rcc_ex.c ****   * @retval Frequency in Hz (0: means that no available frequency for the peripheral)
 384:C:/Users/vasil/STM32Cube/Repository/STM32Cube_FW_F1_V1.8.5/Drivers/STM32F1xx_HAL_Driver/Src\stm32f1xx_hal_rcc_ex.c ****   */
 385:C:/Users/vasil/STM32Cube/Repository/STM32Cube_FW_F1_V1.8.5/Drivers/STM32F1xx_HAL_Driver/Src\stm32f1xx_hal_rcc_ex.c **** uint32_t HAL_RCCEx_GetPeriphCLKFreq(uint32_t PeriphClk)
 386:C:/Users/vasil/STM32Cube/Repository/STM32Cube_FW_F1_V1.8.5/Drivers/STM32F1xx_HAL_Driver/Src\stm32f1xx_hal_rcc_ex.c **** {
 353              		.loc 1 386 1 is_stmt 1 view -0
 354              		.cfi_startproc
 355              		@ args = 0, pretend = 0, frame = 0
 356              		@ frame_needed = 0, uses_anonymous_args = 0
 357              		.loc 1 386 1 is_stmt 0 view .LVU106
 358 0000 08B5     		push	{r3, lr}
 359              		.cfi_def_cfa_offset 8
 360              		.cfi_offset 3, -8
 361              		.cfi_offset 14, -4
 387:C:/Users/vasil/STM32Cube/Repository/STM32Cube_FW_F1_V1.8.5/Drivers/STM32F1xx_HAL_Driver/Src\stm32f1xx_hal_rcc_ex.c **** #if defined(STM32F105xC) || defined(STM32F107xC)
 388:C:/Users/vasil/STM32Cube/Repository/STM32Cube_FW_F1_V1.8.5/Drivers/STM32F1xx_HAL_Driver/Src\stm32f1xx_hal_rcc_ex.c ****   static const uint8_t aPLLMULFactorTable[14U] = {0, 0, 4, 5, 6, 7, 8, 9, 0, 0, 0, 0, 0, 13};
 389:C:/Users/vasil/STM32Cube/Repository/STM32Cube_FW_F1_V1.8.5/Drivers/STM32F1xx_HAL_Driver/Src\stm32f1xx_hal_rcc_ex.c ****   static const uint8_t aPredivFactorTable[16U] = {1, 2, 3, 4, 5, 6, 7, 8, 9, 10, 11, 12, 13, 14, 15
 390:C:/Users/vasil/STM32Cube/Repository/STM32Cube_FW_F1_V1.8.5/Drivers/STM32F1xx_HAL_Driver/Src\stm32f1xx_hal_rcc_ex.c **** 
 391:C:/Users/vasil/STM32Cube/Repository/STM32Cube_FW_F1_V1.8.5/Drivers/STM32F1xx_HAL_Driver/Src\stm32f1xx_hal_rcc_ex.c ****   uint32_t prediv1 = 0U, pllclk = 0U, pllmul = 0U;
 392:C:/Users/vasil/STM32Cube/Repository/STM32Cube_FW_F1_V1.8.5/Drivers/STM32F1xx_HAL_Driver/Src\stm32f1xx_hal_rcc_ex.c ****   uint32_t pll2mul = 0U, pll3mul = 0U, prediv2 = 0U;
 393:C:/Users/vasil/STM32Cube/Repository/STM32Cube_FW_F1_V1.8.5/Drivers/STM32F1xx_HAL_Driver/Src\stm32f1xx_hal_rcc_ex.c **** #endif /* STM32F105xC || STM32F107xC */
 394:C:/Users/vasil/STM32Cube/Repository/STM32Cube_FW_F1_V1.8.5/Drivers/STM32F1xx_HAL_Driver/Src\stm32f1xx_hal_rcc_ex.c **** #if defined(STM32F102x6) || defined(STM32F102xB) || defined(STM32F103x6) || \
 395:C:/Users/vasil/STM32Cube/Repository/STM32Cube_FW_F1_V1.8.5/Drivers/STM32F1xx_HAL_Driver/Src\stm32f1xx_hal_rcc_ex.c ****     defined(STM32F103xB) || defined(STM32F103xE) || defined(STM32F103xG)
 396:C:/Users/vasil/STM32Cube/Repository/STM32Cube_FW_F1_V1.8.5/Drivers/STM32F1xx_HAL_Driver/Src\stm32f1xx_hal_rcc_ex.c ****   static const uint8_t aPLLMULFactorTable[16U] = {2, 3, 4, 5, 6, 7, 8, 9, 10, 11, 12, 13, 14, 15, 1
 362              		.loc 1 396 3 is_stmt 1 view .LVU107
 397:C:/Users/vasil/STM32Cube/Repository/STM32Cube_FW_F1_V1.8.5/Drivers/STM32F1xx_HAL_Driver/Src\stm32f1xx_hal_rcc_ex.c ****   static const uint8_t aPredivFactorTable[2U] = {1, 2};
 363              		.loc 1 397 3 view .LVU108
 398:C:/Users/vasil/STM32Cube/Repository/STM32Cube_FW_F1_V1.8.5/Drivers/STM32F1xx_HAL_Driver/Src\stm32f1xx_hal_rcc_ex.c **** 
 399:C:/Users/vasil/STM32Cube/Repository/STM32Cube_FW_F1_V1.8.5/Drivers/STM32F1xx_HAL_Driver/Src\stm32f1xx_hal_rcc_ex.c ****   uint32_t prediv1 = 0U, pllclk = 0U, pllmul = 0U;
 364              		.loc 1 399 3 view .LVU109
 365              	.LVL28:
 400:C:/Users/vasil/STM32Cube/Repository/STM32Cube_FW_F1_V1.8.5/Drivers/STM32F1xx_HAL_Driver/Src\stm32f1xx_hal_rcc_ex.c **** #endif /* STM32F102x6 || STM32F102xB || STM32F103x6 || STM32F103xB || STM32F103xE || STM32F103xG */
 401:C:/Users/vasil/STM32Cube/Repository/STM32Cube_FW_F1_V1.8.5/Drivers/STM32F1xx_HAL_Driver/Src\stm32f1xx_hal_rcc_ex.c ****   uint32_t temp_reg = 0U, frequency = 0U;
 366              		.loc 1 401 3 view .LVU110
 402:C:/Users/vasil/STM32Cube/Repository/STM32Cube_FW_F1_V1.8.5/Drivers/STM32F1xx_HAL_Driver/Src\stm32f1xx_hal_rcc_ex.c **** 
 403:C:/Users/vasil/STM32Cube/Repository/STM32Cube_FW_F1_V1.8.5/Drivers/STM32F1xx_HAL_Driver/Src\stm32f1xx_hal_rcc_ex.c ****   /* Check the parameters */
 404:C:/Users/vasil/STM32Cube/Repository/STM32Cube_FW_F1_V1.8.5/Drivers/STM32F1xx_HAL_Driver/Src\stm32f1xx_hal_rcc_ex.c ****   assert_param(IS_RCC_PERIPHCLOCK(PeriphClk));
 367              		.loc 1 404 3 view .LVU111
 405:C:/Users/vasil/STM32Cube/Repository/STM32Cube_FW_F1_V1.8.5/Drivers/STM32F1xx_HAL_Driver/Src\stm32f1xx_hal_rcc_ex.c **** 
 406:C:/Users/vasil/STM32Cube/Repository/STM32Cube_FW_F1_V1.8.5/Drivers/STM32F1xx_HAL_Driver/Src\stm32f1xx_hal_rcc_ex.c ****   switch (PeriphClk)
 368              		.loc 1 406 3 view .LVU112
 369 0002 0228     		cmp	r0, #2
 370 0004 4ED0     		beq	.L26
 371 0006 1028     		cmp	r0, #16
ARM GAS  C:\Users\vasil\AppData\Local\Temp\ccgBRBHP.s 			page 15


 372 0008 03D0     		beq	.L27
 373 000a 0128     		cmp	r0, #1
 374 000c 28D0     		beq	.L28
 375 000e 0020     		movs	r0, #0
 376              	.LVL29:
 377              	.L25:
 407:C:/Users/vasil/STM32Cube/Repository/STM32Cube_FW_F1_V1.8.5/Drivers/STM32F1xx_HAL_Driver/Src\stm32f1xx_hal_rcc_ex.c ****   {
 408:C:/Users/vasil/STM32Cube/Repository/STM32Cube_FW_F1_V1.8.5/Drivers/STM32F1xx_HAL_Driver/Src\stm32f1xx_hal_rcc_ex.c **** #if defined(STM32F102x6) || defined(STM32F102xB) || defined(STM32F103x6)\
 409:C:/Users/vasil/STM32Cube/Repository/STM32Cube_FW_F1_V1.8.5/Drivers/STM32F1xx_HAL_Driver/Src\stm32f1xx_hal_rcc_ex.c ****  || defined(STM32F103xB) || defined(STM32F103xE) || defined(STM32F103xG)\
 410:C:/Users/vasil/STM32Cube/Repository/STM32Cube_FW_F1_V1.8.5/Drivers/STM32F1xx_HAL_Driver/Src\stm32f1xx_hal_rcc_ex.c ****  || defined(STM32F105xC) || defined(STM32F107xC)
 411:C:/Users/vasil/STM32Cube/Repository/STM32Cube_FW_F1_V1.8.5/Drivers/STM32F1xx_HAL_Driver/Src\stm32f1xx_hal_rcc_ex.c ****     case RCC_PERIPHCLK_USB:
 412:C:/Users/vasil/STM32Cube/Repository/STM32Cube_FW_F1_V1.8.5/Drivers/STM32F1xx_HAL_Driver/Src\stm32f1xx_hal_rcc_ex.c ****     {
 413:C:/Users/vasil/STM32Cube/Repository/STM32Cube_FW_F1_V1.8.5/Drivers/STM32F1xx_HAL_Driver/Src\stm32f1xx_hal_rcc_ex.c ****       /* Get RCC configuration ------------------------------------------------------*/
 414:C:/Users/vasil/STM32Cube/Repository/STM32Cube_FW_F1_V1.8.5/Drivers/STM32F1xx_HAL_Driver/Src\stm32f1xx_hal_rcc_ex.c ****       temp_reg = RCC->CFGR;
 415:C:/Users/vasil/STM32Cube/Repository/STM32Cube_FW_F1_V1.8.5/Drivers/STM32F1xx_HAL_Driver/Src\stm32f1xx_hal_rcc_ex.c **** 
 416:C:/Users/vasil/STM32Cube/Repository/STM32Cube_FW_F1_V1.8.5/Drivers/STM32F1xx_HAL_Driver/Src\stm32f1xx_hal_rcc_ex.c ****       /* Check if PLL is enabled */
 417:C:/Users/vasil/STM32Cube/Repository/STM32Cube_FW_F1_V1.8.5/Drivers/STM32F1xx_HAL_Driver/Src\stm32f1xx_hal_rcc_ex.c ****       if (HAL_IS_BIT_SET(RCC->CR, RCC_CR_PLLON))
 418:C:/Users/vasil/STM32Cube/Repository/STM32Cube_FW_F1_V1.8.5/Drivers/STM32F1xx_HAL_Driver/Src\stm32f1xx_hal_rcc_ex.c ****       {
 419:C:/Users/vasil/STM32Cube/Repository/STM32Cube_FW_F1_V1.8.5/Drivers/STM32F1xx_HAL_Driver/Src\stm32f1xx_hal_rcc_ex.c ****         pllmul = aPLLMULFactorTable[(uint32_t)(temp_reg & RCC_CFGR_PLLMULL) >> RCC_CFGR_PLLMULL_Pos
 420:C:/Users/vasil/STM32Cube/Repository/STM32Cube_FW_F1_V1.8.5/Drivers/STM32F1xx_HAL_Driver/Src\stm32f1xx_hal_rcc_ex.c ****         if ((temp_reg & RCC_CFGR_PLLSRC) != RCC_PLLSOURCE_HSI_DIV2)
 421:C:/Users/vasil/STM32Cube/Repository/STM32Cube_FW_F1_V1.8.5/Drivers/STM32F1xx_HAL_Driver/Src\stm32f1xx_hal_rcc_ex.c ****         {
 422:C:/Users/vasil/STM32Cube/Repository/STM32Cube_FW_F1_V1.8.5/Drivers/STM32F1xx_HAL_Driver/Src\stm32f1xx_hal_rcc_ex.c **** #if defined(STM32F105xC) || defined(STM32F107xC) || defined(STM32F100xB)\
 423:C:/Users/vasil/STM32Cube/Repository/STM32Cube_FW_F1_V1.8.5/Drivers/STM32F1xx_HAL_Driver/Src\stm32f1xx_hal_rcc_ex.c ****  || defined(STM32F100xE)
 424:C:/Users/vasil/STM32Cube/Repository/STM32Cube_FW_F1_V1.8.5/Drivers/STM32F1xx_HAL_Driver/Src\stm32f1xx_hal_rcc_ex.c ****           prediv1 = aPredivFactorTable[(uint32_t)(RCC->CFGR2 & RCC_CFGR2_PREDIV1) >> RCC_CFGR2_PRED
 425:C:/Users/vasil/STM32Cube/Repository/STM32Cube_FW_F1_V1.8.5/Drivers/STM32F1xx_HAL_Driver/Src\stm32f1xx_hal_rcc_ex.c **** #else
 426:C:/Users/vasil/STM32Cube/Repository/STM32Cube_FW_F1_V1.8.5/Drivers/STM32F1xx_HAL_Driver/Src\stm32f1xx_hal_rcc_ex.c ****           prediv1 = aPredivFactorTable[(uint32_t)(RCC->CFGR & RCC_CFGR_PLLXTPRE) >> RCC_CFGR_PLLXTP
 427:C:/Users/vasil/STM32Cube/Repository/STM32Cube_FW_F1_V1.8.5/Drivers/STM32F1xx_HAL_Driver/Src\stm32f1xx_hal_rcc_ex.c **** #endif /* STM32F105xC || STM32F107xC || STM32F100xB || STM32F100xE */
 428:C:/Users/vasil/STM32Cube/Repository/STM32Cube_FW_F1_V1.8.5/Drivers/STM32F1xx_HAL_Driver/Src\stm32f1xx_hal_rcc_ex.c **** 
 429:C:/Users/vasil/STM32Cube/Repository/STM32Cube_FW_F1_V1.8.5/Drivers/STM32F1xx_HAL_Driver/Src\stm32f1xx_hal_rcc_ex.c **** #if defined(STM32F105xC) || defined(STM32F107xC)
 430:C:/Users/vasil/STM32Cube/Repository/STM32Cube_FW_F1_V1.8.5/Drivers/STM32F1xx_HAL_Driver/Src\stm32f1xx_hal_rcc_ex.c ****           if (HAL_IS_BIT_SET(RCC->CFGR2, RCC_CFGR2_PREDIV1SRC))
 431:C:/Users/vasil/STM32Cube/Repository/STM32Cube_FW_F1_V1.8.5/Drivers/STM32F1xx_HAL_Driver/Src\stm32f1xx_hal_rcc_ex.c ****           {
 432:C:/Users/vasil/STM32Cube/Repository/STM32Cube_FW_F1_V1.8.5/Drivers/STM32F1xx_HAL_Driver/Src\stm32f1xx_hal_rcc_ex.c ****             /* PLL2 selected as Prediv1 source */
 433:C:/Users/vasil/STM32Cube/Repository/STM32Cube_FW_F1_V1.8.5/Drivers/STM32F1xx_HAL_Driver/Src\stm32f1xx_hal_rcc_ex.c ****             /* PLLCLK = PLL2CLK / PREDIV1 * PLLMUL with PLL2CLK = HSE/PREDIV2 * PLL2MUL */
 434:C:/Users/vasil/STM32Cube/Repository/STM32Cube_FW_F1_V1.8.5/Drivers/STM32F1xx_HAL_Driver/Src\stm32f1xx_hal_rcc_ex.c ****             prediv2 = ((RCC->CFGR2 & RCC_CFGR2_PREDIV2) >> RCC_CFGR2_PREDIV2_Pos) + 1;
 435:C:/Users/vasil/STM32Cube/Repository/STM32Cube_FW_F1_V1.8.5/Drivers/STM32F1xx_HAL_Driver/Src\stm32f1xx_hal_rcc_ex.c ****             pll2mul = ((RCC->CFGR2 & RCC_CFGR2_PLL2MUL) >> RCC_CFGR2_PLL2MUL_Pos) + 2;
 436:C:/Users/vasil/STM32Cube/Repository/STM32Cube_FW_F1_V1.8.5/Drivers/STM32F1xx_HAL_Driver/Src\stm32f1xx_hal_rcc_ex.c ****             pllclk = (uint32_t)((((HSE_VALUE / prediv2) * pll2mul) / prediv1) * pllmul);
 437:C:/Users/vasil/STM32Cube/Repository/STM32Cube_FW_F1_V1.8.5/Drivers/STM32F1xx_HAL_Driver/Src\stm32f1xx_hal_rcc_ex.c ****           }
 438:C:/Users/vasil/STM32Cube/Repository/STM32Cube_FW_F1_V1.8.5/Drivers/STM32F1xx_HAL_Driver/Src\stm32f1xx_hal_rcc_ex.c ****           else
 439:C:/Users/vasil/STM32Cube/Repository/STM32Cube_FW_F1_V1.8.5/Drivers/STM32F1xx_HAL_Driver/Src\stm32f1xx_hal_rcc_ex.c ****           {
 440:C:/Users/vasil/STM32Cube/Repository/STM32Cube_FW_F1_V1.8.5/Drivers/STM32F1xx_HAL_Driver/Src\stm32f1xx_hal_rcc_ex.c ****             /* HSE used as PLL clock source : PLLCLK = HSE/PREDIV1 * PLLMUL */
 441:C:/Users/vasil/STM32Cube/Repository/STM32Cube_FW_F1_V1.8.5/Drivers/STM32F1xx_HAL_Driver/Src\stm32f1xx_hal_rcc_ex.c ****             pllclk = (uint32_t)((HSE_VALUE / prediv1) * pllmul);
 442:C:/Users/vasil/STM32Cube/Repository/STM32Cube_FW_F1_V1.8.5/Drivers/STM32F1xx_HAL_Driver/Src\stm32f1xx_hal_rcc_ex.c ****           }
 443:C:/Users/vasil/STM32Cube/Repository/STM32Cube_FW_F1_V1.8.5/Drivers/STM32F1xx_HAL_Driver/Src\stm32f1xx_hal_rcc_ex.c **** 
 444:C:/Users/vasil/STM32Cube/Repository/STM32Cube_FW_F1_V1.8.5/Drivers/STM32F1xx_HAL_Driver/Src\stm32f1xx_hal_rcc_ex.c ****           /* If PLLMUL was set to 13 means that it was to cover the case PLLMUL 6.5 (avoid using fl
 445:C:/Users/vasil/STM32Cube/Repository/STM32Cube_FW_F1_V1.8.5/Drivers/STM32F1xx_HAL_Driver/Src\stm32f1xx_hal_rcc_ex.c ****           /* In this case need to divide pllclk by 2 */
 446:C:/Users/vasil/STM32Cube/Repository/STM32Cube_FW_F1_V1.8.5/Drivers/STM32F1xx_HAL_Driver/Src\stm32f1xx_hal_rcc_ex.c ****           if (pllmul == aPLLMULFactorTable[(uint32_t)(RCC_CFGR_PLLMULL6_5) >> RCC_CFGR_PLLMULL_Pos]
 447:C:/Users/vasil/STM32Cube/Repository/STM32Cube_FW_F1_V1.8.5/Drivers/STM32F1xx_HAL_Driver/Src\stm32f1xx_hal_rcc_ex.c ****           {
 448:C:/Users/vasil/STM32Cube/Repository/STM32Cube_FW_F1_V1.8.5/Drivers/STM32F1xx_HAL_Driver/Src\stm32f1xx_hal_rcc_ex.c ****             pllclk = pllclk / 2;
 449:C:/Users/vasil/STM32Cube/Repository/STM32Cube_FW_F1_V1.8.5/Drivers/STM32F1xx_HAL_Driver/Src\stm32f1xx_hal_rcc_ex.c ****           }
 450:C:/Users/vasil/STM32Cube/Repository/STM32Cube_FW_F1_V1.8.5/Drivers/STM32F1xx_HAL_Driver/Src\stm32f1xx_hal_rcc_ex.c **** #else
 451:C:/Users/vasil/STM32Cube/Repository/STM32Cube_FW_F1_V1.8.5/Drivers/STM32F1xx_HAL_Driver/Src\stm32f1xx_hal_rcc_ex.c ****           if ((temp_reg & RCC_CFGR_PLLSRC) != RCC_PLLSOURCE_HSI_DIV2)
 452:C:/Users/vasil/STM32Cube/Repository/STM32Cube_FW_F1_V1.8.5/Drivers/STM32F1xx_HAL_Driver/Src\stm32f1xx_hal_rcc_ex.c ****           {
 453:C:/Users/vasil/STM32Cube/Repository/STM32Cube_FW_F1_V1.8.5/Drivers/STM32F1xx_HAL_Driver/Src\stm32f1xx_hal_rcc_ex.c ****             /* HSE used as PLL clock source : PLLCLK = HSE/PREDIV1 * PLLMUL */
 454:C:/Users/vasil/STM32Cube/Repository/STM32Cube_FW_F1_V1.8.5/Drivers/STM32F1xx_HAL_Driver/Src\stm32f1xx_hal_rcc_ex.c ****             pllclk = (uint32_t)((HSE_VALUE / prediv1) * pllmul);
 455:C:/Users/vasil/STM32Cube/Repository/STM32Cube_FW_F1_V1.8.5/Drivers/STM32F1xx_HAL_Driver/Src\stm32f1xx_hal_rcc_ex.c ****           }
 456:C:/Users/vasil/STM32Cube/Repository/STM32Cube_FW_F1_V1.8.5/Drivers/STM32F1xx_HAL_Driver/Src\stm32f1xx_hal_rcc_ex.c **** #endif /* STM32F105xC || STM32F107xC */
 457:C:/Users/vasil/STM32Cube/Repository/STM32Cube_FW_F1_V1.8.5/Drivers/STM32F1xx_HAL_Driver/Src\stm32f1xx_hal_rcc_ex.c ****         }
ARM GAS  C:\Users\vasil\AppData\Local\Temp\ccgBRBHP.s 			page 16


 458:C:/Users/vasil/STM32Cube/Repository/STM32Cube_FW_F1_V1.8.5/Drivers/STM32F1xx_HAL_Driver/Src\stm32f1xx_hal_rcc_ex.c ****         else
 459:C:/Users/vasil/STM32Cube/Repository/STM32Cube_FW_F1_V1.8.5/Drivers/STM32F1xx_HAL_Driver/Src\stm32f1xx_hal_rcc_ex.c ****         {
 460:C:/Users/vasil/STM32Cube/Repository/STM32Cube_FW_F1_V1.8.5/Drivers/STM32F1xx_HAL_Driver/Src\stm32f1xx_hal_rcc_ex.c ****           /* HSI used as PLL clock source : PLLCLK = HSI/2 * PLLMUL */
 461:C:/Users/vasil/STM32Cube/Repository/STM32Cube_FW_F1_V1.8.5/Drivers/STM32F1xx_HAL_Driver/Src\stm32f1xx_hal_rcc_ex.c ****           pllclk = (uint32_t)((HSI_VALUE >> 1) * pllmul);
 462:C:/Users/vasil/STM32Cube/Repository/STM32Cube_FW_F1_V1.8.5/Drivers/STM32F1xx_HAL_Driver/Src\stm32f1xx_hal_rcc_ex.c ****         }
 463:C:/Users/vasil/STM32Cube/Repository/STM32Cube_FW_F1_V1.8.5/Drivers/STM32F1xx_HAL_Driver/Src\stm32f1xx_hal_rcc_ex.c **** 
 464:C:/Users/vasil/STM32Cube/Repository/STM32Cube_FW_F1_V1.8.5/Drivers/STM32F1xx_HAL_Driver/Src\stm32f1xx_hal_rcc_ex.c ****         /* Calcul of the USB frequency*/
 465:C:/Users/vasil/STM32Cube/Repository/STM32Cube_FW_F1_V1.8.5/Drivers/STM32F1xx_HAL_Driver/Src\stm32f1xx_hal_rcc_ex.c **** #if defined(STM32F105xC) || defined(STM32F107xC)
 466:C:/Users/vasil/STM32Cube/Repository/STM32Cube_FW_F1_V1.8.5/Drivers/STM32F1xx_HAL_Driver/Src\stm32f1xx_hal_rcc_ex.c ****         /* USBCLK = PLLVCO = (2 x PLLCLK) / USB prescaler */
 467:C:/Users/vasil/STM32Cube/Repository/STM32Cube_FW_F1_V1.8.5/Drivers/STM32F1xx_HAL_Driver/Src\stm32f1xx_hal_rcc_ex.c ****         if (__HAL_RCC_GET_USB_SOURCE() == RCC_USBCLKSOURCE_PLL_DIV2)
 468:C:/Users/vasil/STM32Cube/Repository/STM32Cube_FW_F1_V1.8.5/Drivers/STM32F1xx_HAL_Driver/Src\stm32f1xx_hal_rcc_ex.c ****         {
 469:C:/Users/vasil/STM32Cube/Repository/STM32Cube_FW_F1_V1.8.5/Drivers/STM32F1xx_HAL_Driver/Src\stm32f1xx_hal_rcc_ex.c ****           /* Prescaler of 2 selected for USB */
 470:C:/Users/vasil/STM32Cube/Repository/STM32Cube_FW_F1_V1.8.5/Drivers/STM32F1xx_HAL_Driver/Src\stm32f1xx_hal_rcc_ex.c ****           frequency = pllclk;
 471:C:/Users/vasil/STM32Cube/Repository/STM32Cube_FW_F1_V1.8.5/Drivers/STM32F1xx_HAL_Driver/Src\stm32f1xx_hal_rcc_ex.c ****         }
 472:C:/Users/vasil/STM32Cube/Repository/STM32Cube_FW_F1_V1.8.5/Drivers/STM32F1xx_HAL_Driver/Src\stm32f1xx_hal_rcc_ex.c ****         else
 473:C:/Users/vasil/STM32Cube/Repository/STM32Cube_FW_F1_V1.8.5/Drivers/STM32F1xx_HAL_Driver/Src\stm32f1xx_hal_rcc_ex.c ****         {
 474:C:/Users/vasil/STM32Cube/Repository/STM32Cube_FW_F1_V1.8.5/Drivers/STM32F1xx_HAL_Driver/Src\stm32f1xx_hal_rcc_ex.c ****           /* Prescaler of 3 selected for USB */
 475:C:/Users/vasil/STM32Cube/Repository/STM32Cube_FW_F1_V1.8.5/Drivers/STM32F1xx_HAL_Driver/Src\stm32f1xx_hal_rcc_ex.c ****           frequency = (2 * pllclk) / 3;
 476:C:/Users/vasil/STM32Cube/Repository/STM32Cube_FW_F1_V1.8.5/Drivers/STM32F1xx_HAL_Driver/Src\stm32f1xx_hal_rcc_ex.c ****         }
 477:C:/Users/vasil/STM32Cube/Repository/STM32Cube_FW_F1_V1.8.5/Drivers/STM32F1xx_HAL_Driver/Src\stm32f1xx_hal_rcc_ex.c **** #else
 478:C:/Users/vasil/STM32Cube/Repository/STM32Cube_FW_F1_V1.8.5/Drivers/STM32F1xx_HAL_Driver/Src\stm32f1xx_hal_rcc_ex.c ****         /* USBCLK = PLLCLK / USB prescaler */
 479:C:/Users/vasil/STM32Cube/Repository/STM32Cube_FW_F1_V1.8.5/Drivers/STM32F1xx_HAL_Driver/Src\stm32f1xx_hal_rcc_ex.c ****         if (__HAL_RCC_GET_USB_SOURCE() == RCC_USBCLKSOURCE_PLL)
 480:C:/Users/vasil/STM32Cube/Repository/STM32Cube_FW_F1_V1.8.5/Drivers/STM32F1xx_HAL_Driver/Src\stm32f1xx_hal_rcc_ex.c ****         {
 481:C:/Users/vasil/STM32Cube/Repository/STM32Cube_FW_F1_V1.8.5/Drivers/STM32F1xx_HAL_Driver/Src\stm32f1xx_hal_rcc_ex.c ****           /* No prescaler selected for USB */
 482:C:/Users/vasil/STM32Cube/Repository/STM32Cube_FW_F1_V1.8.5/Drivers/STM32F1xx_HAL_Driver/Src\stm32f1xx_hal_rcc_ex.c ****           frequency = pllclk;
 483:C:/Users/vasil/STM32Cube/Repository/STM32Cube_FW_F1_V1.8.5/Drivers/STM32F1xx_HAL_Driver/Src\stm32f1xx_hal_rcc_ex.c ****         }
 484:C:/Users/vasil/STM32Cube/Repository/STM32Cube_FW_F1_V1.8.5/Drivers/STM32F1xx_HAL_Driver/Src\stm32f1xx_hal_rcc_ex.c ****         else
 485:C:/Users/vasil/STM32Cube/Repository/STM32Cube_FW_F1_V1.8.5/Drivers/STM32F1xx_HAL_Driver/Src\stm32f1xx_hal_rcc_ex.c ****         {
 486:C:/Users/vasil/STM32Cube/Repository/STM32Cube_FW_F1_V1.8.5/Drivers/STM32F1xx_HAL_Driver/Src\stm32f1xx_hal_rcc_ex.c ****           /* Prescaler of 1.5 selected for USB */
 487:C:/Users/vasil/STM32Cube/Repository/STM32Cube_FW_F1_V1.8.5/Drivers/STM32F1xx_HAL_Driver/Src\stm32f1xx_hal_rcc_ex.c ****           frequency = (pllclk * 2) / 3;
 488:C:/Users/vasil/STM32Cube/Repository/STM32Cube_FW_F1_V1.8.5/Drivers/STM32F1xx_HAL_Driver/Src\stm32f1xx_hal_rcc_ex.c ****         }
 489:C:/Users/vasil/STM32Cube/Repository/STM32Cube_FW_F1_V1.8.5/Drivers/STM32F1xx_HAL_Driver/Src\stm32f1xx_hal_rcc_ex.c **** #endif
 490:C:/Users/vasil/STM32Cube/Repository/STM32Cube_FW_F1_V1.8.5/Drivers/STM32F1xx_HAL_Driver/Src\stm32f1xx_hal_rcc_ex.c ****       }
 491:C:/Users/vasil/STM32Cube/Repository/STM32Cube_FW_F1_V1.8.5/Drivers/STM32F1xx_HAL_Driver/Src\stm32f1xx_hal_rcc_ex.c ****       break;
 492:C:/Users/vasil/STM32Cube/Repository/STM32Cube_FW_F1_V1.8.5/Drivers/STM32F1xx_HAL_Driver/Src\stm32f1xx_hal_rcc_ex.c ****     }
 493:C:/Users/vasil/STM32Cube/Repository/STM32Cube_FW_F1_V1.8.5/Drivers/STM32F1xx_HAL_Driver/Src\stm32f1xx_hal_rcc_ex.c **** #endif /* STM32F102x6 || STM32F102xB || STM32F103x6 || STM32F103xB || STM32F103xE || STM32F103xG ||
 494:C:/Users/vasil/STM32Cube/Repository/STM32Cube_FW_F1_V1.8.5/Drivers/STM32F1xx_HAL_Driver/Src\stm32f1xx_hal_rcc_ex.c **** #if defined(STM32F103xE) || defined(STM32F103xG) || defined(STM32F105xC) || defined(STM32F107xC)
 495:C:/Users/vasil/STM32Cube/Repository/STM32Cube_FW_F1_V1.8.5/Drivers/STM32F1xx_HAL_Driver/Src\stm32f1xx_hal_rcc_ex.c ****     case RCC_PERIPHCLK_I2S2:
 496:C:/Users/vasil/STM32Cube/Repository/STM32Cube_FW_F1_V1.8.5/Drivers/STM32F1xx_HAL_Driver/Src\stm32f1xx_hal_rcc_ex.c ****     {
 497:C:/Users/vasil/STM32Cube/Repository/STM32Cube_FW_F1_V1.8.5/Drivers/STM32F1xx_HAL_Driver/Src\stm32f1xx_hal_rcc_ex.c **** #if defined(STM32F103xE) || defined(STM32F103xG)
 498:C:/Users/vasil/STM32Cube/Repository/STM32Cube_FW_F1_V1.8.5/Drivers/STM32F1xx_HAL_Driver/Src\stm32f1xx_hal_rcc_ex.c ****       /* SYSCLK used as source clock for I2S2 */
 499:C:/Users/vasil/STM32Cube/Repository/STM32Cube_FW_F1_V1.8.5/Drivers/STM32F1xx_HAL_Driver/Src\stm32f1xx_hal_rcc_ex.c ****       frequency = HAL_RCC_GetSysClockFreq();
 500:C:/Users/vasil/STM32Cube/Repository/STM32Cube_FW_F1_V1.8.5/Drivers/STM32F1xx_HAL_Driver/Src\stm32f1xx_hal_rcc_ex.c **** #else
 501:C:/Users/vasil/STM32Cube/Repository/STM32Cube_FW_F1_V1.8.5/Drivers/STM32F1xx_HAL_Driver/Src\stm32f1xx_hal_rcc_ex.c ****       if (__HAL_RCC_GET_I2S2_SOURCE() == RCC_I2S2CLKSOURCE_SYSCLK)
 502:C:/Users/vasil/STM32Cube/Repository/STM32Cube_FW_F1_V1.8.5/Drivers/STM32F1xx_HAL_Driver/Src\stm32f1xx_hal_rcc_ex.c ****       {
 503:C:/Users/vasil/STM32Cube/Repository/STM32Cube_FW_F1_V1.8.5/Drivers/STM32F1xx_HAL_Driver/Src\stm32f1xx_hal_rcc_ex.c ****         /* SYSCLK used as source clock for I2S2 */
 504:C:/Users/vasil/STM32Cube/Repository/STM32Cube_FW_F1_V1.8.5/Drivers/STM32F1xx_HAL_Driver/Src\stm32f1xx_hal_rcc_ex.c ****         frequency = HAL_RCC_GetSysClockFreq();
 505:C:/Users/vasil/STM32Cube/Repository/STM32Cube_FW_F1_V1.8.5/Drivers/STM32F1xx_HAL_Driver/Src\stm32f1xx_hal_rcc_ex.c ****       }
 506:C:/Users/vasil/STM32Cube/Repository/STM32Cube_FW_F1_V1.8.5/Drivers/STM32F1xx_HAL_Driver/Src\stm32f1xx_hal_rcc_ex.c ****       else
 507:C:/Users/vasil/STM32Cube/Repository/STM32Cube_FW_F1_V1.8.5/Drivers/STM32F1xx_HAL_Driver/Src\stm32f1xx_hal_rcc_ex.c ****       {
 508:C:/Users/vasil/STM32Cube/Repository/STM32Cube_FW_F1_V1.8.5/Drivers/STM32F1xx_HAL_Driver/Src\stm32f1xx_hal_rcc_ex.c ****         /* Check if PLLI2S is enabled */
 509:C:/Users/vasil/STM32Cube/Repository/STM32Cube_FW_F1_V1.8.5/Drivers/STM32F1xx_HAL_Driver/Src\stm32f1xx_hal_rcc_ex.c ****         if (HAL_IS_BIT_SET(RCC->CR, RCC_CR_PLL3ON))
 510:C:/Users/vasil/STM32Cube/Repository/STM32Cube_FW_F1_V1.8.5/Drivers/STM32F1xx_HAL_Driver/Src\stm32f1xx_hal_rcc_ex.c ****         {
 511:C:/Users/vasil/STM32Cube/Repository/STM32Cube_FW_F1_V1.8.5/Drivers/STM32F1xx_HAL_Driver/Src\stm32f1xx_hal_rcc_ex.c ****           /* PLLI2SVCO = 2 * PLLI2SCLK = 2 * (HSE/PREDIV2 * PLL3MUL) */
 512:C:/Users/vasil/STM32Cube/Repository/STM32Cube_FW_F1_V1.8.5/Drivers/STM32F1xx_HAL_Driver/Src\stm32f1xx_hal_rcc_ex.c ****           prediv2 = ((RCC->CFGR2 & RCC_CFGR2_PREDIV2) >> RCC_CFGR2_PREDIV2_Pos) + 1;
 513:C:/Users/vasil/STM32Cube/Repository/STM32Cube_FW_F1_V1.8.5/Drivers/STM32F1xx_HAL_Driver/Src\stm32f1xx_hal_rcc_ex.c ****           pll3mul = ((RCC->CFGR2 & RCC_CFGR2_PLL3MUL) >> RCC_CFGR2_PLL3MUL_Pos) + 2;
 514:C:/Users/vasil/STM32Cube/Repository/STM32Cube_FW_F1_V1.8.5/Drivers/STM32F1xx_HAL_Driver/Src\stm32f1xx_hal_rcc_ex.c ****           frequency = (uint32_t)(2 * ((HSE_VALUE / prediv2) * pll3mul));
ARM GAS  C:\Users\vasil\AppData\Local\Temp\ccgBRBHP.s 			page 17


 515:C:/Users/vasil/STM32Cube/Repository/STM32Cube_FW_F1_V1.8.5/Drivers/STM32F1xx_HAL_Driver/Src\stm32f1xx_hal_rcc_ex.c ****         }
 516:C:/Users/vasil/STM32Cube/Repository/STM32Cube_FW_F1_V1.8.5/Drivers/STM32F1xx_HAL_Driver/Src\stm32f1xx_hal_rcc_ex.c ****       }
 517:C:/Users/vasil/STM32Cube/Repository/STM32Cube_FW_F1_V1.8.5/Drivers/STM32F1xx_HAL_Driver/Src\stm32f1xx_hal_rcc_ex.c **** #endif /* STM32F103xE || STM32F103xG */
 518:C:/Users/vasil/STM32Cube/Repository/STM32Cube_FW_F1_V1.8.5/Drivers/STM32F1xx_HAL_Driver/Src\stm32f1xx_hal_rcc_ex.c ****       break;
 519:C:/Users/vasil/STM32Cube/Repository/STM32Cube_FW_F1_V1.8.5/Drivers/STM32F1xx_HAL_Driver/Src\stm32f1xx_hal_rcc_ex.c ****     }
 520:C:/Users/vasil/STM32Cube/Repository/STM32Cube_FW_F1_V1.8.5/Drivers/STM32F1xx_HAL_Driver/Src\stm32f1xx_hal_rcc_ex.c ****     case RCC_PERIPHCLK_I2S3:
 521:C:/Users/vasil/STM32Cube/Repository/STM32Cube_FW_F1_V1.8.5/Drivers/STM32F1xx_HAL_Driver/Src\stm32f1xx_hal_rcc_ex.c ****     {
 522:C:/Users/vasil/STM32Cube/Repository/STM32Cube_FW_F1_V1.8.5/Drivers/STM32F1xx_HAL_Driver/Src\stm32f1xx_hal_rcc_ex.c **** #if defined(STM32F103xE) || defined(STM32F103xG)
 523:C:/Users/vasil/STM32Cube/Repository/STM32Cube_FW_F1_V1.8.5/Drivers/STM32F1xx_HAL_Driver/Src\stm32f1xx_hal_rcc_ex.c ****       /* SYSCLK used as source clock for I2S3 */
 524:C:/Users/vasil/STM32Cube/Repository/STM32Cube_FW_F1_V1.8.5/Drivers/STM32F1xx_HAL_Driver/Src\stm32f1xx_hal_rcc_ex.c ****       frequency = HAL_RCC_GetSysClockFreq();
 525:C:/Users/vasil/STM32Cube/Repository/STM32Cube_FW_F1_V1.8.5/Drivers/STM32F1xx_HAL_Driver/Src\stm32f1xx_hal_rcc_ex.c **** #else
 526:C:/Users/vasil/STM32Cube/Repository/STM32Cube_FW_F1_V1.8.5/Drivers/STM32F1xx_HAL_Driver/Src\stm32f1xx_hal_rcc_ex.c ****       if (__HAL_RCC_GET_I2S3_SOURCE() == RCC_I2S3CLKSOURCE_SYSCLK)
 527:C:/Users/vasil/STM32Cube/Repository/STM32Cube_FW_F1_V1.8.5/Drivers/STM32F1xx_HAL_Driver/Src\stm32f1xx_hal_rcc_ex.c ****       {
 528:C:/Users/vasil/STM32Cube/Repository/STM32Cube_FW_F1_V1.8.5/Drivers/STM32F1xx_HAL_Driver/Src\stm32f1xx_hal_rcc_ex.c ****         /* SYSCLK used as source clock for I2S3 */
 529:C:/Users/vasil/STM32Cube/Repository/STM32Cube_FW_F1_V1.8.5/Drivers/STM32F1xx_HAL_Driver/Src\stm32f1xx_hal_rcc_ex.c ****         frequency = HAL_RCC_GetSysClockFreq();
 530:C:/Users/vasil/STM32Cube/Repository/STM32Cube_FW_F1_V1.8.5/Drivers/STM32F1xx_HAL_Driver/Src\stm32f1xx_hal_rcc_ex.c ****       }
 531:C:/Users/vasil/STM32Cube/Repository/STM32Cube_FW_F1_V1.8.5/Drivers/STM32F1xx_HAL_Driver/Src\stm32f1xx_hal_rcc_ex.c ****       else
 532:C:/Users/vasil/STM32Cube/Repository/STM32Cube_FW_F1_V1.8.5/Drivers/STM32F1xx_HAL_Driver/Src\stm32f1xx_hal_rcc_ex.c ****       {
 533:C:/Users/vasil/STM32Cube/Repository/STM32Cube_FW_F1_V1.8.5/Drivers/STM32F1xx_HAL_Driver/Src\stm32f1xx_hal_rcc_ex.c ****         /* Check if PLLI2S is enabled */
 534:C:/Users/vasil/STM32Cube/Repository/STM32Cube_FW_F1_V1.8.5/Drivers/STM32F1xx_HAL_Driver/Src\stm32f1xx_hal_rcc_ex.c ****         if (HAL_IS_BIT_SET(RCC->CR, RCC_CR_PLL3ON))
 535:C:/Users/vasil/STM32Cube/Repository/STM32Cube_FW_F1_V1.8.5/Drivers/STM32F1xx_HAL_Driver/Src\stm32f1xx_hal_rcc_ex.c ****         {
 536:C:/Users/vasil/STM32Cube/Repository/STM32Cube_FW_F1_V1.8.5/Drivers/STM32F1xx_HAL_Driver/Src\stm32f1xx_hal_rcc_ex.c ****           /* PLLI2SVCO = 2 * PLLI2SCLK = 2 * (HSE/PREDIV2 * PLL3MUL) */
 537:C:/Users/vasil/STM32Cube/Repository/STM32Cube_FW_F1_V1.8.5/Drivers/STM32F1xx_HAL_Driver/Src\stm32f1xx_hal_rcc_ex.c ****           prediv2 = ((RCC->CFGR2 & RCC_CFGR2_PREDIV2) >> RCC_CFGR2_PREDIV2_Pos) + 1;
 538:C:/Users/vasil/STM32Cube/Repository/STM32Cube_FW_F1_V1.8.5/Drivers/STM32F1xx_HAL_Driver/Src\stm32f1xx_hal_rcc_ex.c ****           pll3mul = ((RCC->CFGR2 & RCC_CFGR2_PLL3MUL) >> RCC_CFGR2_PLL3MUL_Pos) + 2;
 539:C:/Users/vasil/STM32Cube/Repository/STM32Cube_FW_F1_V1.8.5/Drivers/STM32F1xx_HAL_Driver/Src\stm32f1xx_hal_rcc_ex.c ****           frequency = (uint32_t)(2 * ((HSE_VALUE / prediv2) * pll3mul));
 540:C:/Users/vasil/STM32Cube/Repository/STM32Cube_FW_F1_V1.8.5/Drivers/STM32F1xx_HAL_Driver/Src\stm32f1xx_hal_rcc_ex.c ****         }
 541:C:/Users/vasil/STM32Cube/Repository/STM32Cube_FW_F1_V1.8.5/Drivers/STM32F1xx_HAL_Driver/Src\stm32f1xx_hal_rcc_ex.c ****       }
 542:C:/Users/vasil/STM32Cube/Repository/STM32Cube_FW_F1_V1.8.5/Drivers/STM32F1xx_HAL_Driver/Src\stm32f1xx_hal_rcc_ex.c **** #endif /* STM32F103xE || STM32F103xG */
 543:C:/Users/vasil/STM32Cube/Repository/STM32Cube_FW_F1_V1.8.5/Drivers/STM32F1xx_HAL_Driver/Src\stm32f1xx_hal_rcc_ex.c ****       break;
 544:C:/Users/vasil/STM32Cube/Repository/STM32Cube_FW_F1_V1.8.5/Drivers/STM32F1xx_HAL_Driver/Src\stm32f1xx_hal_rcc_ex.c ****     }
 545:C:/Users/vasil/STM32Cube/Repository/STM32Cube_FW_F1_V1.8.5/Drivers/STM32F1xx_HAL_Driver/Src\stm32f1xx_hal_rcc_ex.c **** #endif /* STM32F103xE || STM32F103xG || STM32F105xC || STM32F107xC */
 546:C:/Users/vasil/STM32Cube/Repository/STM32Cube_FW_F1_V1.8.5/Drivers/STM32F1xx_HAL_Driver/Src\stm32f1xx_hal_rcc_ex.c ****     case RCC_PERIPHCLK_RTC:
 547:C:/Users/vasil/STM32Cube/Repository/STM32Cube_FW_F1_V1.8.5/Drivers/STM32F1xx_HAL_Driver/Src\stm32f1xx_hal_rcc_ex.c ****     {
 548:C:/Users/vasil/STM32Cube/Repository/STM32Cube_FW_F1_V1.8.5/Drivers/STM32F1xx_HAL_Driver/Src\stm32f1xx_hal_rcc_ex.c ****       /* Get RCC BDCR configuration ------------------------------------------------------*/
 549:C:/Users/vasil/STM32Cube/Repository/STM32Cube_FW_F1_V1.8.5/Drivers/STM32F1xx_HAL_Driver/Src\stm32f1xx_hal_rcc_ex.c ****       temp_reg = RCC->BDCR;
 550:C:/Users/vasil/STM32Cube/Repository/STM32Cube_FW_F1_V1.8.5/Drivers/STM32F1xx_HAL_Driver/Src\stm32f1xx_hal_rcc_ex.c **** 
 551:C:/Users/vasil/STM32Cube/Repository/STM32Cube_FW_F1_V1.8.5/Drivers/STM32F1xx_HAL_Driver/Src\stm32f1xx_hal_rcc_ex.c ****       /* Check if LSE is ready if RTC clock selection is LSE */
 552:C:/Users/vasil/STM32Cube/Repository/STM32Cube_FW_F1_V1.8.5/Drivers/STM32F1xx_HAL_Driver/Src\stm32f1xx_hal_rcc_ex.c ****       if (((temp_reg & RCC_BDCR_RTCSEL) == RCC_RTCCLKSOURCE_LSE) && (HAL_IS_BIT_SET(temp_reg, RCC_B
 553:C:/Users/vasil/STM32Cube/Repository/STM32Cube_FW_F1_V1.8.5/Drivers/STM32F1xx_HAL_Driver/Src\stm32f1xx_hal_rcc_ex.c ****       {
 554:C:/Users/vasil/STM32Cube/Repository/STM32Cube_FW_F1_V1.8.5/Drivers/STM32F1xx_HAL_Driver/Src\stm32f1xx_hal_rcc_ex.c ****         frequency = LSE_VALUE;
 555:C:/Users/vasil/STM32Cube/Repository/STM32Cube_FW_F1_V1.8.5/Drivers/STM32F1xx_HAL_Driver/Src\stm32f1xx_hal_rcc_ex.c ****       }
 556:C:/Users/vasil/STM32Cube/Repository/STM32Cube_FW_F1_V1.8.5/Drivers/STM32F1xx_HAL_Driver/Src\stm32f1xx_hal_rcc_ex.c ****       /* Check if LSI is ready if RTC clock selection is LSI */
 557:C:/Users/vasil/STM32Cube/Repository/STM32Cube_FW_F1_V1.8.5/Drivers/STM32F1xx_HAL_Driver/Src\stm32f1xx_hal_rcc_ex.c ****       else if (((temp_reg & RCC_BDCR_RTCSEL) == RCC_RTCCLKSOURCE_LSI) && (HAL_IS_BIT_SET(RCC->CSR, 
 558:C:/Users/vasil/STM32Cube/Repository/STM32Cube_FW_F1_V1.8.5/Drivers/STM32F1xx_HAL_Driver/Src\stm32f1xx_hal_rcc_ex.c ****       {
 559:C:/Users/vasil/STM32Cube/Repository/STM32Cube_FW_F1_V1.8.5/Drivers/STM32F1xx_HAL_Driver/Src\stm32f1xx_hal_rcc_ex.c ****         frequency = LSI_VALUE;
 560:C:/Users/vasil/STM32Cube/Repository/STM32Cube_FW_F1_V1.8.5/Drivers/STM32F1xx_HAL_Driver/Src\stm32f1xx_hal_rcc_ex.c ****       }
 561:C:/Users/vasil/STM32Cube/Repository/STM32Cube_FW_F1_V1.8.5/Drivers/STM32F1xx_HAL_Driver/Src\stm32f1xx_hal_rcc_ex.c ****       else if (((temp_reg & RCC_BDCR_RTCSEL) == RCC_RTCCLKSOURCE_HSE_DIV128) && (HAL_IS_BIT_SET(RCC
 562:C:/Users/vasil/STM32Cube/Repository/STM32Cube_FW_F1_V1.8.5/Drivers/STM32F1xx_HAL_Driver/Src\stm32f1xx_hal_rcc_ex.c ****       {
 563:C:/Users/vasil/STM32Cube/Repository/STM32Cube_FW_F1_V1.8.5/Drivers/STM32F1xx_HAL_Driver/Src\stm32f1xx_hal_rcc_ex.c ****         frequency = HSE_VALUE / 128U;
 564:C:/Users/vasil/STM32Cube/Repository/STM32Cube_FW_F1_V1.8.5/Drivers/STM32F1xx_HAL_Driver/Src\stm32f1xx_hal_rcc_ex.c ****       }
 565:C:/Users/vasil/STM32Cube/Repository/STM32Cube_FW_F1_V1.8.5/Drivers/STM32F1xx_HAL_Driver/Src\stm32f1xx_hal_rcc_ex.c ****       /* Clock not enabled for RTC*/
 566:C:/Users/vasil/STM32Cube/Repository/STM32Cube_FW_F1_V1.8.5/Drivers/STM32F1xx_HAL_Driver/Src\stm32f1xx_hal_rcc_ex.c ****       else
 567:C:/Users/vasil/STM32Cube/Repository/STM32Cube_FW_F1_V1.8.5/Drivers/STM32F1xx_HAL_Driver/Src\stm32f1xx_hal_rcc_ex.c ****       {
 568:C:/Users/vasil/STM32Cube/Repository/STM32Cube_FW_F1_V1.8.5/Drivers/STM32F1xx_HAL_Driver/Src\stm32f1xx_hal_rcc_ex.c ****         /* nothing to do: frequency already initialized to 0U */
 569:C:/Users/vasil/STM32Cube/Repository/STM32Cube_FW_F1_V1.8.5/Drivers/STM32F1xx_HAL_Driver/Src\stm32f1xx_hal_rcc_ex.c ****       }
 570:C:/Users/vasil/STM32Cube/Repository/STM32Cube_FW_F1_V1.8.5/Drivers/STM32F1xx_HAL_Driver/Src\stm32f1xx_hal_rcc_ex.c ****       break;
 571:C:/Users/vasil/STM32Cube/Repository/STM32Cube_FW_F1_V1.8.5/Drivers/STM32F1xx_HAL_Driver/Src\stm32f1xx_hal_rcc_ex.c ****     }
ARM GAS  C:\Users\vasil\AppData\Local\Temp\ccgBRBHP.s 			page 18


 572:C:/Users/vasil/STM32Cube/Repository/STM32Cube_FW_F1_V1.8.5/Drivers/STM32F1xx_HAL_Driver/Src\stm32f1xx_hal_rcc_ex.c ****     case RCC_PERIPHCLK_ADC:
 573:C:/Users/vasil/STM32Cube/Repository/STM32Cube_FW_F1_V1.8.5/Drivers/STM32F1xx_HAL_Driver/Src\stm32f1xx_hal_rcc_ex.c ****     {
 574:C:/Users/vasil/STM32Cube/Repository/STM32Cube_FW_F1_V1.8.5/Drivers/STM32F1xx_HAL_Driver/Src\stm32f1xx_hal_rcc_ex.c ****       frequency = HAL_RCC_GetPCLK2Freq() / (((__HAL_RCC_GET_ADC_SOURCE() >> RCC_CFGR_ADCPRE_Pos) + 
 575:C:/Users/vasil/STM32Cube/Repository/STM32Cube_FW_F1_V1.8.5/Drivers/STM32F1xx_HAL_Driver/Src\stm32f1xx_hal_rcc_ex.c ****       break;
 576:C:/Users/vasil/STM32Cube/Repository/STM32Cube_FW_F1_V1.8.5/Drivers/STM32F1xx_HAL_Driver/Src\stm32f1xx_hal_rcc_ex.c ****     }
 577:C:/Users/vasil/STM32Cube/Repository/STM32Cube_FW_F1_V1.8.5/Drivers/STM32F1xx_HAL_Driver/Src\stm32f1xx_hal_rcc_ex.c ****     default:
 578:C:/Users/vasil/STM32Cube/Repository/STM32Cube_FW_F1_V1.8.5/Drivers/STM32F1xx_HAL_Driver/Src\stm32f1xx_hal_rcc_ex.c ****     {
 579:C:/Users/vasil/STM32Cube/Repository/STM32Cube_FW_F1_V1.8.5/Drivers/STM32F1xx_HAL_Driver/Src\stm32f1xx_hal_rcc_ex.c ****       break;
 580:C:/Users/vasil/STM32Cube/Repository/STM32Cube_FW_F1_V1.8.5/Drivers/STM32F1xx_HAL_Driver/Src\stm32f1xx_hal_rcc_ex.c ****     }
 581:C:/Users/vasil/STM32Cube/Repository/STM32Cube_FW_F1_V1.8.5/Drivers/STM32F1xx_HAL_Driver/Src\stm32f1xx_hal_rcc_ex.c ****   }
 582:C:/Users/vasil/STM32Cube/Repository/STM32Cube_FW_F1_V1.8.5/Drivers/STM32F1xx_HAL_Driver/Src\stm32f1xx_hal_rcc_ex.c ****   return (frequency);
 583:C:/Users/vasil/STM32Cube/Repository/STM32Cube_FW_F1_V1.8.5/Drivers/STM32F1xx_HAL_Driver/Src\stm32f1xx_hal_rcc_ex.c **** }
 378              		.loc 1 583 1 is_stmt 0 view .LVU113
 379 0010 08BD     		pop	{r3, pc}
 380              	.LVL30:
 381              	.L27:
 414:C:/Users/vasil/STM32Cube/Repository/STM32Cube_FW_F1_V1.8.5/Drivers/STM32F1xx_HAL_Driver/Src\stm32f1xx_hal_rcc_ex.c **** 
 382              		.loc 1 414 7 is_stmt 1 view .LVU114
 414:C:/Users/vasil/STM32Cube/Repository/STM32Cube_FW_F1_V1.8.5/Drivers/STM32F1xx_HAL_Driver/Src\stm32f1xx_hal_rcc_ex.c **** 
 383              		.loc 1 414 16 is_stmt 0 view .LVU115
 384 0012 2B4B     		ldr	r3, .L40
 385 0014 5A68     		ldr	r2, [r3, #4]
 386              	.LVL31:
 417:C:/Users/vasil/STM32Cube/Repository/STM32Cube_FW_F1_V1.8.5/Drivers/STM32F1xx_HAL_Driver/Src\stm32f1xx_hal_rcc_ex.c ****       {
 387              		.loc 1 417 7 is_stmt 1 view .LVU116
 417:C:/Users/vasil/STM32Cube/Repository/STM32Cube_FW_F1_V1.8.5/Drivers/STM32F1xx_HAL_Driver/Src\stm32f1xx_hal_rcc_ex.c ****       {
 388              		.loc 1 417 11 is_stmt 0 view .LVU117
 389 0016 1868     		ldr	r0, [r3]
 390              	.LVL32:
 417:C:/Users/vasil/STM32Cube/Repository/STM32Cube_FW_F1_V1.8.5/Drivers/STM32F1xx_HAL_Driver/Src\stm32f1xx_hal_rcc_ex.c ****       {
 391              		.loc 1 417 10 view .LVU118
 392 0018 10F08070 		ands	r0, r0, #16777216
 393 001c F8D0     		beq	.L25
 419:C:/Users/vasil/STM32Cube/Repository/STM32Cube_FW_F1_V1.8.5/Drivers/STM32F1xx_HAL_Driver/Src\stm32f1xx_hal_rcc_ex.c ****         if ((temp_reg & RCC_CFGR_PLLSRC) != RCC_PLLSOURCE_HSI_DIV2)
 394              		.loc 1 419 9 is_stmt 1 view .LVU119
 419:C:/Users/vasil/STM32Cube/Repository/STM32Cube_FW_F1_V1.8.5/Drivers/STM32F1xx_HAL_Driver/Src\stm32f1xx_hal_rcc_ex.c ****         if ((temp_reg & RCC_CFGR_PLLSRC) != RCC_PLLSOURCE_HSI_DIV2)
 395              		.loc 1 419 77 is_stmt 0 view .LVU120
 396 001e C2F38343 		ubfx	r3, r2, #18, #4
 419:C:/Users/vasil/STM32Cube/Repository/STM32Cube_FW_F1_V1.8.5/Drivers/STM32F1xx_HAL_Driver/Src\stm32f1xx_hal_rcc_ex.c ****         if ((temp_reg & RCC_CFGR_PLLSRC) != RCC_PLLSOURCE_HSI_DIV2)
 397              		.loc 1 419 36 view .LVU121
 398 0022 2849     		ldr	r1, .L40+4
 399 0024 C85C     		ldrb	r0, [r1, r3]	@ zero_extendqisi2
 400              	.LVL33:
 420:C:/Users/vasil/STM32Cube/Repository/STM32Cube_FW_F1_V1.8.5/Drivers/STM32F1xx_HAL_Driver/Src\stm32f1xx_hal_rcc_ex.c ****         {
 401              		.loc 1 420 9 is_stmt 1 view .LVU122
 420:C:/Users/vasil/STM32Cube/Repository/STM32Cube_FW_F1_V1.8.5/Drivers/STM32F1xx_HAL_Driver/Src\stm32f1xx_hal_rcc_ex.c ****         {
 402              		.loc 1 420 12 is_stmt 0 view .LVU123
 403 0026 12F4803F 		tst	r2, #65536
 404 002a 15D0     		beq	.L30
 426:C:/Users/vasil/STM32Cube/Repository/STM32Cube_FW_F1_V1.8.5/Drivers/STM32F1xx_HAL_Driver/Src\stm32f1xx_hal_rcc_ex.c **** #endif /* STM32F105xC || STM32F107xC || STM32F100xB || STM32F100xE */
 405              		.loc 1 426 11 is_stmt 1 view .LVU124
 426:C:/Users/vasil/STM32Cube/Repository/STM32Cube_FW_F1_V1.8.5/Drivers/STM32F1xx_HAL_Driver/Src\stm32f1xx_hal_rcc_ex.c **** #endif /* STM32F105xC || STM32F107xC || STM32F100xB || STM32F100xE */
 406              		.loc 1 426 54 is_stmt 0 view .LVU125
 407 002c 244B     		ldr	r3, .L40
 408 002e 5B68     		ldr	r3, [r3, #4]
 426:C:/Users/vasil/STM32Cube/Repository/STM32Cube_FW_F1_V1.8.5/Drivers/STM32F1xx_HAL_Driver/Src\stm32f1xx_hal_rcc_ex.c **** #endif /* STM32F105xC || STM32F107xC || STM32F100xB || STM32F100xE */
 409              		.loc 1 426 82 view .LVU126
ARM GAS  C:\Users\vasil\AppData\Local\Temp\ccgBRBHP.s 			page 19


 410 0030 C3F34043 		ubfx	r3, r3, #17, #1
 426:C:/Users/vasil/STM32Cube/Repository/STM32Cube_FW_F1_V1.8.5/Drivers/STM32F1xx_HAL_Driver/Src\stm32f1xx_hal_rcc_ex.c **** #endif /* STM32F105xC || STM32F107xC || STM32F100xB || STM32F100xE */
 411              		.loc 1 426 39 view .LVU127
 412 0034 244A     		ldr	r2, .L40+8
 413              	.LVL34:
 426:C:/Users/vasil/STM32Cube/Repository/STM32Cube_FW_F1_V1.8.5/Drivers/STM32F1xx_HAL_Driver/Src\stm32f1xx_hal_rcc_ex.c **** #endif /* STM32F105xC || STM32F107xC || STM32F100xB || STM32F100xE */
 414              		.loc 1 426 39 view .LVU128
 415 0036 D25C     		ldrb	r2, [r2, r3]	@ zero_extendqisi2
 416              	.LVL35:
 451:C:/Users/vasil/STM32Cube/Repository/STM32Cube_FW_F1_V1.8.5/Drivers/STM32F1xx_HAL_Driver/Src\stm32f1xx_hal_rcc_ex.c ****           {
 417              		.loc 1 451 11 is_stmt 1 view .LVU129
 454:C:/Users/vasil/STM32Cube/Repository/STM32Cube_FW_F1_V1.8.5/Drivers/STM32F1xx_HAL_Driver/Src\stm32f1xx_hal_rcc_ex.c ****           }
 418              		.loc 1 454 13 view .LVU130
 454:C:/Users/vasil/STM32Cube/Repository/STM32Cube_FW_F1_V1.8.5/Drivers/STM32F1xx_HAL_Driver/Src\stm32f1xx_hal_rcc_ex.c ****           }
 419              		.loc 1 454 44 is_stmt 0 view .LVU131
 420 0038 244B     		ldr	r3, .L40+12
 421 003a B3FBF2F3 		udiv	r3, r3, r2
 454:C:/Users/vasil/STM32Cube/Repository/STM32Cube_FW_F1_V1.8.5/Drivers/STM32F1xx_HAL_Driver/Src\stm32f1xx_hal_rcc_ex.c ****           }
 422              		.loc 1 454 20 view .LVU132
 423 003e 03FB00F0 		mul	r0, r3, r0
 424              	.LVL36:
 425              	.L31:
 479:C:/Users/vasil/STM32Cube/Repository/STM32Cube_FW_F1_V1.8.5/Drivers/STM32F1xx_HAL_Driver/Src\stm32f1xx_hal_rcc_ex.c ****         {
 426              		.loc 1 479 9 is_stmt 1 view .LVU133
 479:C:/Users/vasil/STM32Cube/Repository/STM32Cube_FW_F1_V1.8.5/Drivers/STM32F1xx_HAL_Driver/Src\stm32f1xx_hal_rcc_ex.c ****         {
 427              		.loc 1 479 13 is_stmt 0 view .LVU134
 428 0042 1F4B     		ldr	r3, .L40
 429 0044 5B68     		ldr	r3, [r3, #4]
 479:C:/Users/vasil/STM32Cube/Repository/STM32Cube_FW_F1_V1.8.5/Drivers/STM32F1xx_HAL_Driver/Src\stm32f1xx_hal_rcc_ex.c ****         {
 430              		.loc 1 479 12 view .LVU135
 431 0046 13F4800F 		tst	r3, #4194304
 432 004a E1D1     		bne	.L25
 487:C:/Users/vasil/STM32Cube/Repository/STM32Cube_FW_F1_V1.8.5/Drivers/STM32F1xx_HAL_Driver/Src\stm32f1xx_hal_rcc_ex.c ****         }
 433              		.loc 1 487 11 is_stmt 1 view .LVU136
 487:C:/Users/vasil/STM32Cube/Repository/STM32Cube_FW_F1_V1.8.5/Drivers/STM32F1xx_HAL_Driver/Src\stm32f1xx_hal_rcc_ex.c ****         }
 434              		.loc 1 487 31 is_stmt 0 view .LVU137
 435 004c 4000     		lsls	r0, r0, #1
 436              	.LVL37:
 487:C:/Users/vasil/STM32Cube/Repository/STM32Cube_FW_F1_V1.8.5/Drivers/STM32F1xx_HAL_Driver/Src\stm32f1xx_hal_rcc_ex.c ****         }
 437              		.loc 1 487 21 view .LVU138
 438 004e 204B     		ldr	r3, .L40+16
 439 0050 A3FB0030 		umull	r3, r0, r3, r0
 440 0054 4008     		lsrs	r0, r0, #1
 441              	.LVL38:
 487:C:/Users/vasil/STM32Cube/Repository/STM32Cube_FW_F1_V1.8.5/Drivers/STM32F1xx_HAL_Driver/Src\stm32f1xx_hal_rcc_ex.c ****         }
 442              		.loc 1 487 21 view .LVU139
 443 0056 DBE7     		b	.L25
 444              	.LVL39:
 445              	.L30:
 461:C:/Users/vasil/STM32Cube/Repository/STM32Cube_FW_F1_V1.8.5/Drivers/STM32F1xx_HAL_Driver/Src\stm32f1xx_hal_rcc_ex.c ****         }
 446              		.loc 1 461 11 is_stmt 1 view .LVU140
 461:C:/Users/vasil/STM32Cube/Repository/STM32Cube_FW_F1_V1.8.5/Drivers/STM32F1xx_HAL_Driver/Src\stm32f1xx_hal_rcc_ex.c ****         }
 447              		.loc 1 461 18 is_stmt 0 view .LVU141
 448 0058 1E4B     		ldr	r3, .L40+20
 449 005a 03FB00F0 		mul	r0, r3, r0
 450              	.LVL40:
 461:C:/Users/vasil/STM32Cube/Repository/STM32Cube_FW_F1_V1.8.5/Drivers/STM32F1xx_HAL_Driver/Src\stm32f1xx_hal_rcc_ex.c ****         }
ARM GAS  C:\Users\vasil\AppData\Local\Temp\ccgBRBHP.s 			page 20


 451              		.loc 1 461 18 view .LVU142
 452 005e F0E7     		b	.L31
 453              	.LVL41:
 454              	.L28:
 549:C:/Users/vasil/STM32Cube/Repository/STM32Cube_FW_F1_V1.8.5/Drivers/STM32F1xx_HAL_Driver/Src\stm32f1xx_hal_rcc_ex.c **** 
 455              		.loc 1 549 7 is_stmt 1 view .LVU143
 549:C:/Users/vasil/STM32Cube/Repository/STM32Cube_FW_F1_V1.8.5/Drivers/STM32F1xx_HAL_Driver/Src\stm32f1xx_hal_rcc_ex.c **** 
 456              		.loc 1 549 16 is_stmt 0 view .LVU144
 457 0060 174B     		ldr	r3, .L40
 458 0062 1B6A     		ldr	r3, [r3, #32]
 459              	.LVL42:
 552:C:/Users/vasil/STM32Cube/Repository/STM32Cube_FW_F1_V1.8.5/Drivers/STM32F1xx_HAL_Driver/Src\stm32f1xx_hal_rcc_ex.c ****       {
 460              		.loc 1 552 7 is_stmt 1 view .LVU145
 552:C:/Users/vasil/STM32Cube/Repository/STM32Cube_FW_F1_V1.8.5/Drivers/STM32F1xx_HAL_Driver/Src\stm32f1xx_hal_rcc_ex.c ****       {
 461              		.loc 1 552 66 is_stmt 0 view .LVU146
 462 0064 40F20232 		movw	r2, #770
 463 0068 1A40     		ands	r2, r2, r3
 552:C:/Users/vasil/STM32Cube/Repository/STM32Cube_FW_F1_V1.8.5/Drivers/STM32F1xx_HAL_Driver/Src\stm32f1xx_hal_rcc_ex.c ****       {
 464              		.loc 1 552 10 view .LVU147
 465 006a B2F5817F 		cmp	r2, #258
 466 006e 24D0     		beq	.L33
 557:C:/Users/vasil/STM32Cube/Repository/STM32Cube_FW_F1_V1.8.5/Drivers/STM32F1xx_HAL_Driver/Src\stm32f1xx_hal_rcc_ex.c ****       {
 467              		.loc 1 557 12 is_stmt 1 view .LVU148
 557:C:/Users/vasil/STM32Cube/Repository/STM32Cube_FW_F1_V1.8.5/Drivers/STM32F1xx_HAL_Driver/Src\stm32f1xx_hal_rcc_ex.c ****       {
 468              		.loc 1 557 27 is_stmt 0 view .LVU149
 469 0070 03F44073 		and	r3, r3, #768
 470              	.LVL43:
 557:C:/Users/vasil/STM32Cube/Repository/STM32Cube_FW_F1_V1.8.5/Drivers/STM32F1xx_HAL_Driver/Src\stm32f1xx_hal_rcc_ex.c ****       {
 471              		.loc 1 557 15 view .LVU150
 472 0074 B3F5007F 		cmp	r3, #512
 473 0078 04D0     		beq	.L38
 474              	.L32:
 561:C:/Users/vasil/STM32Cube/Repository/STM32Cube_FW_F1_V1.8.5/Drivers/STM32F1xx_HAL_Driver/Src\stm32f1xx_hal_rcc_ex.c ****       {
 475              		.loc 1 561 12 is_stmt 1 view .LVU151
 561:C:/Users/vasil/STM32Cube/Repository/STM32Cube_FW_F1_V1.8.5/Drivers/STM32F1xx_HAL_Driver/Src\stm32f1xx_hal_rcc_ex.c ****       {
 476              		.loc 1 561 15 is_stmt 0 view .LVU152
 477 007a B3F5407F 		cmp	r3, #768
 478 007e 09D0     		beq	.L39
 401:C:/Users/vasil/STM32Cube/Repository/STM32Cube_FW_F1_V1.8.5/Drivers/STM32F1xx_HAL_Driver/Src\stm32f1xx_hal_rcc_ex.c **** 
 479              		.loc 1 401 27 view .LVU153
 480 0080 0020     		movs	r0, #0
 481              	.LVL44:
 401:C:/Users/vasil/STM32Cube/Repository/STM32Cube_FW_F1_V1.8.5/Drivers/STM32F1xx_HAL_Driver/Src\stm32f1xx_hal_rcc_ex.c **** 
 482              		.loc 1 401 27 view .LVU154
 483 0082 C5E7     		b	.L25
 484              	.LVL45:
 485              	.L38:
 557:C:/Users/vasil/STM32Cube/Repository/STM32Cube_FW_F1_V1.8.5/Drivers/STM32F1xx_HAL_Driver/Src\stm32f1xx_hal_rcc_ex.c ****       {
 486              		.loc 1 557 75 discriminator 1 view .LVU155
 487 0084 0E4A     		ldr	r2, .L40
 488 0086 526A     		ldr	r2, [r2, #36]
 557:C:/Users/vasil/STM32Cube/Repository/STM32Cube_FW_F1_V1.8.5/Drivers/STM32F1xx_HAL_Driver/Src\stm32f1xx_hal_rcc_ex.c ****       {
 489              		.loc 1 557 71 discriminator 1 view .LVU156
 490 0088 12F0020F 		tst	r2, #2
 491 008c F5D0     		beq	.L32
 559:C:/Users/vasil/STM32Cube/Repository/STM32Cube_FW_F1_V1.8.5/Drivers/STM32F1xx_HAL_Driver/Src\stm32f1xx_hal_rcc_ex.c ****       }
 492              		.loc 1 559 19 view .LVU157
ARM GAS  C:\Users\vasil\AppData\Local\Temp\ccgBRBHP.s 			page 21


 493 008e 49F64040 		movw	r0, #40000
 494              	.LVL46:
 559:C:/Users/vasil/STM32Cube/Repository/STM32Cube_FW_F1_V1.8.5/Drivers/STM32F1xx_HAL_Driver/Src\stm32f1xx_hal_rcc_ex.c ****       }
 495              		.loc 1 559 19 view .LVU158
 496 0092 BDE7     		b	.L25
 497              	.LVL47:
 498              	.L39:
 561:C:/Users/vasil/STM32Cube/Repository/STM32Cube_FW_F1_V1.8.5/Drivers/STM32F1xx_HAL_Driver/Src\stm32f1xx_hal_rcc_ex.c ****       {
 499              		.loc 1 561 82 discriminator 1 view .LVU159
 500 0094 0A4B     		ldr	r3, .L40
 501 0096 1868     		ldr	r0, [r3]
 502              	.LVL48:
 561:C:/Users/vasil/STM32Cube/Repository/STM32Cube_FW_F1_V1.8.5/Drivers/STM32F1xx_HAL_Driver/Src\stm32f1xx_hal_rcc_ex.c ****       {
 503              		.loc 1 561 78 discriminator 1 view .LVU160
 504 0098 10F40030 		ands	r0, r0, #131072
 505 009c B8D0     		beq	.L25
 563:C:/Users/vasil/STM32Cube/Repository/STM32Cube_FW_F1_V1.8.5/Drivers/STM32F1xx_HAL_Driver/Src\stm32f1xx_hal_rcc_ex.c ****       }
 506              		.loc 1 563 19 view .LVU161
 507 009e 4FF22440 		movw	r0, #62500
 508              	.LVL49:
 582:C:/Users/vasil/STM32Cube/Repository/STM32Cube_FW_F1_V1.8.5/Drivers/STM32F1xx_HAL_Driver/Src\stm32f1xx_hal_rcc_ex.c **** }
 509              		.loc 1 582 3 is_stmt 1 view .LVU162
 582:C:/Users/vasil/STM32Cube/Repository/STM32Cube_FW_F1_V1.8.5/Drivers/STM32F1xx_HAL_Driver/Src\stm32f1xx_hal_rcc_ex.c **** }
 510              		.loc 1 582 10 is_stmt 0 view .LVU163
 511 00a2 B5E7     		b	.L25
 512              	.LVL50:
 513              	.L26:
 574:C:/Users/vasil/STM32Cube/Repository/STM32Cube_FW_F1_V1.8.5/Drivers/STM32F1xx_HAL_Driver/Src\stm32f1xx_hal_rcc_ex.c ****       break;
 514              		.loc 1 574 7 is_stmt 1 view .LVU164
 574:C:/Users/vasil/STM32Cube/Repository/STM32Cube_FW_F1_V1.8.5/Drivers/STM32F1xx_HAL_Driver/Src\stm32f1xx_hal_rcc_ex.c ****       break;
 515              		.loc 1 574 19 is_stmt 0 view .LVU165
 516 00a4 FFF7FEFF 		bl	HAL_RCC_GetPCLK2Freq
 517              	.LVL51:
 574:C:/Users/vasil/STM32Cube/Repository/STM32Cube_FW_F1_V1.8.5/Drivers/STM32F1xx_HAL_Driver/Src\stm32f1xx_hal_rcc_ex.c ****       break;
 518              		.loc 1 574 47 view .LVU166
 519 00a8 054B     		ldr	r3, .L40
 520 00aa 5B68     		ldr	r3, [r3, #4]
 574:C:/Users/vasil/STM32Cube/Repository/STM32Cube_FW_F1_V1.8.5/Drivers/STM32F1xx_HAL_Driver/Src\stm32f1xx_hal_rcc_ex.c ****       break;
 521              		.loc 1 574 74 view .LVU167
 522 00ac C3F38133 		ubfx	r3, r3, #14, #2
 574:C:/Users/vasil/STM32Cube/Repository/STM32Cube_FW_F1_V1.8.5/Drivers/STM32F1xx_HAL_Driver/Src\stm32f1xx_hal_rcc_ex.c ****       break;
 523              		.loc 1 574 98 view .LVU168
 524 00b0 0133     		adds	r3, r3, #1
 574:C:/Users/vasil/STM32Cube/Repository/STM32Cube_FW_F1_V1.8.5/Drivers/STM32F1xx_HAL_Driver/Src\stm32f1xx_hal_rcc_ex.c ****       break;
 525              		.loc 1 574 103 view .LVU169
 526 00b2 5B00     		lsls	r3, r3, #1
 574:C:/Users/vasil/STM32Cube/Repository/STM32Cube_FW_F1_V1.8.5/Drivers/STM32F1xx_HAL_Driver/Src\stm32f1xx_hal_rcc_ex.c ****       break;
 527              		.loc 1 574 17 view .LVU170
 528 00b4 B0FBF3F0 		udiv	r0, r0, r3
 529              	.LVL52:
 575:C:/Users/vasil/STM32Cube/Repository/STM32Cube_FW_F1_V1.8.5/Drivers/STM32F1xx_HAL_Driver/Src\stm32f1xx_hal_rcc_ex.c ****     }
 530              		.loc 1 575 7 is_stmt 1 view .LVU171
 531 00b8 AAE7     		b	.L25
 532              	.LVL53:
 533              	.L33:
 554:C:/Users/vasil/STM32Cube/Repository/STM32Cube_FW_F1_V1.8.5/Drivers/STM32F1xx_HAL_Driver/Src\stm32f1xx_hal_rcc_ex.c ****       }
 534              		.loc 1 554 19 is_stmt 0 view .LVU172
ARM GAS  C:\Users\vasil\AppData\Local\Temp\ccgBRBHP.s 			page 22


 535 00ba 4FF40040 		mov	r0, #32768
 536              	.LVL54:
 554:C:/Users/vasil/STM32Cube/Repository/STM32Cube_FW_F1_V1.8.5/Drivers/STM32F1xx_HAL_Driver/Src\stm32f1xx_hal_rcc_ex.c ****       }
 537              		.loc 1 554 19 view .LVU173
 538 00be A7E7     		b	.L25
 539              	.L41:
 540              		.align	2
 541              	.L40:
 542 00c0 00100240 		.word	1073876992
 543 00c4 00000000 		.word	.LANCHOR0
 544 00c8 00000000 		.word	.LANCHOR1
 545 00cc 00127A00 		.word	8000000
 546 00d0 ABAAAAAA 		.word	-1431655765
 547 00d4 00093D00 		.word	4000000
 548              		.cfi_endproc
 549              	.LFE67:
 551              		.section	.rodata.aPLLMULFactorTable.1,"a"
 552              		.align	2
 553              		.set	.LANCHOR0,. + 0
 556              	aPLLMULFactorTable.1:
 557 0000 02030405 		.ascii	"\002\003\004\005\006\007\010\011\012\013\014\015\016"
 557      06070809 
 557      0A0B0C0D 
 557      0E
 558 000d 0F1010   		.ascii	"\017\020\020"
 559              		.section	.rodata.aPredivFactorTable.0,"a"
 560              		.align	2
 561              		.set	.LANCHOR1,. + 0
 564              	aPredivFactorTable.0:
 565 0000 0102     		.ascii	"\001\002"
 566              		.text
 567              	.Letext0:
 568              		.file 2 "c:\\users\\vasil\\appdata\\roaming\\code\\user\\globalstorage\\bmd.stm32-for-vscode\\@xpa
 569              		.file 3 "c:\\users\\vasil\\appdata\\roaming\\code\\user\\globalstorage\\bmd.stm32-for-vscode\\@xpa
 570              		.file 4 "C:/Users/vasil/STM32Cube/Repository/STM32Cube_FW_F1_V1.8.5/Drivers/CMSIS/Device/ST/STM32F
 571              		.file 5 "C:/Users/vasil/STM32Cube/Repository/STM32Cube_FW_F1_V1.8.5/Drivers/CMSIS/Device/ST/STM32F
 572              		.file 6 "C:/Users/vasil/STM32Cube/Repository/STM32Cube_FW_F1_V1.8.5/Drivers/STM32F1xx_HAL_Driver/I
 573              		.file 7 "C:/Users/vasil/STM32Cube/Repository/STM32Cube_FW_F1_V1.8.5/Drivers/STM32F1xx_HAL_Driver/I
 574              		.file 8 "C:/Users/vasil/STM32Cube/Repository/STM32Cube_FW_F1_V1.8.5/Drivers/STM32F1xx_HAL_Driver/I
 575              		.file 9 "C:/Users/vasil/STM32Cube/Repository/STM32Cube_FW_F1_V1.8.5/Drivers/STM32F1xx_HAL_Driver/I
ARM GAS  C:\Users\vasil\AppData\Local\Temp\ccgBRBHP.s 			page 23

