ARM GAS  C:\Users\vasil\AppData\Local\Temp\ccc7WSuc.s 			page 1


   1              		.cpu cortex-m3
   2              		.arch armv7-m
   3              		.fpu softvfp
   4              		.eabi_attribute 20, 1
   5              		.eabi_attribute 21, 1
   6              		.eabi_attribute 23, 3
   7              		.eabi_attribute 24, 1
   8              		.eabi_attribute 25, 1
   9              		.eabi_attribute 26, 1
  10              		.eabi_attribute 30, 1
  11              		.eabi_attribute 34, 1
  12              		.eabi_attribute 18, 4
  13              		.file	"stm32f1xx_hal_gpio.c"
  14              		.text
  15              	.Ltext0:
  16              		.cfi_sections	.debug_frame
  17              		.section	.text.HAL_GPIO_Init,"ax",%progbits
  18              		.align	1
  19              		.global	HAL_GPIO_Init
  20              		.syntax unified
  21              		.thumb
  22              		.thumb_func
  24              	HAL_GPIO_Init:
  25              	.LVL0:
  26              	.LFB65:
  27              		.file 1 "C:/Users/vasil/STM32Cube/Repository/STM32Cube_FW_F1_V1.8.5/Drivers/STM32F1xx_HAL_Driver/S
   1:C:/Users/vasil/STM32Cube/Repository/STM32Cube_FW_F1_V1.8.5/Drivers/STM32F1xx_HAL_Driver/Src\stm32f1xx_hal_gpio.c **** /**
   2:C:/Users/vasil/STM32Cube/Repository/STM32Cube_FW_F1_V1.8.5/Drivers/STM32F1xx_HAL_Driver/Src\stm32f1xx_hal_gpio.c ****   ******************************************************************************
   3:C:/Users/vasil/STM32Cube/Repository/STM32Cube_FW_F1_V1.8.5/Drivers/STM32F1xx_HAL_Driver/Src\stm32f1xx_hal_gpio.c ****   * @file    stm32f1xx_hal_gpio.c
   4:C:/Users/vasil/STM32Cube/Repository/STM32Cube_FW_F1_V1.8.5/Drivers/STM32F1xx_HAL_Driver/Src\stm32f1xx_hal_gpio.c ****   * @author  MCD Application Team
   5:C:/Users/vasil/STM32Cube/Repository/STM32Cube_FW_F1_V1.8.5/Drivers/STM32F1xx_HAL_Driver/Src\stm32f1xx_hal_gpio.c ****   * @brief   GPIO HAL module driver.
   6:C:/Users/vasil/STM32Cube/Repository/STM32Cube_FW_F1_V1.8.5/Drivers/STM32F1xx_HAL_Driver/Src\stm32f1xx_hal_gpio.c ****   *          This file provides firmware functions to manage the following
   7:C:/Users/vasil/STM32Cube/Repository/STM32Cube_FW_F1_V1.8.5/Drivers/STM32F1xx_HAL_Driver/Src\stm32f1xx_hal_gpio.c ****   *          functionalities of the General Purpose Input/Output (GPIO) peripheral:
   8:C:/Users/vasil/STM32Cube/Repository/STM32Cube_FW_F1_V1.8.5/Drivers/STM32F1xx_HAL_Driver/Src\stm32f1xx_hal_gpio.c ****   *           + Initialization and de-initialization functions
   9:C:/Users/vasil/STM32Cube/Repository/STM32Cube_FW_F1_V1.8.5/Drivers/STM32F1xx_HAL_Driver/Src\stm32f1xx_hal_gpio.c ****   *           + IO operation functions
  10:C:/Users/vasil/STM32Cube/Repository/STM32Cube_FW_F1_V1.8.5/Drivers/STM32F1xx_HAL_Driver/Src\stm32f1xx_hal_gpio.c ****   *
  11:C:/Users/vasil/STM32Cube/Repository/STM32Cube_FW_F1_V1.8.5/Drivers/STM32F1xx_HAL_Driver/Src\stm32f1xx_hal_gpio.c ****   ******************************************************************************
  12:C:/Users/vasil/STM32Cube/Repository/STM32Cube_FW_F1_V1.8.5/Drivers/STM32F1xx_HAL_Driver/Src\stm32f1xx_hal_gpio.c ****   * @attention
  13:C:/Users/vasil/STM32Cube/Repository/STM32Cube_FW_F1_V1.8.5/Drivers/STM32F1xx_HAL_Driver/Src\stm32f1xx_hal_gpio.c ****   *
  14:C:/Users/vasil/STM32Cube/Repository/STM32Cube_FW_F1_V1.8.5/Drivers/STM32F1xx_HAL_Driver/Src\stm32f1xx_hal_gpio.c ****   * Copyright (c) 2016 STMicroelectronics.
  15:C:/Users/vasil/STM32Cube/Repository/STM32Cube_FW_F1_V1.8.5/Drivers/STM32F1xx_HAL_Driver/Src\stm32f1xx_hal_gpio.c ****   * All rights reserved.
  16:C:/Users/vasil/STM32Cube/Repository/STM32Cube_FW_F1_V1.8.5/Drivers/STM32F1xx_HAL_Driver/Src\stm32f1xx_hal_gpio.c ****   *
  17:C:/Users/vasil/STM32Cube/Repository/STM32Cube_FW_F1_V1.8.5/Drivers/STM32F1xx_HAL_Driver/Src\stm32f1xx_hal_gpio.c ****   * This software is licensed under terms that can be found in the LICENSE file
  18:C:/Users/vasil/STM32Cube/Repository/STM32Cube_FW_F1_V1.8.5/Drivers/STM32F1xx_HAL_Driver/Src\stm32f1xx_hal_gpio.c ****   * in the root directory of this software component.
  19:C:/Users/vasil/STM32Cube/Repository/STM32Cube_FW_F1_V1.8.5/Drivers/STM32F1xx_HAL_Driver/Src\stm32f1xx_hal_gpio.c ****   * If no LICENSE file comes with this software, it is provided AS-IS.
  20:C:/Users/vasil/STM32Cube/Repository/STM32Cube_FW_F1_V1.8.5/Drivers/STM32F1xx_HAL_Driver/Src\stm32f1xx_hal_gpio.c ****   *
  21:C:/Users/vasil/STM32Cube/Repository/STM32Cube_FW_F1_V1.8.5/Drivers/STM32F1xx_HAL_Driver/Src\stm32f1xx_hal_gpio.c ****   ******************************************************************************
  22:C:/Users/vasil/STM32Cube/Repository/STM32Cube_FW_F1_V1.8.5/Drivers/STM32F1xx_HAL_Driver/Src\stm32f1xx_hal_gpio.c ****   @verbatim
  23:C:/Users/vasil/STM32Cube/Repository/STM32Cube_FW_F1_V1.8.5/Drivers/STM32F1xx_HAL_Driver/Src\stm32f1xx_hal_gpio.c ****   ==============================================================================
  24:C:/Users/vasil/STM32Cube/Repository/STM32Cube_FW_F1_V1.8.5/Drivers/STM32F1xx_HAL_Driver/Src\stm32f1xx_hal_gpio.c ****                     ##### GPIO Peripheral features #####
  25:C:/Users/vasil/STM32Cube/Repository/STM32Cube_FW_F1_V1.8.5/Drivers/STM32F1xx_HAL_Driver/Src\stm32f1xx_hal_gpio.c ****   ==============================================================================
  26:C:/Users/vasil/STM32Cube/Repository/STM32Cube_FW_F1_V1.8.5/Drivers/STM32F1xx_HAL_Driver/Src\stm32f1xx_hal_gpio.c ****   [..]
  27:C:/Users/vasil/STM32Cube/Repository/STM32Cube_FW_F1_V1.8.5/Drivers/STM32F1xx_HAL_Driver/Src\stm32f1xx_hal_gpio.c ****   Subject to the specific hardware characteristics of each I/O port listed in the datasheet, each
  28:C:/Users/vasil/STM32Cube/Repository/STM32Cube_FW_F1_V1.8.5/Drivers/STM32F1xx_HAL_Driver/Src\stm32f1xx_hal_gpio.c ****   port bit of the General Purpose IO (GPIO) Ports, can be individually configured by software
  29:C:/Users/vasil/STM32Cube/Repository/STM32Cube_FW_F1_V1.8.5/Drivers/STM32F1xx_HAL_Driver/Src\stm32f1xx_hal_gpio.c ****   in several modes:
  30:C:/Users/vasil/STM32Cube/Repository/STM32Cube_FW_F1_V1.8.5/Drivers/STM32F1xx_HAL_Driver/Src\stm32f1xx_hal_gpio.c ****   (+) Input mode
  31:C:/Users/vasil/STM32Cube/Repository/STM32Cube_FW_F1_V1.8.5/Drivers/STM32F1xx_HAL_Driver/Src\stm32f1xx_hal_gpio.c ****   (+) Analog mode
ARM GAS  C:\Users\vasil\AppData\Local\Temp\ccc7WSuc.s 			page 2


  32:C:/Users/vasil/STM32Cube/Repository/STM32Cube_FW_F1_V1.8.5/Drivers/STM32F1xx_HAL_Driver/Src\stm32f1xx_hal_gpio.c ****   (+) Output mode
  33:C:/Users/vasil/STM32Cube/Repository/STM32Cube_FW_F1_V1.8.5/Drivers/STM32F1xx_HAL_Driver/Src\stm32f1xx_hal_gpio.c ****   (+) Alternate function mode
  34:C:/Users/vasil/STM32Cube/Repository/STM32Cube_FW_F1_V1.8.5/Drivers/STM32F1xx_HAL_Driver/Src\stm32f1xx_hal_gpio.c ****   (+) External interrupt/event lines
  35:C:/Users/vasil/STM32Cube/Repository/STM32Cube_FW_F1_V1.8.5/Drivers/STM32F1xx_HAL_Driver/Src\stm32f1xx_hal_gpio.c **** 
  36:C:/Users/vasil/STM32Cube/Repository/STM32Cube_FW_F1_V1.8.5/Drivers/STM32F1xx_HAL_Driver/Src\stm32f1xx_hal_gpio.c ****   [..]
  37:C:/Users/vasil/STM32Cube/Repository/STM32Cube_FW_F1_V1.8.5/Drivers/STM32F1xx_HAL_Driver/Src\stm32f1xx_hal_gpio.c ****   During and just after reset, the alternate functions and external interrupt
  38:C:/Users/vasil/STM32Cube/Repository/STM32Cube_FW_F1_V1.8.5/Drivers/STM32F1xx_HAL_Driver/Src\stm32f1xx_hal_gpio.c ****   lines are not active and the I/O ports are configured in input floating mode.
  39:C:/Users/vasil/STM32Cube/Repository/STM32Cube_FW_F1_V1.8.5/Drivers/STM32F1xx_HAL_Driver/Src\stm32f1xx_hal_gpio.c **** 
  40:C:/Users/vasil/STM32Cube/Repository/STM32Cube_FW_F1_V1.8.5/Drivers/STM32F1xx_HAL_Driver/Src\stm32f1xx_hal_gpio.c ****   [..]
  41:C:/Users/vasil/STM32Cube/Repository/STM32Cube_FW_F1_V1.8.5/Drivers/STM32F1xx_HAL_Driver/Src\stm32f1xx_hal_gpio.c ****   All GPIO pins have weak internal pull-up and pull-down resistors, which can be
  42:C:/Users/vasil/STM32Cube/Repository/STM32Cube_FW_F1_V1.8.5/Drivers/STM32F1xx_HAL_Driver/Src\stm32f1xx_hal_gpio.c ****   activated or not.
  43:C:/Users/vasil/STM32Cube/Repository/STM32Cube_FW_F1_V1.8.5/Drivers/STM32F1xx_HAL_Driver/Src\stm32f1xx_hal_gpio.c **** 
  44:C:/Users/vasil/STM32Cube/Repository/STM32Cube_FW_F1_V1.8.5/Drivers/STM32F1xx_HAL_Driver/Src\stm32f1xx_hal_gpio.c ****   [..]
  45:C:/Users/vasil/STM32Cube/Repository/STM32Cube_FW_F1_V1.8.5/Drivers/STM32F1xx_HAL_Driver/Src\stm32f1xx_hal_gpio.c ****   In Output or Alternate mode, each IO can be configured on open-drain or push-pull
  46:C:/Users/vasil/STM32Cube/Repository/STM32Cube_FW_F1_V1.8.5/Drivers/STM32F1xx_HAL_Driver/Src\stm32f1xx_hal_gpio.c ****   type and the IO speed can be selected depending on the VDD value.
  47:C:/Users/vasil/STM32Cube/Repository/STM32Cube_FW_F1_V1.8.5/Drivers/STM32F1xx_HAL_Driver/Src\stm32f1xx_hal_gpio.c **** 
  48:C:/Users/vasil/STM32Cube/Repository/STM32Cube_FW_F1_V1.8.5/Drivers/STM32F1xx_HAL_Driver/Src\stm32f1xx_hal_gpio.c ****   [..]
  49:C:/Users/vasil/STM32Cube/Repository/STM32Cube_FW_F1_V1.8.5/Drivers/STM32F1xx_HAL_Driver/Src\stm32f1xx_hal_gpio.c ****   All ports have external interrupt/event capability. To use external interrupt
  50:C:/Users/vasil/STM32Cube/Repository/STM32Cube_FW_F1_V1.8.5/Drivers/STM32F1xx_HAL_Driver/Src\stm32f1xx_hal_gpio.c ****   lines, the port must be configured in input mode. All available GPIO pins are
  51:C:/Users/vasil/STM32Cube/Repository/STM32Cube_FW_F1_V1.8.5/Drivers/STM32F1xx_HAL_Driver/Src\stm32f1xx_hal_gpio.c ****   connected to the 16 external interrupt/event lines from EXTI0 to EXTI15.
  52:C:/Users/vasil/STM32Cube/Repository/STM32Cube_FW_F1_V1.8.5/Drivers/STM32F1xx_HAL_Driver/Src\stm32f1xx_hal_gpio.c **** 
  53:C:/Users/vasil/STM32Cube/Repository/STM32Cube_FW_F1_V1.8.5/Drivers/STM32F1xx_HAL_Driver/Src\stm32f1xx_hal_gpio.c ****   [..]
  54:C:/Users/vasil/STM32Cube/Repository/STM32Cube_FW_F1_V1.8.5/Drivers/STM32F1xx_HAL_Driver/Src\stm32f1xx_hal_gpio.c ****   The external interrupt/event controller consists of up to 20 edge detectors in connectivity
  55:C:/Users/vasil/STM32Cube/Repository/STM32Cube_FW_F1_V1.8.5/Drivers/STM32F1xx_HAL_Driver/Src\stm32f1xx_hal_gpio.c ****   line devices, or 19 edge detectors in other devices for generating event/interrupt requests.
  56:C:/Users/vasil/STM32Cube/Repository/STM32Cube_FW_F1_V1.8.5/Drivers/STM32F1xx_HAL_Driver/Src\stm32f1xx_hal_gpio.c ****   Each input line can be independently configured to select the type (event or interrupt) and
  57:C:/Users/vasil/STM32Cube/Repository/STM32Cube_FW_F1_V1.8.5/Drivers/STM32F1xx_HAL_Driver/Src\stm32f1xx_hal_gpio.c ****   the corresponding trigger event (rising or falling or both). Each line can also masked
  58:C:/Users/vasil/STM32Cube/Repository/STM32Cube_FW_F1_V1.8.5/Drivers/STM32F1xx_HAL_Driver/Src\stm32f1xx_hal_gpio.c ****   independently. A pending register maintains the status line of the interrupt requests
  59:C:/Users/vasil/STM32Cube/Repository/STM32Cube_FW_F1_V1.8.5/Drivers/STM32F1xx_HAL_Driver/Src\stm32f1xx_hal_gpio.c **** 
  60:C:/Users/vasil/STM32Cube/Repository/STM32Cube_FW_F1_V1.8.5/Drivers/STM32F1xx_HAL_Driver/Src\stm32f1xx_hal_gpio.c ****                      ##### How to use this driver #####
  61:C:/Users/vasil/STM32Cube/Repository/STM32Cube_FW_F1_V1.8.5/Drivers/STM32F1xx_HAL_Driver/Src\stm32f1xx_hal_gpio.c ****   ==============================================================================
  62:C:/Users/vasil/STM32Cube/Repository/STM32Cube_FW_F1_V1.8.5/Drivers/STM32F1xx_HAL_Driver/Src\stm32f1xx_hal_gpio.c ****  [..]
  63:C:/Users/vasil/STM32Cube/Repository/STM32Cube_FW_F1_V1.8.5/Drivers/STM32F1xx_HAL_Driver/Src\stm32f1xx_hal_gpio.c ****    (#) Enable the GPIO APB2 clock using the following function : __HAL_RCC_GPIOx_CLK_ENABLE().
  64:C:/Users/vasil/STM32Cube/Repository/STM32Cube_FW_F1_V1.8.5/Drivers/STM32F1xx_HAL_Driver/Src\stm32f1xx_hal_gpio.c **** 
  65:C:/Users/vasil/STM32Cube/Repository/STM32Cube_FW_F1_V1.8.5/Drivers/STM32F1xx_HAL_Driver/Src\stm32f1xx_hal_gpio.c ****    (#) Configure the GPIO pin(s) using HAL_GPIO_Init().
  66:C:/Users/vasil/STM32Cube/Repository/STM32Cube_FW_F1_V1.8.5/Drivers/STM32F1xx_HAL_Driver/Src\stm32f1xx_hal_gpio.c ****        (++) Configure the IO mode using "Mode" member from GPIO_InitTypeDef structure
  67:C:/Users/vasil/STM32Cube/Repository/STM32Cube_FW_F1_V1.8.5/Drivers/STM32F1xx_HAL_Driver/Src\stm32f1xx_hal_gpio.c ****        (++) Activate Pull-up, Pull-down resistor using "Pull" member from GPIO_InitTypeDef
  68:C:/Users/vasil/STM32Cube/Repository/STM32Cube_FW_F1_V1.8.5/Drivers/STM32F1xx_HAL_Driver/Src\stm32f1xx_hal_gpio.c ****             structure.
  69:C:/Users/vasil/STM32Cube/Repository/STM32Cube_FW_F1_V1.8.5/Drivers/STM32F1xx_HAL_Driver/Src\stm32f1xx_hal_gpio.c ****        (++) In case of Output or alternate function mode selection: the speed is
  70:C:/Users/vasil/STM32Cube/Repository/STM32Cube_FW_F1_V1.8.5/Drivers/STM32F1xx_HAL_Driver/Src\stm32f1xx_hal_gpio.c ****             configured through "Speed" member from GPIO_InitTypeDef structure
  71:C:/Users/vasil/STM32Cube/Repository/STM32Cube_FW_F1_V1.8.5/Drivers/STM32F1xx_HAL_Driver/Src\stm32f1xx_hal_gpio.c ****        (++) Analog mode is required when a pin is to be used as ADC channel
  72:C:/Users/vasil/STM32Cube/Repository/STM32Cube_FW_F1_V1.8.5/Drivers/STM32F1xx_HAL_Driver/Src\stm32f1xx_hal_gpio.c ****             or DAC output.
  73:C:/Users/vasil/STM32Cube/Repository/STM32Cube_FW_F1_V1.8.5/Drivers/STM32F1xx_HAL_Driver/Src\stm32f1xx_hal_gpio.c ****        (++) In case of external interrupt/event selection the "Mode" member from
  74:C:/Users/vasil/STM32Cube/Repository/STM32Cube_FW_F1_V1.8.5/Drivers/STM32F1xx_HAL_Driver/Src\stm32f1xx_hal_gpio.c ****             GPIO_InitTypeDef structure select the type (interrupt or event) and
  75:C:/Users/vasil/STM32Cube/Repository/STM32Cube_FW_F1_V1.8.5/Drivers/STM32F1xx_HAL_Driver/Src\stm32f1xx_hal_gpio.c ****             the corresponding trigger event (rising or falling or both).
  76:C:/Users/vasil/STM32Cube/Repository/STM32Cube_FW_F1_V1.8.5/Drivers/STM32F1xx_HAL_Driver/Src\stm32f1xx_hal_gpio.c **** 
  77:C:/Users/vasil/STM32Cube/Repository/STM32Cube_FW_F1_V1.8.5/Drivers/STM32F1xx_HAL_Driver/Src\stm32f1xx_hal_gpio.c ****    (#) In case of external interrupt/event mode selection, configure NVIC IRQ priority
  78:C:/Users/vasil/STM32Cube/Repository/STM32Cube_FW_F1_V1.8.5/Drivers/STM32F1xx_HAL_Driver/Src\stm32f1xx_hal_gpio.c ****        mapped to the EXTI line using HAL_NVIC_SetPriority() and enable it using
  79:C:/Users/vasil/STM32Cube/Repository/STM32Cube_FW_F1_V1.8.5/Drivers/STM32F1xx_HAL_Driver/Src\stm32f1xx_hal_gpio.c ****        HAL_NVIC_EnableIRQ().
  80:C:/Users/vasil/STM32Cube/Repository/STM32Cube_FW_F1_V1.8.5/Drivers/STM32F1xx_HAL_Driver/Src\stm32f1xx_hal_gpio.c **** 
  81:C:/Users/vasil/STM32Cube/Repository/STM32Cube_FW_F1_V1.8.5/Drivers/STM32F1xx_HAL_Driver/Src\stm32f1xx_hal_gpio.c ****    (#) To get the level of a pin configured in input mode use HAL_GPIO_ReadPin().
  82:C:/Users/vasil/STM32Cube/Repository/STM32Cube_FW_F1_V1.8.5/Drivers/STM32F1xx_HAL_Driver/Src\stm32f1xx_hal_gpio.c **** 
  83:C:/Users/vasil/STM32Cube/Repository/STM32Cube_FW_F1_V1.8.5/Drivers/STM32F1xx_HAL_Driver/Src\stm32f1xx_hal_gpio.c ****    (#) To set/reset the level of a pin configured in output mode use
  84:C:/Users/vasil/STM32Cube/Repository/STM32Cube_FW_F1_V1.8.5/Drivers/STM32F1xx_HAL_Driver/Src\stm32f1xx_hal_gpio.c ****        HAL_GPIO_WritePin()/HAL_GPIO_TogglePin().
  85:C:/Users/vasil/STM32Cube/Repository/STM32Cube_FW_F1_V1.8.5/Drivers/STM32F1xx_HAL_Driver/Src\stm32f1xx_hal_gpio.c **** 
  86:C:/Users/vasil/STM32Cube/Repository/STM32Cube_FW_F1_V1.8.5/Drivers/STM32F1xx_HAL_Driver/Src\stm32f1xx_hal_gpio.c ****    (#) To lock pin configuration until next reset use HAL_GPIO_LockPin().
  87:C:/Users/vasil/STM32Cube/Repository/STM32Cube_FW_F1_V1.8.5/Drivers/STM32F1xx_HAL_Driver/Src\stm32f1xx_hal_gpio.c **** 
  88:C:/Users/vasil/STM32Cube/Repository/STM32Cube_FW_F1_V1.8.5/Drivers/STM32F1xx_HAL_Driver/Src\stm32f1xx_hal_gpio.c ****    (#) During and just after reset, the alternate functions are not
ARM GAS  C:\Users\vasil\AppData\Local\Temp\ccc7WSuc.s 			page 3


  89:C:/Users/vasil/STM32Cube/Repository/STM32Cube_FW_F1_V1.8.5/Drivers/STM32F1xx_HAL_Driver/Src\stm32f1xx_hal_gpio.c ****        active and the GPIO pins are configured in input floating mode (except JTAG
  90:C:/Users/vasil/STM32Cube/Repository/STM32Cube_FW_F1_V1.8.5/Drivers/STM32F1xx_HAL_Driver/Src\stm32f1xx_hal_gpio.c ****        pins).
  91:C:/Users/vasil/STM32Cube/Repository/STM32Cube_FW_F1_V1.8.5/Drivers/STM32F1xx_HAL_Driver/Src\stm32f1xx_hal_gpio.c **** 
  92:C:/Users/vasil/STM32Cube/Repository/STM32Cube_FW_F1_V1.8.5/Drivers/STM32F1xx_HAL_Driver/Src\stm32f1xx_hal_gpio.c ****    (#) The LSE oscillator pins OSC32_IN and OSC32_OUT can be used as general purpose
  93:C:/Users/vasil/STM32Cube/Repository/STM32Cube_FW_F1_V1.8.5/Drivers/STM32F1xx_HAL_Driver/Src\stm32f1xx_hal_gpio.c ****        (PC14 and PC15, respectively) when the LSE oscillator is off. The LSE has
  94:C:/Users/vasil/STM32Cube/Repository/STM32Cube_FW_F1_V1.8.5/Drivers/STM32F1xx_HAL_Driver/Src\stm32f1xx_hal_gpio.c ****        priority over the GPIO function.
  95:C:/Users/vasil/STM32Cube/Repository/STM32Cube_FW_F1_V1.8.5/Drivers/STM32F1xx_HAL_Driver/Src\stm32f1xx_hal_gpio.c **** 
  96:C:/Users/vasil/STM32Cube/Repository/STM32Cube_FW_F1_V1.8.5/Drivers/STM32F1xx_HAL_Driver/Src\stm32f1xx_hal_gpio.c ****    (#) The HSE oscillator pins OSC_IN/OSC_OUT can be used as
  97:C:/Users/vasil/STM32Cube/Repository/STM32Cube_FW_F1_V1.8.5/Drivers/STM32F1xx_HAL_Driver/Src\stm32f1xx_hal_gpio.c ****        general purpose PD0 and PD1, respectively, when the HSE oscillator is off.
  98:C:/Users/vasil/STM32Cube/Repository/STM32Cube_FW_F1_V1.8.5/Drivers/STM32F1xx_HAL_Driver/Src\stm32f1xx_hal_gpio.c ****        The HSE has priority over the GPIO function.
  99:C:/Users/vasil/STM32Cube/Repository/STM32Cube_FW_F1_V1.8.5/Drivers/STM32F1xx_HAL_Driver/Src\stm32f1xx_hal_gpio.c **** 
 100:C:/Users/vasil/STM32Cube/Repository/STM32Cube_FW_F1_V1.8.5/Drivers/STM32F1xx_HAL_Driver/Src\stm32f1xx_hal_gpio.c ****   @endverbatim
 101:C:/Users/vasil/STM32Cube/Repository/STM32Cube_FW_F1_V1.8.5/Drivers/STM32F1xx_HAL_Driver/Src\stm32f1xx_hal_gpio.c ****   ******************************************************************************
 102:C:/Users/vasil/STM32Cube/Repository/STM32Cube_FW_F1_V1.8.5/Drivers/STM32F1xx_HAL_Driver/Src\stm32f1xx_hal_gpio.c ****   */
 103:C:/Users/vasil/STM32Cube/Repository/STM32Cube_FW_F1_V1.8.5/Drivers/STM32F1xx_HAL_Driver/Src\stm32f1xx_hal_gpio.c **** 
 104:C:/Users/vasil/STM32Cube/Repository/STM32Cube_FW_F1_V1.8.5/Drivers/STM32F1xx_HAL_Driver/Src\stm32f1xx_hal_gpio.c **** /* Includes ------------------------------------------------------------------*/
 105:C:/Users/vasil/STM32Cube/Repository/STM32Cube_FW_F1_V1.8.5/Drivers/STM32F1xx_HAL_Driver/Src\stm32f1xx_hal_gpio.c **** #include "stm32f1xx_hal.h"
 106:C:/Users/vasil/STM32Cube/Repository/STM32Cube_FW_F1_V1.8.5/Drivers/STM32F1xx_HAL_Driver/Src\stm32f1xx_hal_gpio.c **** 
 107:C:/Users/vasil/STM32Cube/Repository/STM32Cube_FW_F1_V1.8.5/Drivers/STM32F1xx_HAL_Driver/Src\stm32f1xx_hal_gpio.c **** /** @addtogroup STM32F1xx_HAL_Driver
 108:C:/Users/vasil/STM32Cube/Repository/STM32Cube_FW_F1_V1.8.5/Drivers/STM32F1xx_HAL_Driver/Src\stm32f1xx_hal_gpio.c ****   * @{
 109:C:/Users/vasil/STM32Cube/Repository/STM32Cube_FW_F1_V1.8.5/Drivers/STM32F1xx_HAL_Driver/Src\stm32f1xx_hal_gpio.c ****   */
 110:C:/Users/vasil/STM32Cube/Repository/STM32Cube_FW_F1_V1.8.5/Drivers/STM32F1xx_HAL_Driver/Src\stm32f1xx_hal_gpio.c **** 
 111:C:/Users/vasil/STM32Cube/Repository/STM32Cube_FW_F1_V1.8.5/Drivers/STM32F1xx_HAL_Driver/Src\stm32f1xx_hal_gpio.c **** /** @defgroup GPIO GPIO
 112:C:/Users/vasil/STM32Cube/Repository/STM32Cube_FW_F1_V1.8.5/Drivers/STM32F1xx_HAL_Driver/Src\stm32f1xx_hal_gpio.c ****   * @brief GPIO HAL module driver
 113:C:/Users/vasil/STM32Cube/Repository/STM32Cube_FW_F1_V1.8.5/Drivers/STM32F1xx_HAL_Driver/Src\stm32f1xx_hal_gpio.c ****   * @{
 114:C:/Users/vasil/STM32Cube/Repository/STM32Cube_FW_F1_V1.8.5/Drivers/STM32F1xx_HAL_Driver/Src\stm32f1xx_hal_gpio.c ****   */
 115:C:/Users/vasil/STM32Cube/Repository/STM32Cube_FW_F1_V1.8.5/Drivers/STM32F1xx_HAL_Driver/Src\stm32f1xx_hal_gpio.c **** 
 116:C:/Users/vasil/STM32Cube/Repository/STM32Cube_FW_F1_V1.8.5/Drivers/STM32F1xx_HAL_Driver/Src\stm32f1xx_hal_gpio.c **** #ifdef HAL_GPIO_MODULE_ENABLED
 117:C:/Users/vasil/STM32Cube/Repository/STM32Cube_FW_F1_V1.8.5/Drivers/STM32F1xx_HAL_Driver/Src\stm32f1xx_hal_gpio.c **** 
 118:C:/Users/vasil/STM32Cube/Repository/STM32Cube_FW_F1_V1.8.5/Drivers/STM32F1xx_HAL_Driver/Src\stm32f1xx_hal_gpio.c **** /* Private typedef -----------------------------------------------------------*/
 119:C:/Users/vasil/STM32Cube/Repository/STM32Cube_FW_F1_V1.8.5/Drivers/STM32F1xx_HAL_Driver/Src\stm32f1xx_hal_gpio.c **** /* Private define ------------------------------------------------------------*/
 120:C:/Users/vasil/STM32Cube/Repository/STM32Cube_FW_F1_V1.8.5/Drivers/STM32F1xx_HAL_Driver/Src\stm32f1xx_hal_gpio.c **** /** @addtogroup GPIO_Private_Constants GPIO Private Constants
 121:C:/Users/vasil/STM32Cube/Repository/STM32Cube_FW_F1_V1.8.5/Drivers/STM32F1xx_HAL_Driver/Src\stm32f1xx_hal_gpio.c ****   * @{
 122:C:/Users/vasil/STM32Cube/Repository/STM32Cube_FW_F1_V1.8.5/Drivers/STM32F1xx_HAL_Driver/Src\stm32f1xx_hal_gpio.c ****   */
 123:C:/Users/vasil/STM32Cube/Repository/STM32Cube_FW_F1_V1.8.5/Drivers/STM32F1xx_HAL_Driver/Src\stm32f1xx_hal_gpio.c **** #define GPIO_MODE             0x00000003u
 124:C:/Users/vasil/STM32Cube/Repository/STM32Cube_FW_F1_V1.8.5/Drivers/STM32F1xx_HAL_Driver/Src\stm32f1xx_hal_gpio.c **** #define EXTI_MODE             0x10000000u
 125:C:/Users/vasil/STM32Cube/Repository/STM32Cube_FW_F1_V1.8.5/Drivers/STM32F1xx_HAL_Driver/Src\stm32f1xx_hal_gpio.c **** #define GPIO_MODE_IT          0x00010000u
 126:C:/Users/vasil/STM32Cube/Repository/STM32Cube_FW_F1_V1.8.5/Drivers/STM32F1xx_HAL_Driver/Src\stm32f1xx_hal_gpio.c **** #define GPIO_MODE_EVT         0x00020000u
 127:C:/Users/vasil/STM32Cube/Repository/STM32Cube_FW_F1_V1.8.5/Drivers/STM32F1xx_HAL_Driver/Src\stm32f1xx_hal_gpio.c **** #define RISING_EDGE           0x00100000u
 128:C:/Users/vasil/STM32Cube/Repository/STM32Cube_FW_F1_V1.8.5/Drivers/STM32F1xx_HAL_Driver/Src\stm32f1xx_hal_gpio.c **** #define FALLING_EDGE          0x00200000u
 129:C:/Users/vasil/STM32Cube/Repository/STM32Cube_FW_F1_V1.8.5/Drivers/STM32F1xx_HAL_Driver/Src\stm32f1xx_hal_gpio.c **** #define GPIO_OUTPUT_TYPE      0x00000010u
 130:C:/Users/vasil/STM32Cube/Repository/STM32Cube_FW_F1_V1.8.5/Drivers/STM32F1xx_HAL_Driver/Src\stm32f1xx_hal_gpio.c **** 
 131:C:/Users/vasil/STM32Cube/Repository/STM32Cube_FW_F1_V1.8.5/Drivers/STM32F1xx_HAL_Driver/Src\stm32f1xx_hal_gpio.c **** #define GPIO_NUMBER           16u
 132:C:/Users/vasil/STM32Cube/Repository/STM32Cube_FW_F1_V1.8.5/Drivers/STM32F1xx_HAL_Driver/Src\stm32f1xx_hal_gpio.c **** 
 133:C:/Users/vasil/STM32Cube/Repository/STM32Cube_FW_F1_V1.8.5/Drivers/STM32F1xx_HAL_Driver/Src\stm32f1xx_hal_gpio.c **** /* Definitions for bit manipulation of CRL and CRH register */
 134:C:/Users/vasil/STM32Cube/Repository/STM32Cube_FW_F1_V1.8.5/Drivers/STM32F1xx_HAL_Driver/Src\stm32f1xx_hal_gpio.c **** #define  GPIO_CR_MODE_INPUT         0x00000000u /*!< 00: Input mode (reset state)  */
 135:C:/Users/vasil/STM32Cube/Repository/STM32Cube_FW_F1_V1.8.5/Drivers/STM32F1xx_HAL_Driver/Src\stm32f1xx_hal_gpio.c **** #define  GPIO_CR_CNF_ANALOG         0x00000000u /*!< 00: Analog mode  */
 136:C:/Users/vasil/STM32Cube/Repository/STM32Cube_FW_F1_V1.8.5/Drivers/STM32F1xx_HAL_Driver/Src\stm32f1xx_hal_gpio.c **** #define  GPIO_CR_CNF_INPUT_FLOATING 0x00000004u /*!< 01: Floating input (reset state)  */
 137:C:/Users/vasil/STM32Cube/Repository/STM32Cube_FW_F1_V1.8.5/Drivers/STM32F1xx_HAL_Driver/Src\stm32f1xx_hal_gpio.c **** #define  GPIO_CR_CNF_INPUT_PU_PD    0x00000008u /*!< 10: Input with pull-up / pull-down  */
 138:C:/Users/vasil/STM32Cube/Repository/STM32Cube_FW_F1_V1.8.5/Drivers/STM32F1xx_HAL_Driver/Src\stm32f1xx_hal_gpio.c **** #define  GPIO_CR_CNF_GP_OUTPUT_PP   0x00000000u /*!< 00: General purpose output push-pull  */
 139:C:/Users/vasil/STM32Cube/Repository/STM32Cube_FW_F1_V1.8.5/Drivers/STM32F1xx_HAL_Driver/Src\stm32f1xx_hal_gpio.c **** #define  GPIO_CR_CNF_GP_OUTPUT_OD   0x00000004u /*!< 01: General purpose output Open-drain  */
 140:C:/Users/vasil/STM32Cube/Repository/STM32Cube_FW_F1_V1.8.5/Drivers/STM32F1xx_HAL_Driver/Src\stm32f1xx_hal_gpio.c **** #define  GPIO_CR_CNF_AF_OUTPUT_PP   0x00000008u /*!< 10: Alternate function output Push-pull  */
 141:C:/Users/vasil/STM32Cube/Repository/STM32Cube_FW_F1_V1.8.5/Drivers/STM32F1xx_HAL_Driver/Src\stm32f1xx_hal_gpio.c **** #define  GPIO_CR_CNF_AF_OUTPUT_OD   0x0000000Cu /*!< 11: Alternate function output Open-drain  */
 142:C:/Users/vasil/STM32Cube/Repository/STM32Cube_FW_F1_V1.8.5/Drivers/STM32F1xx_HAL_Driver/Src\stm32f1xx_hal_gpio.c **** 
 143:C:/Users/vasil/STM32Cube/Repository/STM32Cube_FW_F1_V1.8.5/Drivers/STM32F1xx_HAL_Driver/Src\stm32f1xx_hal_gpio.c **** /**
 144:C:/Users/vasil/STM32Cube/Repository/STM32Cube_FW_F1_V1.8.5/Drivers/STM32F1xx_HAL_Driver/Src\stm32f1xx_hal_gpio.c ****   * @}
 145:C:/Users/vasil/STM32Cube/Repository/STM32Cube_FW_F1_V1.8.5/Drivers/STM32F1xx_HAL_Driver/Src\stm32f1xx_hal_gpio.c ****   */
ARM GAS  C:\Users\vasil\AppData\Local\Temp\ccc7WSuc.s 			page 4


 146:C:/Users/vasil/STM32Cube/Repository/STM32Cube_FW_F1_V1.8.5/Drivers/STM32F1xx_HAL_Driver/Src\stm32f1xx_hal_gpio.c **** /* Private macro -------------------------------------------------------------*/
 147:C:/Users/vasil/STM32Cube/Repository/STM32Cube_FW_F1_V1.8.5/Drivers/STM32F1xx_HAL_Driver/Src\stm32f1xx_hal_gpio.c **** /* Private variables ---------------------------------------------------------*/
 148:C:/Users/vasil/STM32Cube/Repository/STM32Cube_FW_F1_V1.8.5/Drivers/STM32F1xx_HAL_Driver/Src\stm32f1xx_hal_gpio.c **** /* Private function prototypes -----------------------------------------------*/
 149:C:/Users/vasil/STM32Cube/Repository/STM32Cube_FW_F1_V1.8.5/Drivers/STM32F1xx_HAL_Driver/Src\stm32f1xx_hal_gpio.c **** /* Private functions ---------------------------------------------------------*/
 150:C:/Users/vasil/STM32Cube/Repository/STM32Cube_FW_F1_V1.8.5/Drivers/STM32F1xx_HAL_Driver/Src\stm32f1xx_hal_gpio.c **** /* Exported functions --------------------------------------------------------*/
 151:C:/Users/vasil/STM32Cube/Repository/STM32Cube_FW_F1_V1.8.5/Drivers/STM32F1xx_HAL_Driver/Src\stm32f1xx_hal_gpio.c **** /** @defgroup GPIO_Exported_Functions GPIO Exported Functions
 152:C:/Users/vasil/STM32Cube/Repository/STM32Cube_FW_F1_V1.8.5/Drivers/STM32F1xx_HAL_Driver/Src\stm32f1xx_hal_gpio.c ****   * @{
 153:C:/Users/vasil/STM32Cube/Repository/STM32Cube_FW_F1_V1.8.5/Drivers/STM32F1xx_HAL_Driver/Src\stm32f1xx_hal_gpio.c ****   */
 154:C:/Users/vasil/STM32Cube/Repository/STM32Cube_FW_F1_V1.8.5/Drivers/STM32F1xx_HAL_Driver/Src\stm32f1xx_hal_gpio.c **** 
 155:C:/Users/vasil/STM32Cube/Repository/STM32Cube_FW_F1_V1.8.5/Drivers/STM32F1xx_HAL_Driver/Src\stm32f1xx_hal_gpio.c **** /** @defgroup GPIO_Exported_Functions_Group1 Initialization and de-initialization functions
 156:C:/Users/vasil/STM32Cube/Repository/STM32Cube_FW_F1_V1.8.5/Drivers/STM32F1xx_HAL_Driver/Src\stm32f1xx_hal_gpio.c ****  *  @brief    Initialization and Configuration functions
 157:C:/Users/vasil/STM32Cube/Repository/STM32Cube_FW_F1_V1.8.5/Drivers/STM32F1xx_HAL_Driver/Src\stm32f1xx_hal_gpio.c ****  *
 158:C:/Users/vasil/STM32Cube/Repository/STM32Cube_FW_F1_V1.8.5/Drivers/STM32F1xx_HAL_Driver/Src\stm32f1xx_hal_gpio.c **** @verbatim
 159:C:/Users/vasil/STM32Cube/Repository/STM32Cube_FW_F1_V1.8.5/Drivers/STM32F1xx_HAL_Driver/Src\stm32f1xx_hal_gpio.c ****  ===============================================================================
 160:C:/Users/vasil/STM32Cube/Repository/STM32Cube_FW_F1_V1.8.5/Drivers/STM32F1xx_HAL_Driver/Src\stm32f1xx_hal_gpio.c ****               ##### Initialization and de-initialization functions #####
 161:C:/Users/vasil/STM32Cube/Repository/STM32Cube_FW_F1_V1.8.5/Drivers/STM32F1xx_HAL_Driver/Src\stm32f1xx_hal_gpio.c ****  ===============================================================================
 162:C:/Users/vasil/STM32Cube/Repository/STM32Cube_FW_F1_V1.8.5/Drivers/STM32F1xx_HAL_Driver/Src\stm32f1xx_hal_gpio.c ****   [..]
 163:C:/Users/vasil/STM32Cube/Repository/STM32Cube_FW_F1_V1.8.5/Drivers/STM32F1xx_HAL_Driver/Src\stm32f1xx_hal_gpio.c ****     This section provides functions allowing to initialize and de-initialize the GPIOs
 164:C:/Users/vasil/STM32Cube/Repository/STM32Cube_FW_F1_V1.8.5/Drivers/STM32F1xx_HAL_Driver/Src\stm32f1xx_hal_gpio.c ****     to be ready for use.
 165:C:/Users/vasil/STM32Cube/Repository/STM32Cube_FW_F1_V1.8.5/Drivers/STM32F1xx_HAL_Driver/Src\stm32f1xx_hal_gpio.c **** 
 166:C:/Users/vasil/STM32Cube/Repository/STM32Cube_FW_F1_V1.8.5/Drivers/STM32F1xx_HAL_Driver/Src\stm32f1xx_hal_gpio.c **** @endverbatim
 167:C:/Users/vasil/STM32Cube/Repository/STM32Cube_FW_F1_V1.8.5/Drivers/STM32F1xx_HAL_Driver/Src\stm32f1xx_hal_gpio.c ****   * @{
 168:C:/Users/vasil/STM32Cube/Repository/STM32Cube_FW_F1_V1.8.5/Drivers/STM32F1xx_HAL_Driver/Src\stm32f1xx_hal_gpio.c ****   */
 169:C:/Users/vasil/STM32Cube/Repository/STM32Cube_FW_F1_V1.8.5/Drivers/STM32F1xx_HAL_Driver/Src\stm32f1xx_hal_gpio.c **** 
 170:C:/Users/vasil/STM32Cube/Repository/STM32Cube_FW_F1_V1.8.5/Drivers/STM32F1xx_HAL_Driver/Src\stm32f1xx_hal_gpio.c **** 
 171:C:/Users/vasil/STM32Cube/Repository/STM32Cube_FW_F1_V1.8.5/Drivers/STM32F1xx_HAL_Driver/Src\stm32f1xx_hal_gpio.c **** /**
 172:C:/Users/vasil/STM32Cube/Repository/STM32Cube_FW_F1_V1.8.5/Drivers/STM32F1xx_HAL_Driver/Src\stm32f1xx_hal_gpio.c ****   * @brief  Initializes the GPIOx peripheral according to the specified parameters in the GPIO_Init
 173:C:/Users/vasil/STM32Cube/Repository/STM32Cube_FW_F1_V1.8.5/Drivers/STM32F1xx_HAL_Driver/Src\stm32f1xx_hal_gpio.c ****   * @param  GPIOx: where x can be (A..G depending on device used) to select the GPIO peripheral
 174:C:/Users/vasil/STM32Cube/Repository/STM32Cube_FW_F1_V1.8.5/Drivers/STM32F1xx_HAL_Driver/Src\stm32f1xx_hal_gpio.c ****   * @param  GPIO_Init: pointer to a GPIO_InitTypeDef structure that contains
 175:C:/Users/vasil/STM32Cube/Repository/STM32Cube_FW_F1_V1.8.5/Drivers/STM32F1xx_HAL_Driver/Src\stm32f1xx_hal_gpio.c ****   *         the configuration information for the specified GPIO peripheral.
 176:C:/Users/vasil/STM32Cube/Repository/STM32Cube_FW_F1_V1.8.5/Drivers/STM32F1xx_HAL_Driver/Src\stm32f1xx_hal_gpio.c ****   * @retval None
 177:C:/Users/vasil/STM32Cube/Repository/STM32Cube_FW_F1_V1.8.5/Drivers/STM32F1xx_HAL_Driver/Src\stm32f1xx_hal_gpio.c ****   */
 178:C:/Users/vasil/STM32Cube/Repository/STM32Cube_FW_F1_V1.8.5/Drivers/STM32F1xx_HAL_Driver/Src\stm32f1xx_hal_gpio.c **** void HAL_GPIO_Init(GPIO_TypeDef  *GPIOx, GPIO_InitTypeDef *GPIO_Init)
 179:C:/Users/vasil/STM32Cube/Repository/STM32Cube_FW_F1_V1.8.5/Drivers/STM32F1xx_HAL_Driver/Src\stm32f1xx_hal_gpio.c **** {
  28              		.loc 1 179 1 view -0
  29              		.cfi_startproc
  30              		@ args = 0, pretend = 0, frame = 8
  31              		@ frame_needed = 0, uses_anonymous_args = 0
  32              		.loc 1 179 1 is_stmt 0 view .LVU1
  33 0000 70B5     		push	{r4, r5, r6, lr}
  34              		.cfi_def_cfa_offset 16
  35              		.cfi_offset 4, -16
  36              		.cfi_offset 5, -12
  37              		.cfi_offset 6, -8
  38              		.cfi_offset 14, -4
  39 0002 82B0     		sub	sp, sp, #8
  40              		.cfi_def_cfa_offset 24
 180:C:/Users/vasil/STM32Cube/Repository/STM32Cube_FW_F1_V1.8.5/Drivers/STM32F1xx_HAL_Driver/Src\stm32f1xx_hal_gpio.c ****   uint32_t position = 0x00u;
  41              		.loc 1 180 3 is_stmt 1 view .LVU2
  42              	.LVL1:
 181:C:/Users/vasil/STM32Cube/Repository/STM32Cube_FW_F1_V1.8.5/Drivers/STM32F1xx_HAL_Driver/Src\stm32f1xx_hal_gpio.c ****   uint32_t ioposition;
  43              		.loc 1 181 3 view .LVU3
 182:C:/Users/vasil/STM32Cube/Repository/STM32Cube_FW_F1_V1.8.5/Drivers/STM32F1xx_HAL_Driver/Src\stm32f1xx_hal_gpio.c ****   uint32_t iocurrent;
  44              		.loc 1 182 3 view .LVU4
 183:C:/Users/vasil/STM32Cube/Repository/STM32Cube_FW_F1_V1.8.5/Drivers/STM32F1xx_HAL_Driver/Src\stm32f1xx_hal_gpio.c ****   uint32_t temp;
  45              		.loc 1 183 3 view .LVU5
 184:C:/Users/vasil/STM32Cube/Repository/STM32Cube_FW_F1_V1.8.5/Drivers/STM32F1xx_HAL_Driver/Src\stm32f1xx_hal_gpio.c ****   uint32_t config = 0x00u;
ARM GAS  C:\Users\vasil\AppData\Local\Temp\ccc7WSuc.s 			page 5


  46              		.loc 1 184 3 view .LVU6
 185:C:/Users/vasil/STM32Cube/Repository/STM32Cube_FW_F1_V1.8.5/Drivers/STM32F1xx_HAL_Driver/Src\stm32f1xx_hal_gpio.c ****   __IO uint32_t *configregister; /* Store the address of CRL or CRH register based on pin number */
  47              		.loc 1 185 3 view .LVU7
 186:C:/Users/vasil/STM32Cube/Repository/STM32Cube_FW_F1_V1.8.5/Drivers/STM32F1xx_HAL_Driver/Src\stm32f1xx_hal_gpio.c ****   uint32_t registeroffset;       /* offset used during computation of CNF and MODE bits placement i
  48              		.loc 1 186 3 view .LVU8
 187:C:/Users/vasil/STM32Cube/Repository/STM32Cube_FW_F1_V1.8.5/Drivers/STM32F1xx_HAL_Driver/Src\stm32f1xx_hal_gpio.c **** 
 188:C:/Users/vasil/STM32Cube/Repository/STM32Cube_FW_F1_V1.8.5/Drivers/STM32F1xx_HAL_Driver/Src\stm32f1xx_hal_gpio.c ****   /* Check the parameters */
 189:C:/Users/vasil/STM32Cube/Repository/STM32Cube_FW_F1_V1.8.5/Drivers/STM32F1xx_HAL_Driver/Src\stm32f1xx_hal_gpio.c ****   assert_param(IS_GPIO_ALL_INSTANCE(GPIOx));
  49              		.loc 1 189 3 view .LVU9
 190:C:/Users/vasil/STM32Cube/Repository/STM32Cube_FW_F1_V1.8.5/Drivers/STM32F1xx_HAL_Driver/Src\stm32f1xx_hal_gpio.c ****   assert_param(IS_GPIO_PIN(GPIO_Init->Pin));
  50              		.loc 1 190 3 view .LVU10
 191:C:/Users/vasil/STM32Cube/Repository/STM32Cube_FW_F1_V1.8.5/Drivers/STM32F1xx_HAL_Driver/Src\stm32f1xx_hal_gpio.c ****   assert_param(IS_GPIO_MODE(GPIO_Init->Mode));
  51              		.loc 1 191 3 view .LVU11
 192:C:/Users/vasil/STM32Cube/Repository/STM32Cube_FW_F1_V1.8.5/Drivers/STM32F1xx_HAL_Driver/Src\stm32f1xx_hal_gpio.c **** 
 193:C:/Users/vasil/STM32Cube/Repository/STM32Cube_FW_F1_V1.8.5/Drivers/STM32F1xx_HAL_Driver/Src\stm32f1xx_hal_gpio.c ****   /* Configure the port pins */
 194:C:/Users/vasil/STM32Cube/Repository/STM32Cube_FW_F1_V1.8.5/Drivers/STM32F1xx_HAL_Driver/Src\stm32f1xx_hal_gpio.c ****   while (((GPIO_Init->Pin) >> position) != 0x00u)
  52              		.loc 1 194 3 view .LVU12
 184:C:/Users/vasil/STM32Cube/Repository/STM32Cube_FW_F1_V1.8.5/Drivers/STM32F1xx_HAL_Driver/Src\stm32f1xx_hal_gpio.c ****   __IO uint32_t *configregister; /* Store the address of CRL or CRH register based on pin number */
  53              		.loc 1 184 12 is_stmt 0 view .LVU13
  54 0004 0024     		movs	r4, #0
 180:C:/Users/vasil/STM32Cube/Repository/STM32Cube_FW_F1_V1.8.5/Drivers/STM32F1xx_HAL_Driver/Src\stm32f1xx_hal_gpio.c ****   uint32_t ioposition;
  55              		.loc 1 180 12 view .LVU14
  56 0006 A446     		mov	ip, r4
  57              		.loc 1 194 9 view .LVU15
  58 0008 8BE0     		b	.L2
  59              	.LVL2:
  60              	.L4:
 195:C:/Users/vasil/STM32Cube/Repository/STM32Cube_FW_F1_V1.8.5/Drivers/STM32F1xx_HAL_Driver/Src\stm32f1xx_hal_gpio.c ****   {
 196:C:/Users/vasil/STM32Cube/Repository/STM32Cube_FW_F1_V1.8.5/Drivers/STM32F1xx_HAL_Driver/Src\stm32f1xx_hal_gpio.c ****     /* Get the IO position */
 197:C:/Users/vasil/STM32Cube/Repository/STM32Cube_FW_F1_V1.8.5/Drivers/STM32F1xx_HAL_Driver/Src\stm32f1xx_hal_gpio.c ****     ioposition = (0x01uL << position);
 198:C:/Users/vasil/STM32Cube/Repository/STM32Cube_FW_F1_V1.8.5/Drivers/STM32F1xx_HAL_Driver/Src\stm32f1xx_hal_gpio.c **** 
 199:C:/Users/vasil/STM32Cube/Repository/STM32Cube_FW_F1_V1.8.5/Drivers/STM32F1xx_HAL_Driver/Src\stm32f1xx_hal_gpio.c ****     /* Get the current IO position */
 200:C:/Users/vasil/STM32Cube/Repository/STM32Cube_FW_F1_V1.8.5/Drivers/STM32F1xx_HAL_Driver/Src\stm32f1xx_hal_gpio.c ****     iocurrent = (uint32_t)(GPIO_Init->Pin) & ioposition;
 201:C:/Users/vasil/STM32Cube/Repository/STM32Cube_FW_F1_V1.8.5/Drivers/STM32F1xx_HAL_Driver/Src\stm32f1xx_hal_gpio.c **** 
 202:C:/Users/vasil/STM32Cube/Repository/STM32Cube_FW_F1_V1.8.5/Drivers/STM32F1xx_HAL_Driver/Src\stm32f1xx_hal_gpio.c ****     if (iocurrent == ioposition)
 203:C:/Users/vasil/STM32Cube/Repository/STM32Cube_FW_F1_V1.8.5/Drivers/STM32F1xx_HAL_Driver/Src\stm32f1xx_hal_gpio.c ****     {
 204:C:/Users/vasil/STM32Cube/Repository/STM32Cube_FW_F1_V1.8.5/Drivers/STM32F1xx_HAL_Driver/Src\stm32f1xx_hal_gpio.c ****       /* Check the Alternate function parameters */
 205:C:/Users/vasil/STM32Cube/Repository/STM32Cube_FW_F1_V1.8.5/Drivers/STM32F1xx_HAL_Driver/Src\stm32f1xx_hal_gpio.c ****       assert_param(IS_GPIO_AF_INSTANCE(GPIOx));
 206:C:/Users/vasil/STM32Cube/Repository/STM32Cube_FW_F1_V1.8.5/Drivers/STM32F1xx_HAL_Driver/Src\stm32f1xx_hal_gpio.c **** 
 207:C:/Users/vasil/STM32Cube/Repository/STM32Cube_FW_F1_V1.8.5/Drivers/STM32F1xx_HAL_Driver/Src\stm32f1xx_hal_gpio.c ****       /* Based on the required mode, filling config variable with MODEy[1:0] and CNFy[3:2] correspo
 208:C:/Users/vasil/STM32Cube/Repository/STM32Cube_FW_F1_V1.8.5/Drivers/STM32F1xx_HAL_Driver/Src\stm32f1xx_hal_gpio.c ****       switch (GPIO_Init->Mode)
  61              		.loc 1 208 7 view .LVU16
  62 000a 7F4D     		ldr	r5, .L41
  63 000c AB42     		cmp	r3, r5
  64 000e 10D0     		beq	.L12
  65 0010 07D9     		bls	.L36
  66 0012 7E4D     		ldr	r5, .L41+4
  67 0014 AB42     		cmp	r3, r5
  68 0016 0CD0     		beq	.L12
  69 0018 05F58035 		add	r5, r5, #65536
  70 001c AB42     		cmp	r3, r5
  71 001e 08D0     		beq	.L12
  72 0020 15E0     		b	.L9
  73              	.L36:
  74 0022 A5F58015 		sub	r5, r5, #1048576
  75 0026 AB42     		cmp	r3, r5
  76 0028 03D0     		beq	.L12
ARM GAS  C:\Users\vasil\AppData\Local\Temp\ccc7WSuc.s 			page 6


  77 002a 05F57025 		add	r5, r5, #983040
  78 002e AB42     		cmp	r3, r5
  79 0030 09D1     		bne	.L37
  80              	.L12:
 209:C:/Users/vasil/STM32Cube/Repository/STM32Cube_FW_F1_V1.8.5/Drivers/STM32F1xx_HAL_Driver/Src\stm32f1xx_hal_gpio.c ****       {
 210:C:/Users/vasil/STM32Cube/Repository/STM32Cube_FW_F1_V1.8.5/Drivers/STM32F1xx_HAL_Driver/Src\stm32f1xx_hal_gpio.c ****         /* If we are configuring the pin in OUTPUT push-pull mode */
 211:C:/Users/vasil/STM32Cube/Repository/STM32Cube_FW_F1_V1.8.5/Drivers/STM32F1xx_HAL_Driver/Src\stm32f1xx_hal_gpio.c ****         case GPIO_MODE_OUTPUT_PP:
 212:C:/Users/vasil/STM32Cube/Repository/STM32Cube_FW_F1_V1.8.5/Drivers/STM32F1xx_HAL_Driver/Src\stm32f1xx_hal_gpio.c ****           /* Check the GPIO speed parameter */
 213:C:/Users/vasil/STM32Cube/Repository/STM32Cube_FW_F1_V1.8.5/Drivers/STM32F1xx_HAL_Driver/Src\stm32f1xx_hal_gpio.c ****           assert_param(IS_GPIO_SPEED(GPIO_Init->Speed));
 214:C:/Users/vasil/STM32Cube/Repository/STM32Cube_FW_F1_V1.8.5/Drivers/STM32F1xx_HAL_Driver/Src\stm32f1xx_hal_gpio.c ****           config = GPIO_Init->Speed + GPIO_CR_CNF_GP_OUTPUT_PP;
 215:C:/Users/vasil/STM32Cube/Repository/STM32Cube_FW_F1_V1.8.5/Drivers/STM32F1xx_HAL_Driver/Src\stm32f1xx_hal_gpio.c ****           break;
 216:C:/Users/vasil/STM32Cube/Repository/STM32Cube_FW_F1_V1.8.5/Drivers/STM32F1xx_HAL_Driver/Src\stm32f1xx_hal_gpio.c **** 
 217:C:/Users/vasil/STM32Cube/Repository/STM32Cube_FW_F1_V1.8.5/Drivers/STM32F1xx_HAL_Driver/Src\stm32f1xx_hal_gpio.c ****         /* If we are configuring the pin in OUTPUT open-drain mode */
 218:C:/Users/vasil/STM32Cube/Repository/STM32Cube_FW_F1_V1.8.5/Drivers/STM32F1xx_HAL_Driver/Src\stm32f1xx_hal_gpio.c ****         case GPIO_MODE_OUTPUT_OD:
 219:C:/Users/vasil/STM32Cube/Repository/STM32Cube_FW_F1_V1.8.5/Drivers/STM32F1xx_HAL_Driver/Src\stm32f1xx_hal_gpio.c ****           /* Check the GPIO speed parameter */
 220:C:/Users/vasil/STM32Cube/Repository/STM32Cube_FW_F1_V1.8.5/Drivers/STM32F1xx_HAL_Driver/Src\stm32f1xx_hal_gpio.c ****           assert_param(IS_GPIO_SPEED(GPIO_Init->Speed));
 221:C:/Users/vasil/STM32Cube/Repository/STM32Cube_FW_F1_V1.8.5/Drivers/STM32F1xx_HAL_Driver/Src\stm32f1xx_hal_gpio.c ****           config = GPIO_Init->Speed + GPIO_CR_CNF_GP_OUTPUT_OD;
 222:C:/Users/vasil/STM32Cube/Repository/STM32Cube_FW_F1_V1.8.5/Drivers/STM32F1xx_HAL_Driver/Src\stm32f1xx_hal_gpio.c ****           break;
 223:C:/Users/vasil/STM32Cube/Repository/STM32Cube_FW_F1_V1.8.5/Drivers/STM32F1xx_HAL_Driver/Src\stm32f1xx_hal_gpio.c **** 
 224:C:/Users/vasil/STM32Cube/Repository/STM32Cube_FW_F1_V1.8.5/Drivers/STM32F1xx_HAL_Driver/Src\stm32f1xx_hal_gpio.c ****         /* If we are configuring the pin in ALTERNATE FUNCTION push-pull mode */
 225:C:/Users/vasil/STM32Cube/Repository/STM32Cube_FW_F1_V1.8.5/Drivers/STM32F1xx_HAL_Driver/Src\stm32f1xx_hal_gpio.c ****         case GPIO_MODE_AF_PP:
 226:C:/Users/vasil/STM32Cube/Repository/STM32Cube_FW_F1_V1.8.5/Drivers/STM32F1xx_HAL_Driver/Src\stm32f1xx_hal_gpio.c ****           /* Check the GPIO speed parameter */
 227:C:/Users/vasil/STM32Cube/Repository/STM32Cube_FW_F1_V1.8.5/Drivers/STM32F1xx_HAL_Driver/Src\stm32f1xx_hal_gpio.c ****           assert_param(IS_GPIO_SPEED(GPIO_Init->Speed));
 228:C:/Users/vasil/STM32Cube/Repository/STM32Cube_FW_F1_V1.8.5/Drivers/STM32F1xx_HAL_Driver/Src\stm32f1xx_hal_gpio.c ****           config = GPIO_Init->Speed + GPIO_CR_CNF_AF_OUTPUT_PP;
 229:C:/Users/vasil/STM32Cube/Repository/STM32Cube_FW_F1_V1.8.5/Drivers/STM32F1xx_HAL_Driver/Src\stm32f1xx_hal_gpio.c ****           break;
 230:C:/Users/vasil/STM32Cube/Repository/STM32Cube_FW_F1_V1.8.5/Drivers/STM32F1xx_HAL_Driver/Src\stm32f1xx_hal_gpio.c **** 
 231:C:/Users/vasil/STM32Cube/Repository/STM32Cube_FW_F1_V1.8.5/Drivers/STM32F1xx_HAL_Driver/Src\stm32f1xx_hal_gpio.c ****         /* If we are configuring the pin in ALTERNATE FUNCTION open-drain mode */
 232:C:/Users/vasil/STM32Cube/Repository/STM32Cube_FW_F1_V1.8.5/Drivers/STM32F1xx_HAL_Driver/Src\stm32f1xx_hal_gpio.c ****         case GPIO_MODE_AF_OD:
 233:C:/Users/vasil/STM32Cube/Repository/STM32Cube_FW_F1_V1.8.5/Drivers/STM32F1xx_HAL_Driver/Src\stm32f1xx_hal_gpio.c ****           /* Check the GPIO speed parameter */
 234:C:/Users/vasil/STM32Cube/Repository/STM32Cube_FW_F1_V1.8.5/Drivers/STM32F1xx_HAL_Driver/Src\stm32f1xx_hal_gpio.c ****           assert_param(IS_GPIO_SPEED(GPIO_Init->Speed));
 235:C:/Users/vasil/STM32Cube/Repository/STM32Cube_FW_F1_V1.8.5/Drivers/STM32F1xx_HAL_Driver/Src\stm32f1xx_hal_gpio.c ****           config = GPIO_Init->Speed + GPIO_CR_CNF_AF_OUTPUT_OD;
 236:C:/Users/vasil/STM32Cube/Repository/STM32Cube_FW_F1_V1.8.5/Drivers/STM32F1xx_HAL_Driver/Src\stm32f1xx_hal_gpio.c ****           break;
 237:C:/Users/vasil/STM32Cube/Repository/STM32Cube_FW_F1_V1.8.5/Drivers/STM32F1xx_HAL_Driver/Src\stm32f1xx_hal_gpio.c **** 
 238:C:/Users/vasil/STM32Cube/Repository/STM32Cube_FW_F1_V1.8.5/Drivers/STM32F1xx_HAL_Driver/Src\stm32f1xx_hal_gpio.c ****         /* If we are configuring the pin in INPUT (also applicable to EVENT and IT mode) */
 239:C:/Users/vasil/STM32Cube/Repository/STM32Cube_FW_F1_V1.8.5/Drivers/STM32F1xx_HAL_Driver/Src\stm32f1xx_hal_gpio.c ****         case GPIO_MODE_INPUT:
 240:C:/Users/vasil/STM32Cube/Repository/STM32Cube_FW_F1_V1.8.5/Drivers/STM32F1xx_HAL_Driver/Src\stm32f1xx_hal_gpio.c ****         case GPIO_MODE_IT_RISING:
 241:C:/Users/vasil/STM32Cube/Repository/STM32Cube_FW_F1_V1.8.5/Drivers/STM32F1xx_HAL_Driver/Src\stm32f1xx_hal_gpio.c ****         case GPIO_MODE_IT_FALLING:
 242:C:/Users/vasil/STM32Cube/Repository/STM32Cube_FW_F1_V1.8.5/Drivers/STM32F1xx_HAL_Driver/Src\stm32f1xx_hal_gpio.c ****         case GPIO_MODE_IT_RISING_FALLING:
 243:C:/Users/vasil/STM32Cube/Repository/STM32Cube_FW_F1_V1.8.5/Drivers/STM32F1xx_HAL_Driver/Src\stm32f1xx_hal_gpio.c ****         case GPIO_MODE_EVT_RISING:
 244:C:/Users/vasil/STM32Cube/Repository/STM32Cube_FW_F1_V1.8.5/Drivers/STM32F1xx_HAL_Driver/Src\stm32f1xx_hal_gpio.c ****         case GPIO_MODE_EVT_FALLING:
 245:C:/Users/vasil/STM32Cube/Repository/STM32Cube_FW_F1_V1.8.5/Drivers/STM32F1xx_HAL_Driver/Src\stm32f1xx_hal_gpio.c ****         case GPIO_MODE_EVT_RISING_FALLING:
 246:C:/Users/vasil/STM32Cube/Repository/STM32Cube_FW_F1_V1.8.5/Drivers/STM32F1xx_HAL_Driver/Src\stm32f1xx_hal_gpio.c ****           /* Check the GPIO pull parameter */
 247:C:/Users/vasil/STM32Cube/Repository/STM32Cube_FW_F1_V1.8.5/Drivers/STM32F1xx_HAL_Driver/Src\stm32f1xx_hal_gpio.c ****           assert_param(IS_GPIO_PULL(GPIO_Init->Pull));
  81              		.loc 1 247 11 is_stmt 1 view .LVU17
 248:C:/Users/vasil/STM32Cube/Repository/STM32Cube_FW_F1_V1.8.5/Drivers/STM32F1xx_HAL_Driver/Src\stm32f1xx_hal_gpio.c ****           if (GPIO_Init->Pull == GPIO_NOPULL)
  82              		.loc 1 248 11 view .LVU18
  83              		.loc 1 248 24 is_stmt 0 view .LVU19
  84 0032 8B68     		ldr	r3, [r1, #8]
  85              		.loc 1 248 14 view .LVU20
  86 0034 002B     		cmp	r3, #0
  87 0036 00F0BF80 		beq	.L29
 249:C:/Users/vasil/STM32Cube/Repository/STM32Cube_FW_F1_V1.8.5/Drivers/STM32F1xx_HAL_Driver/Src\stm32f1xx_hal_gpio.c ****           {
 250:C:/Users/vasil/STM32Cube/Repository/STM32Cube_FW_F1_V1.8.5/Drivers/STM32F1xx_HAL_Driver/Src\stm32f1xx_hal_gpio.c ****             config = GPIO_CR_MODE_INPUT + GPIO_CR_CNF_INPUT_FLOATING;
 251:C:/Users/vasil/STM32Cube/Repository/STM32Cube_FW_F1_V1.8.5/Drivers/STM32F1xx_HAL_Driver/Src\stm32f1xx_hal_gpio.c ****           }
 252:C:/Users/vasil/STM32Cube/Repository/STM32Cube_FW_F1_V1.8.5/Drivers/STM32F1xx_HAL_Driver/Src\stm32f1xx_hal_gpio.c ****           else if (GPIO_Init->Pull == GPIO_PULLUP)
  88              		.loc 1 252 16 is_stmt 1 view .LVU21
  89              		.loc 1 252 19 is_stmt 0 view .LVU22
ARM GAS  C:\Users\vasil\AppData\Local\Temp\ccc7WSuc.s 			page 7


  90 003a 012B     		cmp	r3, #1
  91 003c 00F0B780 		beq	.L38
 253:C:/Users/vasil/STM32Cube/Repository/STM32Cube_FW_F1_V1.8.5/Drivers/STM32F1xx_HAL_Driver/Src\stm32f1xx_hal_gpio.c ****           {
 254:C:/Users/vasil/STM32Cube/Repository/STM32Cube_FW_F1_V1.8.5/Drivers/STM32F1xx_HAL_Driver/Src\stm32f1xx_hal_gpio.c ****             config = GPIO_CR_MODE_INPUT + GPIO_CR_CNF_INPUT_PU_PD;
 255:C:/Users/vasil/STM32Cube/Repository/STM32Cube_FW_F1_V1.8.5/Drivers/STM32F1xx_HAL_Driver/Src\stm32f1xx_hal_gpio.c **** 
 256:C:/Users/vasil/STM32Cube/Repository/STM32Cube_FW_F1_V1.8.5/Drivers/STM32F1xx_HAL_Driver/Src\stm32f1xx_hal_gpio.c ****             /* Set the corresponding ODR bit */
 257:C:/Users/vasil/STM32Cube/Repository/STM32Cube_FW_F1_V1.8.5/Drivers/STM32F1xx_HAL_Driver/Src\stm32f1xx_hal_gpio.c ****             GPIOx->BSRR = ioposition;
 258:C:/Users/vasil/STM32Cube/Repository/STM32Cube_FW_F1_V1.8.5/Drivers/STM32F1xx_HAL_Driver/Src\stm32f1xx_hal_gpio.c ****           }
 259:C:/Users/vasil/STM32Cube/Repository/STM32Cube_FW_F1_V1.8.5/Drivers/STM32F1xx_HAL_Driver/Src\stm32f1xx_hal_gpio.c ****           else /* GPIO_PULLDOWN */
 260:C:/Users/vasil/STM32Cube/Repository/STM32Cube_FW_F1_V1.8.5/Drivers/STM32F1xx_HAL_Driver/Src\stm32f1xx_hal_gpio.c ****           {
 261:C:/Users/vasil/STM32Cube/Repository/STM32Cube_FW_F1_V1.8.5/Drivers/STM32F1xx_HAL_Driver/Src\stm32f1xx_hal_gpio.c ****             config = GPIO_CR_MODE_INPUT + GPIO_CR_CNF_INPUT_PU_PD;
  92              		.loc 1 261 13 is_stmt 1 view .LVU23
  93              	.LVL3:
 262:C:/Users/vasil/STM32Cube/Repository/STM32Cube_FW_F1_V1.8.5/Drivers/STM32F1xx_HAL_Driver/Src\stm32f1xx_hal_gpio.c **** 
 263:C:/Users/vasil/STM32Cube/Repository/STM32Cube_FW_F1_V1.8.5/Drivers/STM32F1xx_HAL_Driver/Src\stm32f1xx_hal_gpio.c ****             /* Reset the corresponding ODR bit */
 264:C:/Users/vasil/STM32Cube/Repository/STM32Cube_FW_F1_V1.8.5/Drivers/STM32F1xx_HAL_Driver/Src\stm32f1xx_hal_gpio.c ****             GPIOx->BRR = ioposition;
  94              		.loc 1 264 13 view .LVU24
  95              		.loc 1 264 24 is_stmt 0 view .LVU25
  96 0040 4261     		str	r2, [r0, #20]
 261:C:/Users/vasil/STM32Cube/Repository/STM32Cube_FW_F1_V1.8.5/Drivers/STM32F1xx_HAL_Driver/Src\stm32f1xx_hal_gpio.c **** 
  97              		.loc 1 261 20 view .LVU26
  98 0042 0824     		movs	r4, #8
  99 0044 03E0     		b	.L9
 100              	.LVL4:
 101              	.L37:
 208:C:/Users/vasil/STM32Cube/Repository/STM32Cube_FW_F1_V1.8.5/Drivers/STM32F1xx_HAL_Driver/Src\stm32f1xx_hal_gpio.c ****       {
 102              		.loc 1 208 7 view .LVU27
 103 0046 A5F58015 		sub	r5, r5, #1048576
 104 004a AB42     		cmp	r3, r5
 105 004c F1D0     		beq	.L12
 106              	.LVL5:
 107              	.L9:
 265:C:/Users/vasil/STM32Cube/Repository/STM32Cube_FW_F1_V1.8.5/Drivers/STM32F1xx_HAL_Driver/Src\stm32f1xx_hal_gpio.c ****           }
 266:C:/Users/vasil/STM32Cube/Repository/STM32Cube_FW_F1_V1.8.5/Drivers/STM32F1xx_HAL_Driver/Src\stm32f1xx_hal_gpio.c ****           break;
 267:C:/Users/vasil/STM32Cube/Repository/STM32Cube_FW_F1_V1.8.5/Drivers/STM32F1xx_HAL_Driver/Src\stm32f1xx_hal_gpio.c **** 
 268:C:/Users/vasil/STM32Cube/Repository/STM32Cube_FW_F1_V1.8.5/Drivers/STM32F1xx_HAL_Driver/Src\stm32f1xx_hal_gpio.c ****         /* If we are configuring the pin in INPUT analog mode */
 269:C:/Users/vasil/STM32Cube/Repository/STM32Cube_FW_F1_V1.8.5/Drivers/STM32F1xx_HAL_Driver/Src\stm32f1xx_hal_gpio.c ****         case GPIO_MODE_ANALOG:
 270:C:/Users/vasil/STM32Cube/Repository/STM32Cube_FW_F1_V1.8.5/Drivers/STM32F1xx_HAL_Driver/Src\stm32f1xx_hal_gpio.c ****           config = GPIO_CR_MODE_INPUT + GPIO_CR_CNF_ANALOG;
 271:C:/Users/vasil/STM32Cube/Repository/STM32Cube_FW_F1_V1.8.5/Drivers/STM32F1xx_HAL_Driver/Src\stm32f1xx_hal_gpio.c ****           break;
 272:C:/Users/vasil/STM32Cube/Repository/STM32Cube_FW_F1_V1.8.5/Drivers/STM32F1xx_HAL_Driver/Src\stm32f1xx_hal_gpio.c **** 
 273:C:/Users/vasil/STM32Cube/Repository/STM32Cube_FW_F1_V1.8.5/Drivers/STM32F1xx_HAL_Driver/Src\stm32f1xx_hal_gpio.c ****         /* Parameters are checked with assert_param */
 274:C:/Users/vasil/STM32Cube/Repository/STM32Cube_FW_F1_V1.8.5/Drivers/STM32F1xx_HAL_Driver/Src\stm32f1xx_hal_gpio.c ****         default:
 275:C:/Users/vasil/STM32Cube/Repository/STM32Cube_FW_F1_V1.8.5/Drivers/STM32F1xx_HAL_Driver/Src\stm32f1xx_hal_gpio.c ****           break;
 276:C:/Users/vasil/STM32Cube/Repository/STM32Cube_FW_F1_V1.8.5/Drivers/STM32F1xx_HAL_Driver/Src\stm32f1xx_hal_gpio.c ****       }
 277:C:/Users/vasil/STM32Cube/Repository/STM32Cube_FW_F1_V1.8.5/Drivers/STM32F1xx_HAL_Driver/Src\stm32f1xx_hal_gpio.c **** 
 278:C:/Users/vasil/STM32Cube/Repository/STM32Cube_FW_F1_V1.8.5/Drivers/STM32F1xx_HAL_Driver/Src\stm32f1xx_hal_gpio.c ****       /* Check if the current bit belongs to first half or last half of the pin count number
 279:C:/Users/vasil/STM32Cube/Repository/STM32Cube_FW_F1_V1.8.5/Drivers/STM32F1xx_HAL_Driver/Src\stm32f1xx_hal_gpio.c ****        in order to address CRH or CRL register*/
 280:C:/Users/vasil/STM32Cube/Repository/STM32Cube_FW_F1_V1.8.5/Drivers/STM32F1xx_HAL_Driver/Src\stm32f1xx_hal_gpio.c ****       configregister = (iocurrent < GPIO_PIN_8) ? &GPIOx->CRL     : &GPIOx->CRH;
 108              		.loc 1 280 7 is_stmt 1 view .LVU28
 109              		.loc 1 280 67 is_stmt 0 view .LVU29
 110 004e BEF1FF0F 		cmp	lr, #255
 111 0052 00F2B380 		bhi	.L15
 112              		.loc 1 280 67 discriminator 1 view .LVU30
 113 0056 0646     		mov	r6, r0
 114              	.L16:
 115              	.LVL6:
 281:C:/Users/vasil/STM32Cube/Repository/STM32Cube_FW_F1_V1.8.5/Drivers/STM32F1xx_HAL_Driver/Src\stm32f1xx_hal_gpio.c ****       registeroffset = (iocurrent < GPIO_PIN_8) ? (position << 2u) : ((position - 8u) << 2u);
ARM GAS  C:\Users\vasil\AppData\Local\Temp\ccc7WSuc.s 			page 8


 116              		.loc 1 281 7 is_stmt 1 discriminator 4 view .LVU31
 117              		.loc 1 281 68 is_stmt 0 discriminator 4 view .LVU32
 118 0058 BEF1FF0F 		cmp	lr, #255
 119 005c 00F2B080 		bhi	.L17
 120              		.loc 1 281 68 discriminator 1 view .LVU33
 121 0060 4FEA8C02 		lsl	r2, ip, #2
 122              	.LVL7:
 123              	.L18:
 282:C:/Users/vasil/STM32Cube/Repository/STM32Cube_FW_F1_V1.8.5/Drivers/STM32F1xx_HAL_Driver/Src\stm32f1xx_hal_gpio.c **** 
 283:C:/Users/vasil/STM32Cube/Repository/STM32Cube_FW_F1_V1.8.5/Drivers/STM32F1xx_HAL_Driver/Src\stm32f1xx_hal_gpio.c ****       /* Apply the new configuration of the pin to the register */
 284:C:/Users/vasil/STM32Cube/Repository/STM32Cube_FW_F1_V1.8.5/Drivers/STM32F1xx_HAL_Driver/Src\stm32f1xx_hal_gpio.c ****       MODIFY_REG((*configregister), ((GPIO_CRL_MODE0 | GPIO_CRL_CNF0) << registeroffset), (config <
 124              		.loc 1 284 7 is_stmt 1 discriminator 4 view .LVU34
 125 0064 3368     		ldr	r3, [r6]
 126 0066 0F25     		movs	r5, #15
 127 0068 9540     		lsls	r5, r5, r2
 128 006a 23EA0503 		bic	r3, r3, r5
 129 006e 04FA02F2 		lsl	r2, r4, r2
 130              	.LVL8:
 131              		.loc 1 284 7 is_stmt 0 discriminator 4 view .LVU35
 132 0072 1343     		orrs	r3, r3, r2
 133 0074 3360     		str	r3, [r6]
 285:C:/Users/vasil/STM32Cube/Repository/STM32Cube_FW_F1_V1.8.5/Drivers/STM32F1xx_HAL_Driver/Src\stm32f1xx_hal_gpio.c **** 
 286:C:/Users/vasil/STM32Cube/Repository/STM32Cube_FW_F1_V1.8.5/Drivers/STM32F1xx_HAL_Driver/Src\stm32f1xx_hal_gpio.c ****       /*--------------------- EXTI Mode Configuration ------------------------*/
 287:C:/Users/vasil/STM32Cube/Repository/STM32Cube_FW_F1_V1.8.5/Drivers/STM32F1xx_HAL_Driver/Src\stm32f1xx_hal_gpio.c ****       /* Configure the External Interrupt or event for the current IO */
 288:C:/Users/vasil/STM32Cube/Repository/STM32Cube_FW_F1_V1.8.5/Drivers/STM32F1xx_HAL_Driver/Src\stm32f1xx_hal_gpio.c ****       if ((GPIO_Init->Mode & EXTI_MODE) == EXTI_MODE)
 134              		.loc 1 288 7 is_stmt 1 discriminator 4 view .LVU36
 135              		.loc 1 288 21 is_stmt 0 discriminator 4 view .LVU37
 136 0076 4B68     		ldr	r3, [r1, #4]
 137              		.loc 1 288 10 discriminator 4 view .LVU38
 138 0078 13F0805F 		tst	r3, #268435456
 139 007c 4FD0     		beq	.L3
 289:C:/Users/vasil/STM32Cube/Repository/STM32Cube_FW_F1_V1.8.5/Drivers/STM32F1xx_HAL_Driver/Src\stm32f1xx_hal_gpio.c ****       {
 290:C:/Users/vasil/STM32Cube/Repository/STM32Cube_FW_F1_V1.8.5/Drivers/STM32F1xx_HAL_Driver/Src\stm32f1xx_hal_gpio.c ****         /* Enable AFIO Clock */
 291:C:/Users/vasil/STM32Cube/Repository/STM32Cube_FW_F1_V1.8.5/Drivers/STM32F1xx_HAL_Driver/Src\stm32f1xx_hal_gpio.c ****         __HAL_RCC_AFIO_CLK_ENABLE();
 140              		.loc 1 291 9 is_stmt 1 view .LVU39
 141              	.LBB2:
 142              		.loc 1 291 9 view .LVU40
 143              		.loc 1 291 9 view .LVU41
 144 007e 644B     		ldr	r3, .L41+8
 145 0080 9A69     		ldr	r2, [r3, #24]
 146 0082 42F00102 		orr	r2, r2, #1
 147 0086 9A61     		str	r2, [r3, #24]
 148              		.loc 1 291 9 view .LVU42
 149 0088 9B69     		ldr	r3, [r3, #24]
 150 008a 03F00103 		and	r3, r3, #1
 151 008e 0193     		str	r3, [sp, #4]
 152              		.loc 1 291 9 view .LVU43
 153 0090 019B     		ldr	r3, [sp, #4]
 154              	.LBE2:
 155              		.loc 1 291 9 view .LVU44
 292:C:/Users/vasil/STM32Cube/Repository/STM32Cube_FW_F1_V1.8.5/Drivers/STM32F1xx_HAL_Driver/Src\stm32f1xx_hal_gpio.c ****         temp = AFIO->EXTICR[position >> 2u];
 156              		.loc 1 292 9 view .LVU45
 157              		.loc 1 292 38 is_stmt 0 view .LVU46
 158 0092 4FEA9C02 		lsr	r2, ip, #2
 159              		.loc 1 292 14 view .LVU47
 160 0096 951C     		adds	r5, r2, #2
 161 0098 5E4B     		ldr	r3, .L41+12
ARM GAS  C:\Users\vasil\AppData\Local\Temp\ccc7WSuc.s 			page 9


 162 009a 53F82560 		ldr	r6, [r3, r5, lsl #2]
 163              	.LVL9:
 293:C:/Users/vasil/STM32Cube/Repository/STM32Cube_FW_F1_V1.8.5/Drivers/STM32F1xx_HAL_Driver/Src\stm32f1xx_hal_gpio.c ****         CLEAR_BIT(temp, (0x0Fu) << (4u * (position & 0x03u)));
 164              		.loc 1 293 9 is_stmt 1 view .LVU48
 165 009e 0CF00305 		and	r5, ip, #3
 166 00a2 AD00     		lsls	r5, r5, #2
 167 00a4 0F23     		movs	r3, #15
 168 00a6 AB40     		lsls	r3, r3, r5
 169 00a8 26EA0306 		bic	r6, r6, r3
 170              	.LVL10:
 294:C:/Users/vasil/STM32Cube/Repository/STM32Cube_FW_F1_V1.8.5/Drivers/STM32F1xx_HAL_Driver/Src\stm32f1xx_hal_gpio.c ****         SET_BIT(temp, (GPIO_GET_INDEX(GPIOx)) << (4u * (position & 0x03u)));
 171              		.loc 1 294 9 view .LVU49
 172 00ac 5A4B     		ldr	r3, .L41+16
 173 00ae 9842     		cmp	r0, r3
 174 00b0 00F08C80 		beq	.L30
 175              		.loc 1 294 9 is_stmt 0 discriminator 1 view .LVU50
 176 00b4 03F58063 		add	r3, r3, #1024
 177 00b8 9842     		cmp	r0, r3
 178 00ba 00F08980 		beq	.L31
 179              		.loc 1 294 9 discriminator 3 view .LVU51
 180 00be 03F58063 		add	r3, r3, #1024
 181 00c2 9842     		cmp	r0, r3
 182 00c4 00F08080 		beq	.L39
 183              		.loc 1 294 9 view .LVU52
 184 00c8 0323     		movs	r3, #3
 185              	.L19:
 186              		.loc 1 294 9 discriminator 12 view .LVU53
 187 00ca AB40     		lsls	r3, r3, r5
 188 00cc 3343     		orrs	r3, r3, r6
 189              	.LVL11:
 295:C:/Users/vasil/STM32Cube/Repository/STM32Cube_FW_F1_V1.8.5/Drivers/STM32F1xx_HAL_Driver/Src\stm32f1xx_hal_gpio.c ****         AFIO->EXTICR[position >> 2u] = temp;
 190              		.loc 1 295 9 is_stmt 1 discriminator 12 view .LVU54
 191              		.loc 1 295 38 is_stmt 0 discriminator 12 view .LVU55
 192 00ce 0232     		adds	r2, r2, #2
 193 00d0 504D     		ldr	r5, .L41+12
 194 00d2 45F82230 		str	r3, [r5, r2, lsl #2]
 296:C:/Users/vasil/STM32Cube/Repository/STM32Cube_FW_F1_V1.8.5/Drivers/STM32F1xx_HAL_Driver/Src\stm32f1xx_hal_gpio.c **** 
 297:C:/Users/vasil/STM32Cube/Repository/STM32Cube_FW_F1_V1.8.5/Drivers/STM32F1xx_HAL_Driver/Src\stm32f1xx_hal_gpio.c **** 
 298:C:/Users/vasil/STM32Cube/Repository/STM32Cube_FW_F1_V1.8.5/Drivers/STM32F1xx_HAL_Driver/Src\stm32f1xx_hal_gpio.c ****         /* Enable or disable the rising trigger */
 299:C:/Users/vasil/STM32Cube/Repository/STM32Cube_FW_F1_V1.8.5/Drivers/STM32F1xx_HAL_Driver/Src\stm32f1xx_hal_gpio.c ****         if ((GPIO_Init->Mode & RISING_EDGE) == RISING_EDGE)
 195              		.loc 1 299 9 is_stmt 1 discriminator 12 view .LVU56
 196              		.loc 1 299 23 is_stmt 0 discriminator 12 view .LVU57
 197 00d6 4B68     		ldr	r3, [r1, #4]
 198              	.LVL12:
 199              		.loc 1 299 12 discriminator 12 view .LVU58
 200 00d8 13F4801F 		tst	r3, #1048576
 201 00dc 7AD0     		beq	.L20
 300:C:/Users/vasil/STM32Cube/Repository/STM32Cube_FW_F1_V1.8.5/Drivers/STM32F1xx_HAL_Driver/Src\stm32f1xx_hal_gpio.c ****         {
 301:C:/Users/vasil/STM32Cube/Repository/STM32Cube_FW_F1_V1.8.5/Drivers/STM32F1xx_HAL_Driver/Src\stm32f1xx_hal_gpio.c ****           SET_BIT(EXTI->RTSR, iocurrent);
 202              		.loc 1 301 11 is_stmt 1 view .LVU59
 203 00de 4F4A     		ldr	r2, .L41+20
 204              	.LVL13:
 205              		.loc 1 301 11 is_stmt 0 view .LVU60
 206 00e0 9368     		ldr	r3, [r2, #8]
 207 00e2 43EA0E03 		orr	r3, r3, lr
 208 00e6 9360     		str	r3, [r2, #8]
 209              	.LVL14:
ARM GAS  C:\Users\vasil\AppData\Local\Temp\ccc7WSuc.s 			page 10


 210              	.L21:
 302:C:/Users/vasil/STM32Cube/Repository/STM32Cube_FW_F1_V1.8.5/Drivers/STM32F1xx_HAL_Driver/Src\stm32f1xx_hal_gpio.c ****         }
 303:C:/Users/vasil/STM32Cube/Repository/STM32Cube_FW_F1_V1.8.5/Drivers/STM32F1xx_HAL_Driver/Src\stm32f1xx_hal_gpio.c ****         else
 304:C:/Users/vasil/STM32Cube/Repository/STM32Cube_FW_F1_V1.8.5/Drivers/STM32F1xx_HAL_Driver/Src\stm32f1xx_hal_gpio.c ****         {
 305:C:/Users/vasil/STM32Cube/Repository/STM32Cube_FW_F1_V1.8.5/Drivers/STM32F1xx_HAL_Driver/Src\stm32f1xx_hal_gpio.c ****           CLEAR_BIT(EXTI->RTSR, iocurrent);
 306:C:/Users/vasil/STM32Cube/Repository/STM32Cube_FW_F1_V1.8.5/Drivers/STM32F1xx_HAL_Driver/Src\stm32f1xx_hal_gpio.c ****         }
 307:C:/Users/vasil/STM32Cube/Repository/STM32Cube_FW_F1_V1.8.5/Drivers/STM32F1xx_HAL_Driver/Src\stm32f1xx_hal_gpio.c **** 
 308:C:/Users/vasil/STM32Cube/Repository/STM32Cube_FW_F1_V1.8.5/Drivers/STM32F1xx_HAL_Driver/Src\stm32f1xx_hal_gpio.c ****         /* Enable or disable the falling trigger */
 309:C:/Users/vasil/STM32Cube/Repository/STM32Cube_FW_F1_V1.8.5/Drivers/STM32F1xx_HAL_Driver/Src\stm32f1xx_hal_gpio.c ****         if ((GPIO_Init->Mode & FALLING_EDGE) == FALLING_EDGE)
 211              		.loc 1 309 9 is_stmt 1 view .LVU61
 212              		.loc 1 309 23 is_stmt 0 view .LVU62
 213 00e8 4B68     		ldr	r3, [r1, #4]
 214              		.loc 1 309 12 view .LVU63
 215 00ea 13F4001F 		tst	r3, #2097152
 216 00ee 77D0     		beq	.L22
 310:C:/Users/vasil/STM32Cube/Repository/STM32Cube_FW_F1_V1.8.5/Drivers/STM32F1xx_HAL_Driver/Src\stm32f1xx_hal_gpio.c ****         {
 311:C:/Users/vasil/STM32Cube/Repository/STM32Cube_FW_F1_V1.8.5/Drivers/STM32F1xx_HAL_Driver/Src\stm32f1xx_hal_gpio.c ****           SET_BIT(EXTI->FTSR, iocurrent);
 217              		.loc 1 311 11 is_stmt 1 view .LVU64
 218 00f0 4A4A     		ldr	r2, .L41+20
 219 00f2 D368     		ldr	r3, [r2, #12]
 220 00f4 43EA0E03 		orr	r3, r3, lr
 221 00f8 D360     		str	r3, [r2, #12]
 222              	.L23:
 312:C:/Users/vasil/STM32Cube/Repository/STM32Cube_FW_F1_V1.8.5/Drivers/STM32F1xx_HAL_Driver/Src\stm32f1xx_hal_gpio.c ****         }
 313:C:/Users/vasil/STM32Cube/Repository/STM32Cube_FW_F1_V1.8.5/Drivers/STM32F1xx_HAL_Driver/Src\stm32f1xx_hal_gpio.c ****         else
 314:C:/Users/vasil/STM32Cube/Repository/STM32Cube_FW_F1_V1.8.5/Drivers/STM32F1xx_HAL_Driver/Src\stm32f1xx_hal_gpio.c ****         {
 315:C:/Users/vasil/STM32Cube/Repository/STM32Cube_FW_F1_V1.8.5/Drivers/STM32F1xx_HAL_Driver/Src\stm32f1xx_hal_gpio.c ****           CLEAR_BIT(EXTI->FTSR, iocurrent);
 316:C:/Users/vasil/STM32Cube/Repository/STM32Cube_FW_F1_V1.8.5/Drivers/STM32F1xx_HAL_Driver/Src\stm32f1xx_hal_gpio.c ****         }
 317:C:/Users/vasil/STM32Cube/Repository/STM32Cube_FW_F1_V1.8.5/Drivers/STM32F1xx_HAL_Driver/Src\stm32f1xx_hal_gpio.c **** 
 318:C:/Users/vasil/STM32Cube/Repository/STM32Cube_FW_F1_V1.8.5/Drivers/STM32F1xx_HAL_Driver/Src\stm32f1xx_hal_gpio.c ****         /* Configure the event mask */
 319:C:/Users/vasil/STM32Cube/Repository/STM32Cube_FW_F1_V1.8.5/Drivers/STM32F1xx_HAL_Driver/Src\stm32f1xx_hal_gpio.c ****         if ((GPIO_Init->Mode & GPIO_MODE_EVT) == GPIO_MODE_EVT)
 223              		.loc 1 319 9 view .LVU65
 224              		.loc 1 319 23 is_stmt 0 view .LVU66
 225 00fa 4B68     		ldr	r3, [r1, #4]
 226              		.loc 1 319 12 view .LVU67
 227 00fc 13F4003F 		tst	r3, #131072
 228 0100 74D0     		beq	.L24
 320:C:/Users/vasil/STM32Cube/Repository/STM32Cube_FW_F1_V1.8.5/Drivers/STM32F1xx_HAL_Driver/Src\stm32f1xx_hal_gpio.c ****         {
 321:C:/Users/vasil/STM32Cube/Repository/STM32Cube_FW_F1_V1.8.5/Drivers/STM32F1xx_HAL_Driver/Src\stm32f1xx_hal_gpio.c ****           SET_BIT(EXTI->EMR, iocurrent);
 229              		.loc 1 321 11 is_stmt 1 view .LVU68
 230 0102 464A     		ldr	r2, .L41+20
 231 0104 5368     		ldr	r3, [r2, #4]
 232 0106 43EA0E03 		orr	r3, r3, lr
 233 010a 5360     		str	r3, [r2, #4]
 234              	.L25:
 322:C:/Users/vasil/STM32Cube/Repository/STM32Cube_FW_F1_V1.8.5/Drivers/STM32F1xx_HAL_Driver/Src\stm32f1xx_hal_gpio.c ****         }
 323:C:/Users/vasil/STM32Cube/Repository/STM32Cube_FW_F1_V1.8.5/Drivers/STM32F1xx_HAL_Driver/Src\stm32f1xx_hal_gpio.c ****         else
 324:C:/Users/vasil/STM32Cube/Repository/STM32Cube_FW_F1_V1.8.5/Drivers/STM32F1xx_HAL_Driver/Src\stm32f1xx_hal_gpio.c ****         {
 325:C:/Users/vasil/STM32Cube/Repository/STM32Cube_FW_F1_V1.8.5/Drivers/STM32F1xx_HAL_Driver/Src\stm32f1xx_hal_gpio.c ****           CLEAR_BIT(EXTI->EMR, iocurrent);
 326:C:/Users/vasil/STM32Cube/Repository/STM32Cube_FW_F1_V1.8.5/Drivers/STM32F1xx_HAL_Driver/Src\stm32f1xx_hal_gpio.c ****         }
 327:C:/Users/vasil/STM32Cube/Repository/STM32Cube_FW_F1_V1.8.5/Drivers/STM32F1xx_HAL_Driver/Src\stm32f1xx_hal_gpio.c **** 
 328:C:/Users/vasil/STM32Cube/Repository/STM32Cube_FW_F1_V1.8.5/Drivers/STM32F1xx_HAL_Driver/Src\stm32f1xx_hal_gpio.c ****         /* Configure the interrupt mask */
 329:C:/Users/vasil/STM32Cube/Repository/STM32Cube_FW_F1_V1.8.5/Drivers/STM32F1xx_HAL_Driver/Src\stm32f1xx_hal_gpio.c ****         if ((GPIO_Init->Mode & GPIO_MODE_IT) == GPIO_MODE_IT)
 235              		.loc 1 329 9 view .LVU69
 236              		.loc 1 329 23 is_stmt 0 view .LVU70
 237 010c 4B68     		ldr	r3, [r1, #4]
 238              		.loc 1 329 12 view .LVU71
ARM GAS  C:\Users\vasil\AppData\Local\Temp\ccc7WSuc.s 			page 11


 239 010e 13F4803F 		tst	r3, #65536
 240 0112 71D0     		beq	.L26
 330:C:/Users/vasil/STM32Cube/Repository/STM32Cube_FW_F1_V1.8.5/Drivers/STM32F1xx_HAL_Driver/Src\stm32f1xx_hal_gpio.c ****         {
 331:C:/Users/vasil/STM32Cube/Repository/STM32Cube_FW_F1_V1.8.5/Drivers/STM32F1xx_HAL_Driver/Src\stm32f1xx_hal_gpio.c ****           SET_BIT(EXTI->IMR, iocurrent);
 241              		.loc 1 331 11 is_stmt 1 view .LVU72
 242 0114 414A     		ldr	r2, .L41+20
 243 0116 1368     		ldr	r3, [r2]
 244 0118 43EA0E03 		orr	r3, r3, lr
 245 011c 1360     		str	r3, [r2]
 246              	.L3:
 332:C:/Users/vasil/STM32Cube/Repository/STM32Cube_FW_F1_V1.8.5/Drivers/STM32F1xx_HAL_Driver/Src\stm32f1xx_hal_gpio.c ****         }
 333:C:/Users/vasil/STM32Cube/Repository/STM32Cube_FW_F1_V1.8.5/Drivers/STM32F1xx_HAL_Driver/Src\stm32f1xx_hal_gpio.c ****         else
 334:C:/Users/vasil/STM32Cube/Repository/STM32Cube_FW_F1_V1.8.5/Drivers/STM32F1xx_HAL_Driver/Src\stm32f1xx_hal_gpio.c ****         {
 335:C:/Users/vasil/STM32Cube/Repository/STM32Cube_FW_F1_V1.8.5/Drivers/STM32F1xx_HAL_Driver/Src\stm32f1xx_hal_gpio.c ****           CLEAR_BIT(EXTI->IMR, iocurrent);
 336:C:/Users/vasil/STM32Cube/Repository/STM32Cube_FW_F1_V1.8.5/Drivers/STM32F1xx_HAL_Driver/Src\stm32f1xx_hal_gpio.c ****         }
 337:C:/Users/vasil/STM32Cube/Repository/STM32Cube_FW_F1_V1.8.5/Drivers/STM32F1xx_HAL_Driver/Src\stm32f1xx_hal_gpio.c ****       }
 338:C:/Users/vasil/STM32Cube/Repository/STM32Cube_FW_F1_V1.8.5/Drivers/STM32F1xx_HAL_Driver/Src\stm32f1xx_hal_gpio.c ****     }
 339:C:/Users/vasil/STM32Cube/Repository/STM32Cube_FW_F1_V1.8.5/Drivers/STM32F1xx_HAL_Driver/Src\stm32f1xx_hal_gpio.c **** 
 340:C:/Users/vasil/STM32Cube/Repository/STM32Cube_FW_F1_V1.8.5/Drivers/STM32F1xx_HAL_Driver/Src\stm32f1xx_hal_gpio.c **** 	position++;
 247              		.loc 1 340 2 view .LVU73
 248              		.loc 1 340 10 is_stmt 0 view .LVU74
 249 011e 0CF1010C 		add	ip, ip, #1
 250              	.LVL15:
 251              	.L2:
 194:C:/Users/vasil/STM32Cube/Repository/STM32Cube_FW_F1_V1.8.5/Drivers/STM32F1xx_HAL_Driver/Src\stm32f1xx_hal_gpio.c ****   {
 252              		.loc 1 194 41 is_stmt 1 view .LVU75
 194:C:/Users/vasil/STM32Cube/Repository/STM32Cube_FW_F1_V1.8.5/Drivers/STM32F1xx_HAL_Driver/Src\stm32f1xx_hal_gpio.c ****   {
 253              		.loc 1 194 21 is_stmt 0 view .LVU76
 254 0122 0B68     		ldr	r3, [r1]
 194:C:/Users/vasil/STM32Cube/Repository/STM32Cube_FW_F1_V1.8.5/Drivers/STM32F1xx_HAL_Driver/Src\stm32f1xx_hal_gpio.c ****   {
 255              		.loc 1 194 41 view .LVU77
 256 0124 33FA0CF2 		lsrs	r2, r3, ip
 257 0128 6CD0     		beq	.L40
 197:C:/Users/vasil/STM32Cube/Repository/STM32Cube_FW_F1_V1.8.5/Drivers/STM32F1xx_HAL_Driver/Src\stm32f1xx_hal_gpio.c **** 
 258              		.loc 1 197 5 is_stmt 1 view .LVU78
 197:C:/Users/vasil/STM32Cube/Repository/STM32Cube_FW_F1_V1.8.5/Drivers/STM32F1xx_HAL_Driver/Src\stm32f1xx_hal_gpio.c **** 
 259              		.loc 1 197 16 is_stmt 0 view .LVU79
 260 012a 0122     		movs	r2, #1
 261 012c 02FA0CF2 		lsl	r2, r2, ip
 262              	.LVL16:
 200:C:/Users/vasil/STM32Cube/Repository/STM32Cube_FW_F1_V1.8.5/Drivers/STM32F1xx_HAL_Driver/Src\stm32f1xx_hal_gpio.c **** 
 263              		.loc 1 200 5 is_stmt 1 view .LVU80
 200:C:/Users/vasil/STM32Cube/Repository/STM32Cube_FW_F1_V1.8.5/Drivers/STM32F1xx_HAL_Driver/Src\stm32f1xx_hal_gpio.c **** 
 264              		.loc 1 200 15 is_stmt 0 view .LVU81
 265 0130 03EA020E 		and	lr, r3, r2
 266              	.LVL17:
 202:C:/Users/vasil/STM32Cube/Repository/STM32Cube_FW_F1_V1.8.5/Drivers/STM32F1xx_HAL_Driver/Src\stm32f1xx_hal_gpio.c ****     {
 267              		.loc 1 202 5 is_stmt 1 view .LVU82
 202:C:/Users/vasil/STM32Cube/Repository/STM32Cube_FW_F1_V1.8.5/Drivers/STM32F1xx_HAL_Driver/Src\stm32f1xx_hal_gpio.c ****     {
 268              		.loc 1 202 8 is_stmt 0 view .LVU83
 269 0134 32EA0303 		bics	r3, r2, r3
 270 0138 F1D1     		bne	.L3
 205:C:/Users/vasil/STM32Cube/Repository/STM32Cube_FW_F1_V1.8.5/Drivers/STM32F1xx_HAL_Driver/Src\stm32f1xx_hal_gpio.c **** 
 271              		.loc 1 205 7 is_stmt 1 view .LVU84
 208:C:/Users/vasil/STM32Cube/Repository/STM32Cube_FW_F1_V1.8.5/Drivers/STM32F1xx_HAL_Driver/Src\stm32f1xx_hal_gpio.c ****       {
 272              		.loc 1 208 7 view .LVU85
 208:C:/Users/vasil/STM32Cube/Repository/STM32Cube_FW_F1_V1.8.5/Drivers/STM32F1xx_HAL_Driver/Src\stm32f1xx_hal_gpio.c ****       {
ARM GAS  C:\Users\vasil\AppData\Local\Temp\ccc7WSuc.s 			page 12


 273              		.loc 1 208 24 is_stmt 0 view .LVU86
 274 013a 4B68     		ldr	r3, [r1, #4]
 208:C:/Users/vasil/STM32Cube/Repository/STM32Cube_FW_F1_V1.8.5/Drivers/STM32F1xx_HAL_Driver/Src\stm32f1xx_hal_gpio.c ****       {
 275              		.loc 1 208 7 view .LVU87
 276 013c 122B     		cmp	r3, #18
 277 013e 3FF664AF 		bhi	.L4
 278 0142 122B     		cmp	r3, #18
 279 0144 83D8     		bhi	.L9
 280 0146 01A5     		adr	r5, .L7
 281 0148 55F823F0 		ldr	pc, [r5, r3, lsl #2]
 282              		.p2align 2
 283              	.L7:
 284 014c 33000000 		.word	.L12+1
 285 0150 99010000 		.word	.L11+1
 286 0154 A3010000 		.word	.L10+1
 287 0158 B5010000 		.word	.L28+1
 288 015c 4F000000 		.word	.L9+1
 289 0160 4F000000 		.word	.L9+1
 290 0164 4F000000 		.word	.L9+1
 291 0168 4F000000 		.word	.L9+1
 292 016c 4F000000 		.word	.L9+1
 293 0170 4F000000 		.word	.L9+1
 294 0174 4F000000 		.word	.L9+1
 295 0178 4F000000 		.word	.L9+1
 296 017c 4F000000 		.word	.L9+1
 297 0180 4F000000 		.word	.L9+1
 298 0184 4F000000 		.word	.L9+1
 299 0188 4F000000 		.word	.L9+1
 300 018c 4F000000 		.word	.L9+1
 301 0190 9D010000 		.word	.L8+1
 302 0194 A9010000 		.word	.L6+1
 303              		.p2align 1
 304              	.L11:
 213:C:/Users/vasil/STM32Cube/Repository/STM32Cube_FW_F1_V1.8.5/Drivers/STM32F1xx_HAL_Driver/Src\stm32f1xx_hal_gpio.c ****           config = GPIO_Init->Speed + GPIO_CR_CNF_GP_OUTPUT_PP;
 305              		.loc 1 213 11 is_stmt 1 view .LVU88
 214:C:/Users/vasil/STM32Cube/Repository/STM32Cube_FW_F1_V1.8.5/Drivers/STM32F1xx_HAL_Driver/Src\stm32f1xx_hal_gpio.c ****           break;
 306              		.loc 1 214 11 view .LVU89
 214:C:/Users/vasil/STM32Cube/Repository/STM32Cube_FW_F1_V1.8.5/Drivers/STM32F1xx_HAL_Driver/Src\stm32f1xx_hal_gpio.c ****           break;
 307              		.loc 1 214 18 is_stmt 0 view .LVU90
 308 0198 CC68     		ldr	r4, [r1, #12]
 309              	.LVL18:
 215:C:/Users/vasil/STM32Cube/Repository/STM32Cube_FW_F1_V1.8.5/Drivers/STM32F1xx_HAL_Driver/Src\stm32f1xx_hal_gpio.c **** 
 310              		.loc 1 215 11 is_stmt 1 view .LVU91
 311 019a 58E7     		b	.L9
 312              	.L8:
 220:C:/Users/vasil/STM32Cube/Repository/STM32Cube_FW_F1_V1.8.5/Drivers/STM32F1xx_HAL_Driver/Src\stm32f1xx_hal_gpio.c ****           config = GPIO_Init->Speed + GPIO_CR_CNF_GP_OUTPUT_OD;
 313              		.loc 1 220 11 view .LVU92
 221:C:/Users/vasil/STM32Cube/Repository/STM32Cube_FW_F1_V1.8.5/Drivers/STM32F1xx_HAL_Driver/Src\stm32f1xx_hal_gpio.c ****           break;
 314              		.loc 1 221 11 view .LVU93
 221:C:/Users/vasil/STM32Cube/Repository/STM32Cube_FW_F1_V1.8.5/Drivers/STM32F1xx_HAL_Driver/Src\stm32f1xx_hal_gpio.c ****           break;
 315              		.loc 1 221 29 is_stmt 0 view .LVU94
 316 019c CC68     		ldr	r4, [r1, #12]
 317              	.LVL19:
 221:C:/Users/vasil/STM32Cube/Repository/STM32Cube_FW_F1_V1.8.5/Drivers/STM32F1xx_HAL_Driver/Src\stm32f1xx_hal_gpio.c ****           break;
 318              		.loc 1 221 18 view .LVU95
 319 019e 0434     		adds	r4, r4, #4
 320              	.LVL20:
ARM GAS  C:\Users\vasil\AppData\Local\Temp\ccc7WSuc.s 			page 13


 222:C:/Users/vasil/STM32Cube/Repository/STM32Cube_FW_F1_V1.8.5/Drivers/STM32F1xx_HAL_Driver/Src\stm32f1xx_hal_gpio.c **** 
 321              		.loc 1 222 11 is_stmt 1 view .LVU96
 322 01a0 55E7     		b	.L9
 323              	.L10:
 227:C:/Users/vasil/STM32Cube/Repository/STM32Cube_FW_F1_V1.8.5/Drivers/STM32F1xx_HAL_Driver/Src\stm32f1xx_hal_gpio.c ****           config = GPIO_Init->Speed + GPIO_CR_CNF_AF_OUTPUT_PP;
 324              		.loc 1 227 11 view .LVU97
 228:C:/Users/vasil/STM32Cube/Repository/STM32Cube_FW_F1_V1.8.5/Drivers/STM32F1xx_HAL_Driver/Src\stm32f1xx_hal_gpio.c ****           break;
 325              		.loc 1 228 11 view .LVU98
 228:C:/Users/vasil/STM32Cube/Repository/STM32Cube_FW_F1_V1.8.5/Drivers/STM32F1xx_HAL_Driver/Src\stm32f1xx_hal_gpio.c ****           break;
 326              		.loc 1 228 29 is_stmt 0 view .LVU99
 327 01a2 CC68     		ldr	r4, [r1, #12]
 328              	.LVL21:
 228:C:/Users/vasil/STM32Cube/Repository/STM32Cube_FW_F1_V1.8.5/Drivers/STM32F1xx_HAL_Driver/Src\stm32f1xx_hal_gpio.c ****           break;
 329              		.loc 1 228 18 view .LVU100
 330 01a4 0834     		adds	r4, r4, #8
 331              	.LVL22:
 229:C:/Users/vasil/STM32Cube/Repository/STM32Cube_FW_F1_V1.8.5/Drivers/STM32F1xx_HAL_Driver/Src\stm32f1xx_hal_gpio.c **** 
 332              		.loc 1 229 11 is_stmt 1 view .LVU101
 333 01a6 52E7     		b	.L9
 334              	.L6:
 234:C:/Users/vasil/STM32Cube/Repository/STM32Cube_FW_F1_V1.8.5/Drivers/STM32F1xx_HAL_Driver/Src\stm32f1xx_hal_gpio.c ****           config = GPIO_Init->Speed + GPIO_CR_CNF_AF_OUTPUT_OD;
 335              		.loc 1 234 11 view .LVU102
 235:C:/Users/vasil/STM32Cube/Repository/STM32Cube_FW_F1_V1.8.5/Drivers/STM32F1xx_HAL_Driver/Src\stm32f1xx_hal_gpio.c ****           break;
 336              		.loc 1 235 11 view .LVU103
 235:C:/Users/vasil/STM32Cube/Repository/STM32Cube_FW_F1_V1.8.5/Drivers/STM32F1xx_HAL_Driver/Src\stm32f1xx_hal_gpio.c ****           break;
 337              		.loc 1 235 29 is_stmt 0 view .LVU104
 338 01a8 CC68     		ldr	r4, [r1, #12]
 339              	.LVL23:
 235:C:/Users/vasil/STM32Cube/Repository/STM32Cube_FW_F1_V1.8.5/Drivers/STM32F1xx_HAL_Driver/Src\stm32f1xx_hal_gpio.c ****           break;
 340              		.loc 1 235 18 view .LVU105
 341 01aa 0C34     		adds	r4, r4, #12
 342              	.LVL24:
 236:C:/Users/vasil/STM32Cube/Repository/STM32Cube_FW_F1_V1.8.5/Drivers/STM32F1xx_HAL_Driver/Src\stm32f1xx_hal_gpio.c **** 
 343              		.loc 1 236 11 is_stmt 1 view .LVU106
 344 01ac 4FE7     		b	.L9
 345              	.L38:
 254:C:/Users/vasil/STM32Cube/Repository/STM32Cube_FW_F1_V1.8.5/Drivers/STM32F1xx_HAL_Driver/Src\stm32f1xx_hal_gpio.c **** 
 346              		.loc 1 254 13 view .LVU107
 347              	.LVL25:
 257:C:/Users/vasil/STM32Cube/Repository/STM32Cube_FW_F1_V1.8.5/Drivers/STM32F1xx_HAL_Driver/Src\stm32f1xx_hal_gpio.c ****           }
 348              		.loc 1 257 13 view .LVU108
 257:C:/Users/vasil/STM32Cube/Repository/STM32Cube_FW_F1_V1.8.5/Drivers/STM32F1xx_HAL_Driver/Src\stm32f1xx_hal_gpio.c ****           }
 349              		.loc 1 257 25 is_stmt 0 view .LVU109
 350 01ae 0261     		str	r2, [r0, #16]
 254:C:/Users/vasil/STM32Cube/Repository/STM32Cube_FW_F1_V1.8.5/Drivers/STM32F1xx_HAL_Driver/Src\stm32f1xx_hal_gpio.c **** 
 351              		.loc 1 254 20 view .LVU110
 352 01b0 0824     		movs	r4, #8
 353 01b2 4CE7     		b	.L9
 354              	.LVL26:
 355              	.L28:
 270:C:/Users/vasil/STM32Cube/Repository/STM32Cube_FW_F1_V1.8.5/Drivers/STM32F1xx_HAL_Driver/Src\stm32f1xx_hal_gpio.c ****           break;
 356              		.loc 1 270 18 view .LVU111
 357 01b4 0024     		movs	r4, #0
 358              	.LVL27:
 270:C:/Users/vasil/STM32Cube/Repository/STM32Cube_FW_F1_V1.8.5/Drivers/STM32F1xx_HAL_Driver/Src\stm32f1xx_hal_gpio.c ****           break;
 359              		.loc 1 270 18 view .LVU112
 360 01b6 4AE7     		b	.L9
ARM GAS  C:\Users\vasil\AppData\Local\Temp\ccc7WSuc.s 			page 14


 361              	.LVL28:
 362              	.L29:
 250:C:/Users/vasil/STM32Cube/Repository/STM32Cube_FW_F1_V1.8.5/Drivers/STM32F1xx_HAL_Driver/Src\stm32f1xx_hal_gpio.c ****           }
 363              		.loc 1 250 20 view .LVU113
 364 01b8 0424     		movs	r4, #4
 365              	.LVL29:
 250:C:/Users/vasil/STM32Cube/Repository/STM32Cube_FW_F1_V1.8.5/Drivers/STM32F1xx_HAL_Driver/Src\stm32f1xx_hal_gpio.c ****           }
 366              		.loc 1 250 20 view .LVU114
 367 01ba 48E7     		b	.L9
 368              	.LVL30:
 369              	.L15:
 280:C:/Users/vasil/STM32Cube/Repository/STM32Cube_FW_F1_V1.8.5/Drivers/STM32F1xx_HAL_Driver/Src\stm32f1xx_hal_gpio.c ****       registeroffset = (iocurrent < GPIO_PIN_8) ? (position << 2u) : ((position - 8u) << 2u);
 370              		.loc 1 280 67 discriminator 2 view .LVU115
 371 01bc 061D     		adds	r6, r0, #4
 372 01be 4BE7     		b	.L16
 373              	.LVL31:
 374              	.L17:
 281:C:/Users/vasil/STM32Cube/Repository/STM32Cube_FW_F1_V1.8.5/Drivers/STM32F1xx_HAL_Driver/Src\stm32f1xx_hal_gpio.c **** 
 375              		.loc 1 281 81 discriminator 2 view .LVU116
 376 01c0 ACF10802 		sub	r2, ip, #8
 377              	.LVL32:
 281:C:/Users/vasil/STM32Cube/Repository/STM32Cube_FW_F1_V1.8.5/Drivers/STM32F1xx_HAL_Driver/Src\stm32f1xx_hal_gpio.c **** 
 378              		.loc 1 281 68 discriminator 2 view .LVU117
 379 01c4 9200     		lsls	r2, r2, #2
 380 01c6 4DE7     		b	.L18
 381              	.LVL33:
 382              	.L39:
 294:C:/Users/vasil/STM32Cube/Repository/STM32Cube_FW_F1_V1.8.5/Drivers/STM32F1xx_HAL_Driver/Src\stm32f1xx_hal_gpio.c ****         AFIO->EXTICR[position >> 2u] = temp;
 383              		.loc 1 294 9 view .LVU118
 384 01c8 0223     		movs	r3, #2
 385 01ca 7EE7     		b	.L19
 386              	.L30:
 387 01cc 0023     		movs	r3, #0
 388 01ce 7CE7     		b	.L19
 389              	.L31:
 390 01d0 0123     		movs	r3, #1
 391              	.LVL34:
 294:C:/Users/vasil/STM32Cube/Repository/STM32Cube_FW_F1_V1.8.5/Drivers/STM32F1xx_HAL_Driver/Src\stm32f1xx_hal_gpio.c ****         AFIO->EXTICR[position >> 2u] = temp;
 392              		.loc 1 294 9 view .LVU119
 393 01d2 7AE7     		b	.L19
 394              	.LVL35:
 395              	.L20:
 305:C:/Users/vasil/STM32Cube/Repository/STM32Cube_FW_F1_V1.8.5/Drivers/STM32F1xx_HAL_Driver/Src\stm32f1xx_hal_gpio.c ****         }
 396              		.loc 1 305 11 is_stmt 1 view .LVU120
 397 01d4 114A     		ldr	r2, .L41+20
 398              	.LVL36:
 305:C:/Users/vasil/STM32Cube/Repository/STM32Cube_FW_F1_V1.8.5/Drivers/STM32F1xx_HAL_Driver/Src\stm32f1xx_hal_gpio.c ****         }
 399              		.loc 1 305 11 is_stmt 0 view .LVU121
 400 01d6 9368     		ldr	r3, [r2, #8]
 401 01d8 23EA0E03 		bic	r3, r3, lr
 402 01dc 9360     		str	r3, [r2, #8]
 403              	.LVL37:
 305:C:/Users/vasil/STM32Cube/Repository/STM32Cube_FW_F1_V1.8.5/Drivers/STM32F1xx_HAL_Driver/Src\stm32f1xx_hal_gpio.c ****         }
 404              		.loc 1 305 11 view .LVU122
 405 01de 83E7     		b	.L21
 406              	.L22:
 315:C:/Users/vasil/STM32Cube/Repository/STM32Cube_FW_F1_V1.8.5/Drivers/STM32F1xx_HAL_Driver/Src\stm32f1xx_hal_gpio.c ****         }
ARM GAS  C:\Users\vasil\AppData\Local\Temp\ccc7WSuc.s 			page 15


 407              		.loc 1 315 11 is_stmt 1 view .LVU123
 408 01e0 0E4A     		ldr	r2, .L41+20
 409 01e2 D368     		ldr	r3, [r2, #12]
 410 01e4 23EA0E03 		bic	r3, r3, lr
 411 01e8 D360     		str	r3, [r2, #12]
 412 01ea 86E7     		b	.L23
 413              	.L24:
 325:C:/Users/vasil/STM32Cube/Repository/STM32Cube_FW_F1_V1.8.5/Drivers/STM32F1xx_HAL_Driver/Src\stm32f1xx_hal_gpio.c ****         }
 414              		.loc 1 325 11 view .LVU124
 415 01ec 0B4A     		ldr	r2, .L41+20
 416 01ee 5368     		ldr	r3, [r2, #4]
 417 01f0 23EA0E03 		bic	r3, r3, lr
 418 01f4 5360     		str	r3, [r2, #4]
 419 01f6 89E7     		b	.L25
 420              	.L26:
 335:C:/Users/vasil/STM32Cube/Repository/STM32Cube_FW_F1_V1.8.5/Drivers/STM32F1xx_HAL_Driver/Src\stm32f1xx_hal_gpio.c ****         }
 421              		.loc 1 335 11 view .LVU125
 422 01f8 084A     		ldr	r2, .L41+20
 423 01fa 1368     		ldr	r3, [r2]
 424 01fc 23EA0E03 		bic	r3, r3, lr
 425 0200 1360     		str	r3, [r2]
 426 0202 8CE7     		b	.L3
 427              	.LVL38:
 428              	.L40:
 341:C:/Users/vasil/STM32Cube/Repository/STM32Cube_FW_F1_V1.8.5/Drivers/STM32F1xx_HAL_Driver/Src\stm32f1xx_hal_gpio.c ****   }
 342:C:/Users/vasil/STM32Cube/Repository/STM32Cube_FW_F1_V1.8.5/Drivers/STM32F1xx_HAL_Driver/Src\stm32f1xx_hal_gpio.c **** }
 429              		.loc 1 342 1 is_stmt 0 view .LVU126
 430 0204 02B0     		add	sp, sp, #8
 431              		.cfi_def_cfa_offset 16
 432              		@ sp needed
 433 0206 70BD     		pop	{r4, r5, r6, pc}
 434              	.LVL39:
 435              	.L42:
 436              		.loc 1 342 1 view .LVU127
 437              		.align	2
 438              	.L41:
 439 0208 00002210 		.word	270663680
 440 020c 00003110 		.word	271646720
 441 0210 00100240 		.word	1073876992
 442 0214 00000140 		.word	1073807360
 443 0218 00080140 		.word	1073809408
 444 021c 00040140 		.word	1073808384
 445              		.cfi_endproc
 446              	.LFE65:
 448              		.section	.text.HAL_GPIO_DeInit,"ax",%progbits
 449              		.align	1
 450              		.global	HAL_GPIO_DeInit
 451              		.syntax unified
 452              		.thumb
 453              		.thumb_func
 455              	HAL_GPIO_DeInit:
 456              	.LVL40:
 457              	.LFB66:
 343:C:/Users/vasil/STM32Cube/Repository/STM32Cube_FW_F1_V1.8.5/Drivers/STM32F1xx_HAL_Driver/Src\stm32f1xx_hal_gpio.c **** 
 344:C:/Users/vasil/STM32Cube/Repository/STM32Cube_FW_F1_V1.8.5/Drivers/STM32F1xx_HAL_Driver/Src\stm32f1xx_hal_gpio.c **** /**
 345:C:/Users/vasil/STM32Cube/Repository/STM32Cube_FW_F1_V1.8.5/Drivers/STM32F1xx_HAL_Driver/Src\stm32f1xx_hal_gpio.c ****   * @brief  De-initializes the GPIOx peripheral registers to their default reset values.
 346:C:/Users/vasil/STM32Cube/Repository/STM32Cube_FW_F1_V1.8.5/Drivers/STM32F1xx_HAL_Driver/Src\stm32f1xx_hal_gpio.c ****   * @param  GPIOx: where x can be (A..G depending on device used) to select the GPIO peripheral
ARM GAS  C:\Users\vasil\AppData\Local\Temp\ccc7WSuc.s 			page 16


 347:C:/Users/vasil/STM32Cube/Repository/STM32Cube_FW_F1_V1.8.5/Drivers/STM32F1xx_HAL_Driver/Src\stm32f1xx_hal_gpio.c ****   * @param  GPIO_Pin: specifies the port bit to be written.
 348:C:/Users/vasil/STM32Cube/Repository/STM32Cube_FW_F1_V1.8.5/Drivers/STM32F1xx_HAL_Driver/Src\stm32f1xx_hal_gpio.c ****   *         This parameter can be one of GPIO_PIN_x where x can be (0..15).
 349:C:/Users/vasil/STM32Cube/Repository/STM32Cube_FW_F1_V1.8.5/Drivers/STM32F1xx_HAL_Driver/Src\stm32f1xx_hal_gpio.c ****   * @retval None
 350:C:/Users/vasil/STM32Cube/Repository/STM32Cube_FW_F1_V1.8.5/Drivers/STM32F1xx_HAL_Driver/Src\stm32f1xx_hal_gpio.c ****   */
 351:C:/Users/vasil/STM32Cube/Repository/STM32Cube_FW_F1_V1.8.5/Drivers/STM32F1xx_HAL_Driver/Src\stm32f1xx_hal_gpio.c **** void HAL_GPIO_DeInit(GPIO_TypeDef  *GPIOx, uint32_t GPIO_Pin)
 352:C:/Users/vasil/STM32Cube/Repository/STM32Cube_FW_F1_V1.8.5/Drivers/STM32F1xx_HAL_Driver/Src\stm32f1xx_hal_gpio.c **** {
 458              		.loc 1 352 1 is_stmt 1 view -0
 459              		.cfi_startproc
 460              		@ args = 0, pretend = 0, frame = 0
 461              		@ frame_needed = 0, uses_anonymous_args = 0
 353:C:/Users/vasil/STM32Cube/Repository/STM32Cube_FW_F1_V1.8.5/Drivers/STM32F1xx_HAL_Driver/Src\stm32f1xx_hal_gpio.c ****   uint32_t position = 0x00u;
 462              		.loc 1 353 3 view .LVU129
 354:C:/Users/vasil/STM32Cube/Repository/STM32Cube_FW_F1_V1.8.5/Drivers/STM32F1xx_HAL_Driver/Src\stm32f1xx_hal_gpio.c ****   uint32_t iocurrent;
 463              		.loc 1 354 3 view .LVU130
 355:C:/Users/vasil/STM32Cube/Repository/STM32Cube_FW_F1_V1.8.5/Drivers/STM32F1xx_HAL_Driver/Src\stm32f1xx_hal_gpio.c ****   uint32_t tmp;
 464              		.loc 1 355 3 view .LVU131
 356:C:/Users/vasil/STM32Cube/Repository/STM32Cube_FW_F1_V1.8.5/Drivers/STM32F1xx_HAL_Driver/Src\stm32f1xx_hal_gpio.c ****   __IO uint32_t *configregister; /* Store the address of CRL or CRH register based on pin number */
 465              		.loc 1 356 3 view .LVU132
 357:C:/Users/vasil/STM32Cube/Repository/STM32Cube_FW_F1_V1.8.5/Drivers/STM32F1xx_HAL_Driver/Src\stm32f1xx_hal_gpio.c ****   uint32_t registeroffset;
 466              		.loc 1 357 3 view .LVU133
 358:C:/Users/vasil/STM32Cube/Repository/STM32Cube_FW_F1_V1.8.5/Drivers/STM32F1xx_HAL_Driver/Src\stm32f1xx_hal_gpio.c **** 
 359:C:/Users/vasil/STM32Cube/Repository/STM32Cube_FW_F1_V1.8.5/Drivers/STM32F1xx_HAL_Driver/Src\stm32f1xx_hal_gpio.c ****   /* Check the parameters */
 360:C:/Users/vasil/STM32Cube/Repository/STM32Cube_FW_F1_V1.8.5/Drivers/STM32F1xx_HAL_Driver/Src\stm32f1xx_hal_gpio.c ****   assert_param(IS_GPIO_ALL_INSTANCE(GPIOx));
 467              		.loc 1 360 3 view .LVU134
 361:C:/Users/vasil/STM32Cube/Repository/STM32Cube_FW_F1_V1.8.5/Drivers/STM32F1xx_HAL_Driver/Src\stm32f1xx_hal_gpio.c ****   assert_param(IS_GPIO_PIN(GPIO_Pin));
 468              		.loc 1 361 3 view .LVU135
 362:C:/Users/vasil/STM32Cube/Repository/STM32Cube_FW_F1_V1.8.5/Drivers/STM32F1xx_HAL_Driver/Src\stm32f1xx_hal_gpio.c **** 
 363:C:/Users/vasil/STM32Cube/Repository/STM32Cube_FW_F1_V1.8.5/Drivers/STM32F1xx_HAL_Driver/Src\stm32f1xx_hal_gpio.c ****   /* Configure the port pins */
 364:C:/Users/vasil/STM32Cube/Repository/STM32Cube_FW_F1_V1.8.5/Drivers/STM32F1xx_HAL_Driver/Src\stm32f1xx_hal_gpio.c ****   while ((GPIO_Pin >> position) != 0u)
 469              		.loc 1 364 3 view .LVU136
 353:C:/Users/vasil/STM32Cube/Repository/STM32Cube_FW_F1_V1.8.5/Drivers/STM32F1xx_HAL_Driver/Src\stm32f1xx_hal_gpio.c ****   uint32_t iocurrent;
 470              		.loc 1 353 12 is_stmt 0 view .LVU137
 471 0000 0022     		movs	r2, #0
 472              		.loc 1 364 9 view .LVU138
 473 0002 65E0     		b	.L57
 474              	.LVL41:
 475              	.L64:
 476              		.cfi_def_cfa_offset 16
 477              		.cfi_offset 4, -16
 478              		.cfi_offset 5, -12
 479              		.cfi_offset 6, -8
 480              		.cfi_offset 14, -4
 365:C:/Users/vasil/STM32Cube/Repository/STM32Cube_FW_F1_V1.8.5/Drivers/STM32F1xx_HAL_Driver/Src\stm32f1xx_hal_gpio.c ****   {
 366:C:/Users/vasil/STM32Cube/Repository/STM32Cube_FW_F1_V1.8.5/Drivers/STM32F1xx_HAL_Driver/Src\stm32f1xx_hal_gpio.c ****     /* Get current io position */
 367:C:/Users/vasil/STM32Cube/Repository/STM32Cube_FW_F1_V1.8.5/Drivers/STM32F1xx_HAL_Driver/Src\stm32f1xx_hal_gpio.c ****     iocurrent = (GPIO_Pin) & (1uL << position);
 368:C:/Users/vasil/STM32Cube/Repository/STM32Cube_FW_F1_V1.8.5/Drivers/STM32F1xx_HAL_Driver/Src\stm32f1xx_hal_gpio.c **** 
 369:C:/Users/vasil/STM32Cube/Repository/STM32Cube_FW_F1_V1.8.5/Drivers/STM32F1xx_HAL_Driver/Src\stm32f1xx_hal_gpio.c ****     if (iocurrent)
 370:C:/Users/vasil/STM32Cube/Repository/STM32Cube_FW_F1_V1.8.5/Drivers/STM32F1xx_HAL_Driver/Src\stm32f1xx_hal_gpio.c ****     {
 371:C:/Users/vasil/STM32Cube/Repository/STM32Cube_FW_F1_V1.8.5/Drivers/STM32F1xx_HAL_Driver/Src\stm32f1xx_hal_gpio.c ****       /*------------------------- EXTI Mode Configuration --------------------*/
 372:C:/Users/vasil/STM32Cube/Repository/STM32Cube_FW_F1_V1.8.5/Drivers/STM32F1xx_HAL_Driver/Src\stm32f1xx_hal_gpio.c ****       /* Clear the External Interrupt or Event for the current IO */
 373:C:/Users/vasil/STM32Cube/Repository/STM32Cube_FW_F1_V1.8.5/Drivers/STM32F1xx_HAL_Driver/Src\stm32f1xx_hal_gpio.c **** 
 374:C:/Users/vasil/STM32Cube/Repository/STM32Cube_FW_F1_V1.8.5/Drivers/STM32F1xx_HAL_Driver/Src\stm32f1xx_hal_gpio.c ****       tmp = AFIO->EXTICR[position >> 2u];
 375:C:/Users/vasil/STM32Cube/Repository/STM32Cube_FW_F1_V1.8.5/Drivers/STM32F1xx_HAL_Driver/Src\stm32f1xx_hal_gpio.c ****       tmp &= 0x0FuL << (4u * (position & 0x03u));
 376:C:/Users/vasil/STM32Cube/Repository/STM32Cube_FW_F1_V1.8.5/Drivers/STM32F1xx_HAL_Driver/Src\stm32f1xx_hal_gpio.c ****       if (tmp == (GPIO_GET_INDEX(GPIOx) << (4u * (position & 0x03u))))
 481              		.loc 1 376 19 view .LVU139
 482 0004 0225     		movs	r5, #2
 483 0006 00E0     		b	.L46
ARM GAS  C:\Users\vasil\AppData\Local\Temp\ccc7WSuc.s 			page 17


 484              	.L53:
 485 0008 0025     		movs	r5, #0
 486              	.L46:
 487              		.loc 1 376 41 discriminator 12 view .LVU140
 488 000a 05FA04F4 		lsl	r4, r5, r4
 489              		.loc 1 376 10 discriminator 12 view .LVU141
 490 000e 7445     		cmp	r4, lr
 491 0010 3CD0     		beq	.L62
 492              	.LVL42:
 493              	.L47:
 377:C:/Users/vasil/STM32Cube/Repository/STM32Cube_FW_F1_V1.8.5/Drivers/STM32F1xx_HAL_Driver/Src\stm32f1xx_hal_gpio.c ****       {
 378:C:/Users/vasil/STM32Cube/Repository/STM32Cube_FW_F1_V1.8.5/Drivers/STM32F1xx_HAL_Driver/Src\stm32f1xx_hal_gpio.c ****         /* Clear EXTI line configuration */
 379:C:/Users/vasil/STM32Cube/Repository/STM32Cube_FW_F1_V1.8.5/Drivers/STM32F1xx_HAL_Driver/Src\stm32f1xx_hal_gpio.c ****         CLEAR_BIT(EXTI->IMR, (uint32_t)iocurrent);
 380:C:/Users/vasil/STM32Cube/Repository/STM32Cube_FW_F1_V1.8.5/Drivers/STM32F1xx_HAL_Driver/Src\stm32f1xx_hal_gpio.c ****         CLEAR_BIT(EXTI->EMR, (uint32_t)iocurrent);
 381:C:/Users/vasil/STM32Cube/Repository/STM32Cube_FW_F1_V1.8.5/Drivers/STM32F1xx_HAL_Driver/Src\stm32f1xx_hal_gpio.c **** 
 382:C:/Users/vasil/STM32Cube/Repository/STM32Cube_FW_F1_V1.8.5/Drivers/STM32F1xx_HAL_Driver/Src\stm32f1xx_hal_gpio.c ****         /* Clear Rising Falling edge configuration */
 383:C:/Users/vasil/STM32Cube/Repository/STM32Cube_FW_F1_V1.8.5/Drivers/STM32F1xx_HAL_Driver/Src\stm32f1xx_hal_gpio.c ****         CLEAR_BIT(EXTI->FTSR, (uint32_t)iocurrent);
 384:C:/Users/vasil/STM32Cube/Repository/STM32Cube_FW_F1_V1.8.5/Drivers/STM32F1xx_HAL_Driver/Src\stm32f1xx_hal_gpio.c ****         CLEAR_BIT(EXTI->RTSR, (uint32_t)iocurrent);
 385:C:/Users/vasil/STM32Cube/Repository/STM32Cube_FW_F1_V1.8.5/Drivers/STM32F1xx_HAL_Driver/Src\stm32f1xx_hal_gpio.c ****         
 386:C:/Users/vasil/STM32Cube/Repository/STM32Cube_FW_F1_V1.8.5/Drivers/STM32F1xx_HAL_Driver/Src\stm32f1xx_hal_gpio.c ****         tmp = 0x0FuL << (4u * (position & 0x03u));
 387:C:/Users/vasil/STM32Cube/Repository/STM32Cube_FW_F1_V1.8.5/Drivers/STM32F1xx_HAL_Driver/Src\stm32f1xx_hal_gpio.c ****         CLEAR_BIT(AFIO->EXTICR[position >> 2u], tmp);
 388:C:/Users/vasil/STM32Cube/Repository/STM32Cube_FW_F1_V1.8.5/Drivers/STM32F1xx_HAL_Driver/Src\stm32f1xx_hal_gpio.c ****       }
 389:C:/Users/vasil/STM32Cube/Repository/STM32Cube_FW_F1_V1.8.5/Drivers/STM32F1xx_HAL_Driver/Src\stm32f1xx_hal_gpio.c ****       /*------------------------- GPIO Mode Configuration --------------------*/
 390:C:/Users/vasil/STM32Cube/Repository/STM32Cube_FW_F1_V1.8.5/Drivers/STM32F1xx_HAL_Driver/Src\stm32f1xx_hal_gpio.c ****       /* Check if the current bit belongs to first half or last half of the pin count number
 391:C:/Users/vasil/STM32Cube/Repository/STM32Cube_FW_F1_V1.8.5/Drivers/STM32F1xx_HAL_Driver/Src\stm32f1xx_hal_gpio.c ****        in order to address CRH or CRL register */
 392:C:/Users/vasil/STM32Cube/Repository/STM32Cube_FW_F1_V1.8.5/Drivers/STM32F1xx_HAL_Driver/Src\stm32f1xx_hal_gpio.c ****       configregister = (iocurrent < GPIO_PIN_8) ? &GPIOx->CRL     : &GPIOx->CRH;
 494              		.loc 1 392 7 is_stmt 1 view .LVU142
 495              		.loc 1 392 67 is_stmt 0 view .LVU143
 496 0012 FF2B     		cmp	r3, #255
 497 0014 54D8     		bhi	.L48
 498              		.loc 1 392 67 discriminator 1 view .LVU144
 499 0016 0646     		mov	r6, r0
 500              	.L49:
 501              	.LVL43:
 393:C:/Users/vasil/STM32Cube/Repository/STM32Cube_FW_F1_V1.8.5/Drivers/STM32F1xx_HAL_Driver/Src\stm32f1xx_hal_gpio.c ****       registeroffset = (iocurrent < GPIO_PIN_8) ? (position << 2u) : ((position - 8u) << 2u);
 502              		.loc 1 393 7 is_stmt 1 discriminator 4 view .LVU145
 503              		.loc 1 393 68 is_stmt 0 discriminator 4 view .LVU146
 504 0018 FF2B     		cmp	r3, #255
 505 001a 53D8     		bhi	.L50
 506              		.loc 1 393 68 discriminator 1 view .LVU147
 507 001c 9500     		lsls	r5, r2, #2
 508              	.L51:
 509              	.LVL44:
 394:C:/Users/vasil/STM32Cube/Repository/STM32Cube_FW_F1_V1.8.5/Drivers/STM32F1xx_HAL_Driver/Src\stm32f1xx_hal_gpio.c **** 
 395:C:/Users/vasil/STM32Cube/Repository/STM32Cube_FW_F1_V1.8.5/Drivers/STM32F1xx_HAL_Driver/Src\stm32f1xx_hal_gpio.c ****       /* CRL/CRH default value is floating input(0x04) shifted to correct position */
 396:C:/Users/vasil/STM32Cube/Repository/STM32Cube_FW_F1_V1.8.5/Drivers/STM32F1xx_HAL_Driver/Src\stm32f1xx_hal_gpio.c ****       MODIFY_REG(*configregister, ((GPIO_CRL_MODE0 | GPIO_CRL_CNF0) << registeroffset), GPIO_CRL_CN
 510              		.loc 1 396 7 is_stmt 1 discriminator 4 view .LVU148
 511 001e 3468     		ldr	r4, [r6]
 512 0020 4FF00F0C 		mov	ip, #15
 513 0024 0CFA05FC 		lsl	ip, ip, r5
 514 0028 24EA0C04 		bic	r4, r4, ip
 515 002c 4FF0040C 		mov	ip, #4
 516 0030 0CFA05FC 		lsl	ip, ip, r5
 517 0034 44EA0C04 		orr	r4, r4, ip
 518 0038 3460     		str	r4, [r6]
 397:C:/Users/vasil/STM32Cube/Repository/STM32Cube_FW_F1_V1.8.5/Drivers/STM32F1xx_HAL_Driver/Src\stm32f1xx_hal_gpio.c **** 
 398:C:/Users/vasil/STM32Cube/Repository/STM32Cube_FW_F1_V1.8.5/Drivers/STM32F1xx_HAL_Driver/Src\stm32f1xx_hal_gpio.c ****       /* ODR default value is 0 */
ARM GAS  C:\Users\vasil\AppData\Local\Temp\ccc7WSuc.s 			page 18


 399:C:/Users/vasil/STM32Cube/Repository/STM32Cube_FW_F1_V1.8.5/Drivers/STM32F1xx_HAL_Driver/Src\stm32f1xx_hal_gpio.c ****       CLEAR_BIT(GPIOx->ODR, iocurrent);
 519              		.loc 1 399 7 discriminator 4 view .LVU149
 520 003a C468     		ldr	r4, [r0, #12]
 521 003c 24EA0303 		bic	r3, r4, r3
 522              	.LVL45:
 523              		.loc 1 399 7 is_stmt 0 discriminator 4 view .LVU150
 524 0040 C360     		str	r3, [r0, #12]
 525              	.L45:
 400:C:/Users/vasil/STM32Cube/Repository/STM32Cube_FW_F1_V1.8.5/Drivers/STM32F1xx_HAL_Driver/Src\stm32f1xx_hal_gpio.c ****     }
 401:C:/Users/vasil/STM32Cube/Repository/STM32Cube_FW_F1_V1.8.5/Drivers/STM32F1xx_HAL_Driver/Src\stm32f1xx_hal_gpio.c **** 
 402:C:/Users/vasil/STM32Cube/Repository/STM32Cube_FW_F1_V1.8.5/Drivers/STM32F1xx_HAL_Driver/Src\stm32f1xx_hal_gpio.c ****     position++;
 526              		.loc 1 402 5 is_stmt 1 view .LVU151
 527              		.loc 1 402 13 is_stmt 0 view .LVU152
 528 0042 0132     		adds	r2, r2, #1
 529              	.LVL46:
 364:C:/Users/vasil/STM32Cube/Repository/STM32Cube_FW_F1_V1.8.5/Drivers/STM32F1xx_HAL_Driver/Src\stm32f1xx_hal_gpio.c ****   {
 530              		.loc 1 364 33 is_stmt 1 view .LVU153
 531 0044 31FA02F3 		lsrs	r3, r1, r2
 532 0048 40D0     		beq	.L63
 367:C:/Users/vasil/STM32Cube/Repository/STM32Cube_FW_F1_V1.8.5/Drivers/STM32F1xx_HAL_Driver/Src\stm32f1xx_hal_gpio.c **** 
 533              		.loc 1 367 5 view .LVU154
 367:C:/Users/vasil/STM32Cube/Repository/STM32Cube_FW_F1_V1.8.5/Drivers/STM32F1xx_HAL_Driver/Src\stm32f1xx_hal_gpio.c **** 
 534              		.loc 1 367 35 is_stmt 0 view .LVU155
 535 004a 0123     		movs	r3, #1
 536 004c 9340     		lsls	r3, r3, r2
 537              	.LVL47:
 369:C:/Users/vasil/STM32Cube/Repository/STM32Cube_FW_F1_V1.8.5/Drivers/STM32F1xx_HAL_Driver/Src\stm32f1xx_hal_gpio.c ****     {
 538              		.loc 1 369 5 is_stmt 1 view .LVU156
 369:C:/Users/vasil/STM32Cube/Repository/STM32Cube_FW_F1_V1.8.5/Drivers/STM32F1xx_HAL_Driver/Src\stm32f1xx_hal_gpio.c ****     {
 539              		.loc 1 369 8 is_stmt 0 view .LVU157
 540 004e 0B40     		ands	r3, r3, r1
 541              	.LVL48:
 369:C:/Users/vasil/STM32Cube/Repository/STM32Cube_FW_F1_V1.8.5/Drivers/STM32F1xx_HAL_Driver/Src\stm32f1xx_hal_gpio.c ****     {
 542              		.loc 1 369 8 view .LVU158
 543 0050 F7D0     		beq	.L45
 544              	.LVL49:
 545              	.L58:
 374:C:/Users/vasil/STM32Cube/Repository/STM32Cube_FW_F1_V1.8.5/Drivers/STM32F1xx_HAL_Driver/Src\stm32f1xx_hal_gpio.c ****       tmp &= 0x0FuL << (4u * (position & 0x03u));
 546              		.loc 1 374 7 is_stmt 1 view .LVU159
 374:C:/Users/vasil/STM32Cube/Repository/STM32Cube_FW_F1_V1.8.5/Drivers/STM32F1xx_HAL_Driver/Src\stm32f1xx_hal_gpio.c ****       tmp &= 0x0FuL << (4u * (position & 0x03u));
 547              		.loc 1 374 35 is_stmt 0 view .LVU160
 548 0052 9608     		lsrs	r6, r2, #2
 374:C:/Users/vasil/STM32Cube/Repository/STM32Cube_FW_F1_V1.8.5/Drivers/STM32F1xx_HAL_Driver/Src\stm32f1xx_hal_gpio.c ****       tmp &= 0x0FuL << (4u * (position & 0x03u));
 549              		.loc 1 374 11 view .LVU161
 550 0054 B51C     		adds	r5, r6, #2
 551 0056 234C     		ldr	r4, .L67
 552 0058 54F82550 		ldr	r5, [r4, r5, lsl #2]
 553              	.LVL50:
 375:C:/Users/vasil/STM32Cube/Repository/STM32Cube_FW_F1_V1.8.5/Drivers/STM32F1xx_HAL_Driver/Src\stm32f1xx_hal_gpio.c ****       if (tmp == (GPIO_GET_INDEX(GPIOx) << (4u * (position & 0x03u))))
 554              		.loc 1 375 7 is_stmt 1 view .LVU162
 375:C:/Users/vasil/STM32Cube/Repository/STM32Cube_FW_F1_V1.8.5/Drivers/STM32F1xx_HAL_Driver/Src\stm32f1xx_hal_gpio.c ****       if (tmp == (GPIO_GET_INDEX(GPIOx) << (4u * (position & 0x03u))))
 555              		.loc 1 375 40 is_stmt 0 view .LVU163
 556 005c 02F00304 		and	r4, r2, #3
 375:C:/Users/vasil/STM32Cube/Repository/STM32Cube_FW_F1_V1.8.5/Drivers/STM32F1xx_HAL_Driver/Src\stm32f1xx_hal_gpio.c ****       if (tmp == (GPIO_GET_INDEX(GPIOx) << (4u * (position & 0x03u))))
 557              		.loc 1 375 28 view .LVU164
 558 0060 A400     		lsls	r4, r4, #2
 375:C:/Users/vasil/STM32Cube/Repository/STM32Cube_FW_F1_V1.8.5/Drivers/STM32F1xx_HAL_Driver/Src\stm32f1xx_hal_gpio.c ****       if (tmp == (GPIO_GET_INDEX(GPIOx) << (4u * (position & 0x03u))))
ARM GAS  C:\Users\vasil\AppData\Local\Temp\ccc7WSuc.s 			page 19


 559              		.loc 1 375 21 view .LVU165
 560 0062 4FF00F0C 		mov	ip, #15
 561 0066 0CFA04FC 		lsl	ip, ip, r4
 375:C:/Users/vasil/STM32Cube/Repository/STM32Cube_FW_F1_V1.8.5/Drivers/STM32F1xx_HAL_Driver/Src\stm32f1xx_hal_gpio.c ****       if (tmp == (GPIO_GET_INDEX(GPIOx) << (4u * (position & 0x03u))))
 562              		.loc 1 375 11 view .LVU166
 563 006a 0CEA050E 		and	lr, ip, r5
 564              	.LVL51:
 376:C:/Users/vasil/STM32Cube/Repository/STM32Cube_FW_F1_V1.8.5/Drivers/STM32F1xx_HAL_Driver/Src\stm32f1xx_hal_gpio.c ****       {
 565              		.loc 1 376 7 is_stmt 1 view .LVU167
 376:C:/Users/vasil/STM32Cube/Repository/STM32Cube_FW_F1_V1.8.5/Drivers/STM32F1xx_HAL_Driver/Src\stm32f1xx_hal_gpio.c ****       {
 566              		.loc 1 376 19 is_stmt 0 view .LVU168
 567 006e 1E4D     		ldr	r5, .L67+4
 568 0070 A842     		cmp	r0, r5
 569 0072 C9D0     		beq	.L53
 376:C:/Users/vasil/STM32Cube/Repository/STM32Cube_FW_F1_V1.8.5/Drivers/STM32F1xx_HAL_Driver/Src\stm32f1xx_hal_gpio.c ****       {
 570              		.loc 1 376 19 discriminator 1 view .LVU169
 571 0074 05F58065 		add	r5, r5, #1024
 572 0078 A842     		cmp	r0, r5
 573 007a 05D0     		beq	.L54
 376:C:/Users/vasil/STM32Cube/Repository/STM32Cube_FW_F1_V1.8.5/Drivers/STM32F1xx_HAL_Driver/Src\stm32f1xx_hal_gpio.c ****       {
 574              		.loc 1 376 19 discriminator 3 view .LVU170
 575 007c 05F58065 		add	r5, r5, #1024
 576 0080 A842     		cmp	r0, r5
 577 0082 BFD0     		beq	.L64
 376:C:/Users/vasil/STM32Cube/Repository/STM32Cube_FW_F1_V1.8.5/Drivers/STM32F1xx_HAL_Driver/Src\stm32f1xx_hal_gpio.c ****       {
 578              		.loc 1 376 19 view .LVU171
 579 0084 0325     		movs	r5, #3
 580 0086 C0E7     		b	.L46
 581              	.L54:
 582 0088 0125     		movs	r5, #1
 583 008a BEE7     		b	.L46
 584              	.L62:
 379:C:/Users/vasil/STM32Cube/Repository/STM32Cube_FW_F1_V1.8.5/Drivers/STM32F1xx_HAL_Driver/Src\stm32f1xx_hal_gpio.c ****         CLEAR_BIT(EXTI->EMR, (uint32_t)iocurrent);
 585              		.loc 1 379 9 is_stmt 1 view .LVU172
 586 008c 174C     		ldr	r4, .L67+8
 587 008e 2568     		ldr	r5, [r4]
 588 0090 25EA0305 		bic	r5, r5, r3
 589 0094 2560     		str	r5, [r4]
 380:C:/Users/vasil/STM32Cube/Repository/STM32Cube_FW_F1_V1.8.5/Drivers/STM32F1xx_HAL_Driver/Src\stm32f1xx_hal_gpio.c **** 
 590              		.loc 1 380 9 view .LVU173
 591 0096 6568     		ldr	r5, [r4, #4]
 592 0098 25EA0305 		bic	r5, r5, r3
 593 009c 6560     		str	r5, [r4, #4]
 383:C:/Users/vasil/STM32Cube/Repository/STM32Cube_FW_F1_V1.8.5/Drivers/STM32F1xx_HAL_Driver/Src\stm32f1xx_hal_gpio.c ****         CLEAR_BIT(EXTI->RTSR, (uint32_t)iocurrent);
 594              		.loc 1 383 9 view .LVU174
 595 009e E568     		ldr	r5, [r4, #12]
 596 00a0 25EA0305 		bic	r5, r5, r3
 597 00a4 E560     		str	r5, [r4, #12]
 384:C:/Users/vasil/STM32Cube/Repository/STM32Cube_FW_F1_V1.8.5/Drivers/STM32F1xx_HAL_Driver/Src\stm32f1xx_hal_gpio.c ****         
 598              		.loc 1 384 9 view .LVU175
 599 00a6 A568     		ldr	r5, [r4, #8]
 600 00a8 25EA0305 		bic	r5, r5, r3
 601 00ac A560     		str	r5, [r4, #8]
 386:C:/Users/vasil/STM32Cube/Repository/STM32Cube_FW_F1_V1.8.5/Drivers/STM32F1xx_HAL_Driver/Src\stm32f1xx_hal_gpio.c ****         CLEAR_BIT(AFIO->EXTICR[position >> 2u], tmp);
 602              		.loc 1 386 9 view .LVU176
 603              	.LVL52:
 387:C:/Users/vasil/STM32Cube/Repository/STM32Cube_FW_F1_V1.8.5/Drivers/STM32F1xx_HAL_Driver/Src\stm32f1xx_hal_gpio.c ****       }
ARM GAS  C:\Users\vasil\AppData\Local\Temp\ccc7WSuc.s 			page 20


 604              		.loc 1 387 9 view .LVU177
 605 00ae 0D4D     		ldr	r5, .L67
 606 00b0 0236     		adds	r6, r6, #2
 607 00b2 55F82640 		ldr	r4, [r5, r6, lsl #2]
 608 00b6 24EA0C04 		bic	r4, r4, ip
 609 00ba 45F82640 		str	r4, [r5, r6, lsl #2]
 610 00be A8E7     		b	.L47
 611              	.LVL53:
 612              	.L48:
 392:C:/Users/vasil/STM32Cube/Repository/STM32Cube_FW_F1_V1.8.5/Drivers/STM32F1xx_HAL_Driver/Src\stm32f1xx_hal_gpio.c ****       registeroffset = (iocurrent < GPIO_PIN_8) ? (position << 2u) : ((position - 8u) << 2u);
 613              		.loc 1 392 67 is_stmt 0 discriminator 2 view .LVU178
 614 00c0 061D     		adds	r6, r0, #4
 615 00c2 A9E7     		b	.L49
 616              	.LVL54:
 617              	.L50:
 393:C:/Users/vasil/STM32Cube/Repository/STM32Cube_FW_F1_V1.8.5/Drivers/STM32F1xx_HAL_Driver/Src\stm32f1xx_hal_gpio.c **** 
 618              		.loc 1 393 81 discriminator 2 view .LVU179
 619 00c4 A2F10805 		sub	r5, r2, #8
 393:C:/Users/vasil/STM32Cube/Repository/STM32Cube_FW_F1_V1.8.5/Drivers/STM32F1xx_HAL_Driver/Src\stm32f1xx_hal_gpio.c **** 
 620              		.loc 1 393 68 discriminator 2 view .LVU180
 621 00c8 AD00     		lsls	r5, r5, #2
 622 00ca A8E7     		b	.L51
 623              	.LVL55:
 624              	.L63:
 403:C:/Users/vasil/STM32Cube/Repository/STM32Cube_FW_F1_V1.8.5/Drivers/STM32F1xx_HAL_Driver/Src\stm32f1xx_hal_gpio.c ****   }
 404:C:/Users/vasil/STM32Cube/Repository/STM32Cube_FW_F1_V1.8.5/Drivers/STM32F1xx_HAL_Driver/Src\stm32f1xx_hal_gpio.c **** }
 625              		.loc 1 404 1 view .LVU181
 626 00cc 70BD     		pop	{r4, r5, r6, pc}
 627              	.LVL56:
 628              	.L66:
 629              		.cfi_def_cfa_offset 0
 630              		.cfi_restore 4
 631              		.cfi_restore 5
 632              		.cfi_restore 6
 633              		.cfi_restore 14
 402:C:/Users/vasil/STM32Cube/Repository/STM32Cube_FW_F1_V1.8.5/Drivers/STM32F1xx_HAL_Driver/Src\stm32f1xx_hal_gpio.c ****   }
 634              		.loc 1 402 5 is_stmt 1 view .LVU182
 402:C:/Users/vasil/STM32Cube/Repository/STM32Cube_FW_F1_V1.8.5/Drivers/STM32F1xx_HAL_Driver/Src\stm32f1xx_hal_gpio.c ****   }
 635              		.loc 1 402 13 is_stmt 0 view .LVU183
 636 00ce 0132     		adds	r2, r2, #1
 637              	.LVL57:
 638              	.L57:
 364:C:/Users/vasil/STM32Cube/Repository/STM32Cube_FW_F1_V1.8.5/Drivers/STM32F1xx_HAL_Driver/Src\stm32f1xx_hal_gpio.c ****   {
 639              		.loc 1 364 33 is_stmt 1 view .LVU184
 640 00d0 31FA02F3 		lsrs	r3, r1, r2
 641 00d4 05D0     		beq	.L65
 367:C:/Users/vasil/STM32Cube/Repository/STM32Cube_FW_F1_V1.8.5/Drivers/STM32F1xx_HAL_Driver/Src\stm32f1xx_hal_gpio.c **** 
 642              		.loc 1 367 5 view .LVU185
 367:C:/Users/vasil/STM32Cube/Repository/STM32Cube_FW_F1_V1.8.5/Drivers/STM32F1xx_HAL_Driver/Src\stm32f1xx_hal_gpio.c **** 
 643              		.loc 1 367 35 is_stmt 0 view .LVU186
 644 00d6 0123     		movs	r3, #1
 645 00d8 9340     		lsls	r3, r3, r2
 646              	.LVL58:
 369:C:/Users/vasil/STM32Cube/Repository/STM32Cube_FW_F1_V1.8.5/Drivers/STM32F1xx_HAL_Driver/Src\stm32f1xx_hal_gpio.c ****     {
 647              		.loc 1 369 5 is_stmt 1 view .LVU187
 369:C:/Users/vasil/STM32Cube/Repository/STM32Cube_FW_F1_V1.8.5/Drivers/STM32F1xx_HAL_Driver/Src\stm32f1xx_hal_gpio.c ****     {
 648              		.loc 1 369 8 is_stmt 0 view .LVU188
ARM GAS  C:\Users\vasil\AppData\Local\Temp\ccc7WSuc.s 			page 21


 649 00da 0B40     		ands	r3, r3, r1
 650              	.LVL59:
 369:C:/Users/vasil/STM32Cube/Repository/STM32Cube_FW_F1_V1.8.5/Drivers/STM32F1xx_HAL_Driver/Src\stm32f1xx_hal_gpio.c ****     {
 651              		.loc 1 369 8 view .LVU189
 652 00dc F7D0     		beq	.L66
 352:C:/Users/vasil/STM32Cube/Repository/STM32Cube_FW_F1_V1.8.5/Drivers/STM32F1xx_HAL_Driver/Src\stm32f1xx_hal_gpio.c ****   uint32_t position = 0x00u;
 653              		.loc 1 352 1 view .LVU190
 654 00de 70B5     		push	{r4, r5, r6, lr}
 655              		.cfi_def_cfa_offset 16
 656              		.cfi_offset 4, -16
 657              		.cfi_offset 5, -12
 658              		.cfi_offset 6, -8
 659              		.cfi_offset 14, -4
 660 00e0 B7E7     		b	.L58
 661              	.LVL60:
 662              	.L65:
 663              		.cfi_def_cfa_offset 0
 664              		.cfi_restore 4
 665              		.cfi_restore 5
 666              		.cfi_restore 6
 667              		.cfi_restore 14
 352:C:/Users/vasil/STM32Cube/Repository/STM32Cube_FW_F1_V1.8.5/Drivers/STM32F1xx_HAL_Driver/Src\stm32f1xx_hal_gpio.c ****   uint32_t position = 0x00u;
 668              		.loc 1 352 1 view .LVU191
 669 00e2 7047     		bx	lr
 670              	.L68:
 671              		.align	2
 672              	.L67:
 673 00e4 00000140 		.word	1073807360
 674 00e8 00080140 		.word	1073809408
 675 00ec 00040140 		.word	1073808384
 676              		.cfi_endproc
 677              	.LFE66:
 679              		.section	.text.HAL_GPIO_ReadPin,"ax",%progbits
 680              		.align	1
 681              		.global	HAL_GPIO_ReadPin
 682              		.syntax unified
 683              		.thumb
 684              		.thumb_func
 686              	HAL_GPIO_ReadPin:
 687              	.LVL61:
 688              	.LFB67:
 405:C:/Users/vasil/STM32Cube/Repository/STM32Cube_FW_F1_V1.8.5/Drivers/STM32F1xx_HAL_Driver/Src\stm32f1xx_hal_gpio.c **** 
 406:C:/Users/vasil/STM32Cube/Repository/STM32Cube_FW_F1_V1.8.5/Drivers/STM32F1xx_HAL_Driver/Src\stm32f1xx_hal_gpio.c **** /**
 407:C:/Users/vasil/STM32Cube/Repository/STM32Cube_FW_F1_V1.8.5/Drivers/STM32F1xx_HAL_Driver/Src\stm32f1xx_hal_gpio.c ****   * @}
 408:C:/Users/vasil/STM32Cube/Repository/STM32Cube_FW_F1_V1.8.5/Drivers/STM32F1xx_HAL_Driver/Src\stm32f1xx_hal_gpio.c ****   */
 409:C:/Users/vasil/STM32Cube/Repository/STM32Cube_FW_F1_V1.8.5/Drivers/STM32F1xx_HAL_Driver/Src\stm32f1xx_hal_gpio.c **** 
 410:C:/Users/vasil/STM32Cube/Repository/STM32Cube_FW_F1_V1.8.5/Drivers/STM32F1xx_HAL_Driver/Src\stm32f1xx_hal_gpio.c **** /** @defgroup GPIO_Exported_Functions_Group2 IO operation functions
 411:C:/Users/vasil/STM32Cube/Repository/STM32Cube_FW_F1_V1.8.5/Drivers/STM32F1xx_HAL_Driver/Src\stm32f1xx_hal_gpio.c ****  *  @brief   GPIO Read and Write
 412:C:/Users/vasil/STM32Cube/Repository/STM32Cube_FW_F1_V1.8.5/Drivers/STM32F1xx_HAL_Driver/Src\stm32f1xx_hal_gpio.c ****  *
 413:C:/Users/vasil/STM32Cube/Repository/STM32Cube_FW_F1_V1.8.5/Drivers/STM32F1xx_HAL_Driver/Src\stm32f1xx_hal_gpio.c **** @verbatim
 414:C:/Users/vasil/STM32Cube/Repository/STM32Cube_FW_F1_V1.8.5/Drivers/STM32F1xx_HAL_Driver/Src\stm32f1xx_hal_gpio.c ****  ===============================================================================
 415:C:/Users/vasil/STM32Cube/Repository/STM32Cube_FW_F1_V1.8.5/Drivers/STM32F1xx_HAL_Driver/Src\stm32f1xx_hal_gpio.c ****                        ##### IO operation functions #####
 416:C:/Users/vasil/STM32Cube/Repository/STM32Cube_FW_F1_V1.8.5/Drivers/STM32F1xx_HAL_Driver/Src\stm32f1xx_hal_gpio.c ****  ===============================================================================
 417:C:/Users/vasil/STM32Cube/Repository/STM32Cube_FW_F1_V1.8.5/Drivers/STM32F1xx_HAL_Driver/Src\stm32f1xx_hal_gpio.c ****   [..]
 418:C:/Users/vasil/STM32Cube/Repository/STM32Cube_FW_F1_V1.8.5/Drivers/STM32F1xx_HAL_Driver/Src\stm32f1xx_hal_gpio.c ****     This subsection provides a set of functions allowing to manage the GPIOs.
 419:C:/Users/vasil/STM32Cube/Repository/STM32Cube_FW_F1_V1.8.5/Drivers/STM32F1xx_HAL_Driver/Src\stm32f1xx_hal_gpio.c **** 
 420:C:/Users/vasil/STM32Cube/Repository/STM32Cube_FW_F1_V1.8.5/Drivers/STM32F1xx_HAL_Driver/Src\stm32f1xx_hal_gpio.c **** @endverbatim
ARM GAS  C:\Users\vasil\AppData\Local\Temp\ccc7WSuc.s 			page 22


 421:C:/Users/vasil/STM32Cube/Repository/STM32Cube_FW_F1_V1.8.5/Drivers/STM32F1xx_HAL_Driver/Src\stm32f1xx_hal_gpio.c ****   * @{
 422:C:/Users/vasil/STM32Cube/Repository/STM32Cube_FW_F1_V1.8.5/Drivers/STM32F1xx_HAL_Driver/Src\stm32f1xx_hal_gpio.c ****   */
 423:C:/Users/vasil/STM32Cube/Repository/STM32Cube_FW_F1_V1.8.5/Drivers/STM32F1xx_HAL_Driver/Src\stm32f1xx_hal_gpio.c **** 
 424:C:/Users/vasil/STM32Cube/Repository/STM32Cube_FW_F1_V1.8.5/Drivers/STM32F1xx_HAL_Driver/Src\stm32f1xx_hal_gpio.c **** /**
 425:C:/Users/vasil/STM32Cube/Repository/STM32Cube_FW_F1_V1.8.5/Drivers/STM32F1xx_HAL_Driver/Src\stm32f1xx_hal_gpio.c ****   * @brief  Reads the specified input port pin.
 426:C:/Users/vasil/STM32Cube/Repository/STM32Cube_FW_F1_V1.8.5/Drivers/STM32F1xx_HAL_Driver/Src\stm32f1xx_hal_gpio.c ****   * @param  GPIOx: where x can be (A..G depending on device used) to select the GPIO peripheral
 427:C:/Users/vasil/STM32Cube/Repository/STM32Cube_FW_F1_V1.8.5/Drivers/STM32F1xx_HAL_Driver/Src\stm32f1xx_hal_gpio.c ****   * @param  GPIO_Pin: specifies the port bit to read.
 428:C:/Users/vasil/STM32Cube/Repository/STM32Cube_FW_F1_V1.8.5/Drivers/STM32F1xx_HAL_Driver/Src\stm32f1xx_hal_gpio.c ****   *         This parameter can be GPIO_PIN_x where x can be (0..15).
 429:C:/Users/vasil/STM32Cube/Repository/STM32Cube_FW_F1_V1.8.5/Drivers/STM32F1xx_HAL_Driver/Src\stm32f1xx_hal_gpio.c ****   * @retval The input port pin value.
 430:C:/Users/vasil/STM32Cube/Repository/STM32Cube_FW_F1_V1.8.5/Drivers/STM32F1xx_HAL_Driver/Src\stm32f1xx_hal_gpio.c ****   */
 431:C:/Users/vasil/STM32Cube/Repository/STM32Cube_FW_F1_V1.8.5/Drivers/STM32F1xx_HAL_Driver/Src\stm32f1xx_hal_gpio.c **** GPIO_PinState HAL_GPIO_ReadPin(GPIO_TypeDef *GPIOx, uint16_t GPIO_Pin)
 432:C:/Users/vasil/STM32Cube/Repository/STM32Cube_FW_F1_V1.8.5/Drivers/STM32F1xx_HAL_Driver/Src\stm32f1xx_hal_gpio.c **** {
 689              		.loc 1 432 1 is_stmt 1 view -0
 690              		.cfi_startproc
 691              		@ args = 0, pretend = 0, frame = 0
 692              		@ frame_needed = 0, uses_anonymous_args = 0
 693              		@ link register save eliminated.
 433:C:/Users/vasil/STM32Cube/Repository/STM32Cube_FW_F1_V1.8.5/Drivers/STM32F1xx_HAL_Driver/Src\stm32f1xx_hal_gpio.c ****   GPIO_PinState bitstatus;
 694              		.loc 1 433 3 view .LVU193
 434:C:/Users/vasil/STM32Cube/Repository/STM32Cube_FW_F1_V1.8.5/Drivers/STM32F1xx_HAL_Driver/Src\stm32f1xx_hal_gpio.c **** 
 435:C:/Users/vasil/STM32Cube/Repository/STM32Cube_FW_F1_V1.8.5/Drivers/STM32F1xx_HAL_Driver/Src\stm32f1xx_hal_gpio.c ****   /* Check the parameters */
 436:C:/Users/vasil/STM32Cube/Repository/STM32Cube_FW_F1_V1.8.5/Drivers/STM32F1xx_HAL_Driver/Src\stm32f1xx_hal_gpio.c ****   assert_param(IS_GPIO_PIN(GPIO_Pin));
 695              		.loc 1 436 3 view .LVU194
 437:C:/Users/vasil/STM32Cube/Repository/STM32Cube_FW_F1_V1.8.5/Drivers/STM32F1xx_HAL_Driver/Src\stm32f1xx_hal_gpio.c **** 
 438:C:/Users/vasil/STM32Cube/Repository/STM32Cube_FW_F1_V1.8.5/Drivers/STM32F1xx_HAL_Driver/Src\stm32f1xx_hal_gpio.c ****   if ((GPIOx->IDR & GPIO_Pin) != (uint32_t)GPIO_PIN_RESET)
 696              		.loc 1 438 3 view .LVU195
 697              		.loc 1 438 13 is_stmt 0 view .LVU196
 698 0000 8368     		ldr	r3, [r0, #8]
 699              		.loc 1 438 6 view .LVU197
 700 0002 1942     		tst	r1, r3
 701 0004 01D0     		beq	.L71
 439:C:/Users/vasil/STM32Cube/Repository/STM32Cube_FW_F1_V1.8.5/Drivers/STM32F1xx_HAL_Driver/Src\stm32f1xx_hal_gpio.c ****   {
 440:C:/Users/vasil/STM32Cube/Repository/STM32Cube_FW_F1_V1.8.5/Drivers/STM32F1xx_HAL_Driver/Src\stm32f1xx_hal_gpio.c ****     bitstatus = GPIO_PIN_SET;
 702              		.loc 1 440 15 view .LVU198
 703 0006 0120     		movs	r0, #1
 704              	.LVL62:
 705              		.loc 1 440 15 view .LVU199
 706 0008 7047     		bx	lr
 707              	.LVL63:
 708              	.L71:
 441:C:/Users/vasil/STM32Cube/Repository/STM32Cube_FW_F1_V1.8.5/Drivers/STM32F1xx_HAL_Driver/Src\stm32f1xx_hal_gpio.c ****   }
 442:C:/Users/vasil/STM32Cube/Repository/STM32Cube_FW_F1_V1.8.5/Drivers/STM32F1xx_HAL_Driver/Src\stm32f1xx_hal_gpio.c ****   else
 443:C:/Users/vasil/STM32Cube/Repository/STM32Cube_FW_F1_V1.8.5/Drivers/STM32F1xx_HAL_Driver/Src\stm32f1xx_hal_gpio.c ****   {
 444:C:/Users/vasil/STM32Cube/Repository/STM32Cube_FW_F1_V1.8.5/Drivers/STM32F1xx_HAL_Driver/Src\stm32f1xx_hal_gpio.c ****     bitstatus = GPIO_PIN_RESET;
 709              		.loc 1 444 15 view .LVU200
 710 000a 0020     		movs	r0, #0
 711              	.LVL64:
 445:C:/Users/vasil/STM32Cube/Repository/STM32Cube_FW_F1_V1.8.5/Drivers/STM32F1xx_HAL_Driver/Src\stm32f1xx_hal_gpio.c ****   }
 446:C:/Users/vasil/STM32Cube/Repository/STM32Cube_FW_F1_V1.8.5/Drivers/STM32F1xx_HAL_Driver/Src\stm32f1xx_hal_gpio.c ****   return bitstatus;
 712              		.loc 1 446 3 is_stmt 1 view .LVU201
 447:C:/Users/vasil/STM32Cube/Repository/STM32Cube_FW_F1_V1.8.5/Drivers/STM32F1xx_HAL_Driver/Src\stm32f1xx_hal_gpio.c **** }
 713              		.loc 1 447 1 is_stmt 0 view .LVU202
 714 000c 7047     		bx	lr
 715              		.cfi_endproc
 716              	.LFE67:
 718              		.section	.text.HAL_GPIO_WritePin,"ax",%progbits
 719              		.align	1
ARM GAS  C:\Users\vasil\AppData\Local\Temp\ccc7WSuc.s 			page 23


 720              		.global	HAL_GPIO_WritePin
 721              		.syntax unified
 722              		.thumb
 723              		.thumb_func
 725              	HAL_GPIO_WritePin:
 726              	.LVL65:
 727              	.LFB68:
 448:C:/Users/vasil/STM32Cube/Repository/STM32Cube_FW_F1_V1.8.5/Drivers/STM32F1xx_HAL_Driver/Src\stm32f1xx_hal_gpio.c **** 
 449:C:/Users/vasil/STM32Cube/Repository/STM32Cube_FW_F1_V1.8.5/Drivers/STM32F1xx_HAL_Driver/Src\stm32f1xx_hal_gpio.c **** /**
 450:C:/Users/vasil/STM32Cube/Repository/STM32Cube_FW_F1_V1.8.5/Drivers/STM32F1xx_HAL_Driver/Src\stm32f1xx_hal_gpio.c ****   * @brief  Sets or clears the selected data port bit.
 451:C:/Users/vasil/STM32Cube/Repository/STM32Cube_FW_F1_V1.8.5/Drivers/STM32F1xx_HAL_Driver/Src\stm32f1xx_hal_gpio.c ****   *
 452:C:/Users/vasil/STM32Cube/Repository/STM32Cube_FW_F1_V1.8.5/Drivers/STM32F1xx_HAL_Driver/Src\stm32f1xx_hal_gpio.c ****   * @note   This function uses GPIOx_BSRR register to allow atomic read/modify
 453:C:/Users/vasil/STM32Cube/Repository/STM32Cube_FW_F1_V1.8.5/Drivers/STM32F1xx_HAL_Driver/Src\stm32f1xx_hal_gpio.c ****   *         accesses. In this way, there is no risk of an IRQ occurring between
 454:C:/Users/vasil/STM32Cube/Repository/STM32Cube_FW_F1_V1.8.5/Drivers/STM32F1xx_HAL_Driver/Src\stm32f1xx_hal_gpio.c ****   *         the read and the modify access.
 455:C:/Users/vasil/STM32Cube/Repository/STM32Cube_FW_F1_V1.8.5/Drivers/STM32F1xx_HAL_Driver/Src\stm32f1xx_hal_gpio.c ****   *
 456:C:/Users/vasil/STM32Cube/Repository/STM32Cube_FW_F1_V1.8.5/Drivers/STM32F1xx_HAL_Driver/Src\stm32f1xx_hal_gpio.c ****   * @param  GPIOx: where x can be (A..G depending on device used) to select the GPIO peripheral
 457:C:/Users/vasil/STM32Cube/Repository/STM32Cube_FW_F1_V1.8.5/Drivers/STM32F1xx_HAL_Driver/Src\stm32f1xx_hal_gpio.c ****   * @param  GPIO_Pin: specifies the port bit to be written.
 458:C:/Users/vasil/STM32Cube/Repository/STM32Cube_FW_F1_V1.8.5/Drivers/STM32F1xx_HAL_Driver/Src\stm32f1xx_hal_gpio.c ****   *          This parameter can be one of GPIO_PIN_x where x can be (0..15).
 459:C:/Users/vasil/STM32Cube/Repository/STM32Cube_FW_F1_V1.8.5/Drivers/STM32F1xx_HAL_Driver/Src\stm32f1xx_hal_gpio.c ****   * @param  PinState: specifies the value to be written to the selected bit.
 460:C:/Users/vasil/STM32Cube/Repository/STM32Cube_FW_F1_V1.8.5/Drivers/STM32F1xx_HAL_Driver/Src\stm32f1xx_hal_gpio.c ****   *          This parameter can be one of the GPIO_PinState enum values:
 461:C:/Users/vasil/STM32Cube/Repository/STM32Cube_FW_F1_V1.8.5/Drivers/STM32F1xx_HAL_Driver/Src\stm32f1xx_hal_gpio.c ****   *            @arg GPIO_PIN_RESET: to clear the port pin
 462:C:/Users/vasil/STM32Cube/Repository/STM32Cube_FW_F1_V1.8.5/Drivers/STM32F1xx_HAL_Driver/Src\stm32f1xx_hal_gpio.c ****   *            @arg GPIO_PIN_SET: to set the port pin
 463:C:/Users/vasil/STM32Cube/Repository/STM32Cube_FW_F1_V1.8.5/Drivers/STM32F1xx_HAL_Driver/Src\stm32f1xx_hal_gpio.c ****   * @retval None
 464:C:/Users/vasil/STM32Cube/Repository/STM32Cube_FW_F1_V1.8.5/Drivers/STM32F1xx_HAL_Driver/Src\stm32f1xx_hal_gpio.c ****   */
 465:C:/Users/vasil/STM32Cube/Repository/STM32Cube_FW_F1_V1.8.5/Drivers/STM32F1xx_HAL_Driver/Src\stm32f1xx_hal_gpio.c **** void HAL_GPIO_WritePin(GPIO_TypeDef *GPIOx, uint16_t GPIO_Pin, GPIO_PinState PinState)
 466:C:/Users/vasil/STM32Cube/Repository/STM32Cube_FW_F1_V1.8.5/Drivers/STM32F1xx_HAL_Driver/Src\stm32f1xx_hal_gpio.c **** {
 728              		.loc 1 466 1 is_stmt 1 view -0
 729              		.cfi_startproc
 730              		@ args = 0, pretend = 0, frame = 0
 731              		@ frame_needed = 0, uses_anonymous_args = 0
 732              		@ link register save eliminated.
 467:C:/Users/vasil/STM32Cube/Repository/STM32Cube_FW_F1_V1.8.5/Drivers/STM32F1xx_HAL_Driver/Src\stm32f1xx_hal_gpio.c ****   /* Check the parameters */
 468:C:/Users/vasil/STM32Cube/Repository/STM32Cube_FW_F1_V1.8.5/Drivers/STM32F1xx_HAL_Driver/Src\stm32f1xx_hal_gpio.c ****   assert_param(IS_GPIO_PIN(GPIO_Pin));
 733              		.loc 1 468 3 view .LVU204
 469:C:/Users/vasil/STM32Cube/Repository/STM32Cube_FW_F1_V1.8.5/Drivers/STM32F1xx_HAL_Driver/Src\stm32f1xx_hal_gpio.c ****   assert_param(IS_GPIO_PIN_ACTION(PinState));
 734              		.loc 1 469 3 view .LVU205
 470:C:/Users/vasil/STM32Cube/Repository/STM32Cube_FW_F1_V1.8.5/Drivers/STM32F1xx_HAL_Driver/Src\stm32f1xx_hal_gpio.c **** 
 471:C:/Users/vasil/STM32Cube/Repository/STM32Cube_FW_F1_V1.8.5/Drivers/STM32F1xx_HAL_Driver/Src\stm32f1xx_hal_gpio.c ****   if (PinState != GPIO_PIN_RESET)
 735              		.loc 1 471 3 view .LVU206
 736              		.loc 1 471 6 is_stmt 0 view .LVU207
 737 0000 0AB1     		cbz	r2, .L73
 472:C:/Users/vasil/STM32Cube/Repository/STM32Cube_FW_F1_V1.8.5/Drivers/STM32F1xx_HAL_Driver/Src\stm32f1xx_hal_gpio.c ****   {
 473:C:/Users/vasil/STM32Cube/Repository/STM32Cube_FW_F1_V1.8.5/Drivers/STM32F1xx_HAL_Driver/Src\stm32f1xx_hal_gpio.c ****     GPIOx->BSRR = GPIO_Pin;
 738              		.loc 1 473 5 is_stmt 1 view .LVU208
 739              		.loc 1 473 17 is_stmt 0 view .LVU209
 740 0002 0161     		str	r1, [r0, #16]
 741 0004 7047     		bx	lr
 742              	.L73:
 474:C:/Users/vasil/STM32Cube/Repository/STM32Cube_FW_F1_V1.8.5/Drivers/STM32F1xx_HAL_Driver/Src\stm32f1xx_hal_gpio.c ****   }
 475:C:/Users/vasil/STM32Cube/Repository/STM32Cube_FW_F1_V1.8.5/Drivers/STM32F1xx_HAL_Driver/Src\stm32f1xx_hal_gpio.c ****   else
 476:C:/Users/vasil/STM32Cube/Repository/STM32Cube_FW_F1_V1.8.5/Drivers/STM32F1xx_HAL_Driver/Src\stm32f1xx_hal_gpio.c ****   {
 477:C:/Users/vasil/STM32Cube/Repository/STM32Cube_FW_F1_V1.8.5/Drivers/STM32F1xx_HAL_Driver/Src\stm32f1xx_hal_gpio.c ****     GPIOx->BSRR = (uint32_t)GPIO_Pin << 16u;
 743              		.loc 1 477 5 is_stmt 1 view .LVU210
 744              		.loc 1 477 38 is_stmt 0 view .LVU211
 745 0006 0904     		lsls	r1, r1, #16
 746              	.LVL66:
 747              		.loc 1 477 17 view .LVU212
ARM GAS  C:\Users\vasil\AppData\Local\Temp\ccc7WSuc.s 			page 24


 748 0008 0161     		str	r1, [r0, #16]
 478:C:/Users/vasil/STM32Cube/Repository/STM32Cube_FW_F1_V1.8.5/Drivers/STM32F1xx_HAL_Driver/Src\stm32f1xx_hal_gpio.c ****   }
 479:C:/Users/vasil/STM32Cube/Repository/STM32Cube_FW_F1_V1.8.5/Drivers/STM32F1xx_HAL_Driver/Src\stm32f1xx_hal_gpio.c **** }
 749              		.loc 1 479 1 view .LVU213
 750 000a 7047     		bx	lr
 751              		.cfi_endproc
 752              	.LFE68:
 754              		.section	.text.HAL_GPIO_TogglePin,"ax",%progbits
 755              		.align	1
 756              		.global	HAL_GPIO_TogglePin
 757              		.syntax unified
 758              		.thumb
 759              		.thumb_func
 761              	HAL_GPIO_TogglePin:
 762              	.LVL67:
 763              	.LFB69:
 480:C:/Users/vasil/STM32Cube/Repository/STM32Cube_FW_F1_V1.8.5/Drivers/STM32F1xx_HAL_Driver/Src\stm32f1xx_hal_gpio.c **** 
 481:C:/Users/vasil/STM32Cube/Repository/STM32Cube_FW_F1_V1.8.5/Drivers/STM32F1xx_HAL_Driver/Src\stm32f1xx_hal_gpio.c **** /**
 482:C:/Users/vasil/STM32Cube/Repository/STM32Cube_FW_F1_V1.8.5/Drivers/STM32F1xx_HAL_Driver/Src\stm32f1xx_hal_gpio.c ****   * @brief  Toggles the specified GPIO pin
 483:C:/Users/vasil/STM32Cube/Repository/STM32Cube_FW_F1_V1.8.5/Drivers/STM32F1xx_HAL_Driver/Src\stm32f1xx_hal_gpio.c ****   * @param  GPIOx: where x can be (A..G depending on device used) to select the GPIO peripheral
 484:C:/Users/vasil/STM32Cube/Repository/STM32Cube_FW_F1_V1.8.5/Drivers/STM32F1xx_HAL_Driver/Src\stm32f1xx_hal_gpio.c ****   * @param  GPIO_Pin: Specifies the pins to be toggled.
 485:C:/Users/vasil/STM32Cube/Repository/STM32Cube_FW_F1_V1.8.5/Drivers/STM32F1xx_HAL_Driver/Src\stm32f1xx_hal_gpio.c ****   * @retval None
 486:C:/Users/vasil/STM32Cube/Repository/STM32Cube_FW_F1_V1.8.5/Drivers/STM32F1xx_HAL_Driver/Src\stm32f1xx_hal_gpio.c ****   */
 487:C:/Users/vasil/STM32Cube/Repository/STM32Cube_FW_F1_V1.8.5/Drivers/STM32F1xx_HAL_Driver/Src\stm32f1xx_hal_gpio.c **** void HAL_GPIO_TogglePin(GPIO_TypeDef *GPIOx, uint16_t GPIO_Pin)
 488:C:/Users/vasil/STM32Cube/Repository/STM32Cube_FW_F1_V1.8.5/Drivers/STM32F1xx_HAL_Driver/Src\stm32f1xx_hal_gpio.c **** {
 764              		.loc 1 488 1 is_stmt 1 view -0
 765              		.cfi_startproc
 766              		@ args = 0, pretend = 0, frame = 0
 767              		@ frame_needed = 0, uses_anonymous_args = 0
 768              		@ link register save eliminated.
 489:C:/Users/vasil/STM32Cube/Repository/STM32Cube_FW_F1_V1.8.5/Drivers/STM32F1xx_HAL_Driver/Src\stm32f1xx_hal_gpio.c ****   uint32_t odr;
 769              		.loc 1 489 3 view .LVU215
 490:C:/Users/vasil/STM32Cube/Repository/STM32Cube_FW_F1_V1.8.5/Drivers/STM32F1xx_HAL_Driver/Src\stm32f1xx_hal_gpio.c **** 
 491:C:/Users/vasil/STM32Cube/Repository/STM32Cube_FW_F1_V1.8.5/Drivers/STM32F1xx_HAL_Driver/Src\stm32f1xx_hal_gpio.c ****   /* Check the parameters */
 492:C:/Users/vasil/STM32Cube/Repository/STM32Cube_FW_F1_V1.8.5/Drivers/STM32F1xx_HAL_Driver/Src\stm32f1xx_hal_gpio.c ****   assert_param(IS_GPIO_PIN(GPIO_Pin));
 770              		.loc 1 492 3 view .LVU216
 493:C:/Users/vasil/STM32Cube/Repository/STM32Cube_FW_F1_V1.8.5/Drivers/STM32F1xx_HAL_Driver/Src\stm32f1xx_hal_gpio.c **** 
 494:C:/Users/vasil/STM32Cube/Repository/STM32Cube_FW_F1_V1.8.5/Drivers/STM32F1xx_HAL_Driver/Src\stm32f1xx_hal_gpio.c ****   /* get current Output Data Register value */
 495:C:/Users/vasil/STM32Cube/Repository/STM32Cube_FW_F1_V1.8.5/Drivers/STM32F1xx_HAL_Driver/Src\stm32f1xx_hal_gpio.c ****   odr = GPIOx->ODR;
 771              		.loc 1 495 3 view .LVU217
 772              		.loc 1 495 7 is_stmt 0 view .LVU218
 773 0000 C368     		ldr	r3, [r0, #12]
 774              	.LVL68:
 496:C:/Users/vasil/STM32Cube/Repository/STM32Cube_FW_F1_V1.8.5/Drivers/STM32F1xx_HAL_Driver/Src\stm32f1xx_hal_gpio.c **** 
 497:C:/Users/vasil/STM32Cube/Repository/STM32Cube_FW_F1_V1.8.5/Drivers/STM32F1xx_HAL_Driver/Src\stm32f1xx_hal_gpio.c ****   /* Set selected pins that were at low level, and reset ones that were high */
 498:C:/Users/vasil/STM32Cube/Repository/STM32Cube_FW_F1_V1.8.5/Drivers/STM32F1xx_HAL_Driver/Src\stm32f1xx_hal_gpio.c ****   GPIOx->BSRR = ((odr & GPIO_Pin) << GPIO_NUMBER) | (~odr & GPIO_Pin);
 775              		.loc 1 498 3 is_stmt 1 view .LVU219
 776              		.loc 1 498 23 is_stmt 0 view .LVU220
 777 0002 01EA0302 		and	r2, r1, r3
 778              		.loc 1 498 59 view .LVU221
 779 0006 21EA0301 		bic	r1, r1, r3
 780              	.LVL69:
 781              		.loc 1 498 51 view .LVU222
 782 000a 41EA0241 		orr	r1, r1, r2, lsl #16
 783              		.loc 1 498 15 view .LVU223
 784 000e 0161     		str	r1, [r0, #16]
 499:C:/Users/vasil/STM32Cube/Repository/STM32Cube_FW_F1_V1.8.5/Drivers/STM32F1xx_HAL_Driver/Src\stm32f1xx_hal_gpio.c **** }
ARM GAS  C:\Users\vasil\AppData\Local\Temp\ccc7WSuc.s 			page 25


 785              		.loc 1 499 1 view .LVU224
 786 0010 7047     		bx	lr
 787              		.cfi_endproc
 788              	.LFE69:
 790              		.section	.text.HAL_GPIO_LockPin,"ax",%progbits
 791              		.align	1
 792              		.global	HAL_GPIO_LockPin
 793              		.syntax unified
 794              		.thumb
 795              		.thumb_func
 797              	HAL_GPIO_LockPin:
 798              	.LVL70:
 799              	.LFB70:
 500:C:/Users/vasil/STM32Cube/Repository/STM32Cube_FW_F1_V1.8.5/Drivers/STM32F1xx_HAL_Driver/Src\stm32f1xx_hal_gpio.c **** 
 501:C:/Users/vasil/STM32Cube/Repository/STM32Cube_FW_F1_V1.8.5/Drivers/STM32F1xx_HAL_Driver/Src\stm32f1xx_hal_gpio.c **** /**
 502:C:/Users/vasil/STM32Cube/Repository/STM32Cube_FW_F1_V1.8.5/Drivers/STM32F1xx_HAL_Driver/Src\stm32f1xx_hal_gpio.c **** * @brief  Locks GPIO Pins configuration registers.
 503:C:/Users/vasil/STM32Cube/Repository/STM32Cube_FW_F1_V1.8.5/Drivers/STM32F1xx_HAL_Driver/Src\stm32f1xx_hal_gpio.c **** * @note   The locking mechanism allows the IO configuration to be frozen. When the LOCK sequence
 504:C:/Users/vasil/STM32Cube/Repository/STM32Cube_FW_F1_V1.8.5/Drivers/STM32F1xx_HAL_Driver/Src\stm32f1xx_hal_gpio.c **** *         has been applied on a port bit, it is no longer possible to modify the value of the port 
 505:C:/Users/vasil/STM32Cube/Repository/STM32Cube_FW_F1_V1.8.5/Drivers/STM32F1xx_HAL_Driver/Src\stm32f1xx_hal_gpio.c **** *         the next reset.
 506:C:/Users/vasil/STM32Cube/Repository/STM32Cube_FW_F1_V1.8.5/Drivers/STM32F1xx_HAL_Driver/Src\stm32f1xx_hal_gpio.c **** * @param  GPIOx: where x can be (A..G depending on device used) to select the GPIO peripheral
 507:C:/Users/vasil/STM32Cube/Repository/STM32Cube_FW_F1_V1.8.5/Drivers/STM32F1xx_HAL_Driver/Src\stm32f1xx_hal_gpio.c **** * @param  GPIO_Pin: specifies the port bit to be locked.
 508:C:/Users/vasil/STM32Cube/Repository/STM32Cube_FW_F1_V1.8.5/Drivers/STM32F1xx_HAL_Driver/Src\stm32f1xx_hal_gpio.c **** *         This parameter can be any combination of GPIO_Pin_x where x can be (0..15).
 509:C:/Users/vasil/STM32Cube/Repository/STM32Cube_FW_F1_V1.8.5/Drivers/STM32F1xx_HAL_Driver/Src\stm32f1xx_hal_gpio.c **** * @retval None
 510:C:/Users/vasil/STM32Cube/Repository/STM32Cube_FW_F1_V1.8.5/Drivers/STM32F1xx_HAL_Driver/Src\stm32f1xx_hal_gpio.c **** */
 511:C:/Users/vasil/STM32Cube/Repository/STM32Cube_FW_F1_V1.8.5/Drivers/STM32F1xx_HAL_Driver/Src\stm32f1xx_hal_gpio.c **** HAL_StatusTypeDef HAL_GPIO_LockPin(GPIO_TypeDef *GPIOx, uint16_t GPIO_Pin)
 512:C:/Users/vasil/STM32Cube/Repository/STM32Cube_FW_F1_V1.8.5/Drivers/STM32F1xx_HAL_Driver/Src\stm32f1xx_hal_gpio.c **** {
 800              		.loc 1 512 1 is_stmt 1 view -0
 801              		.cfi_startproc
 802              		@ args = 0, pretend = 0, frame = 8
 803              		@ frame_needed = 0, uses_anonymous_args = 0
 804              		@ link register save eliminated.
 805              		.loc 1 512 1 is_stmt 0 view .LVU226
 806 0000 82B0     		sub	sp, sp, #8
 807              		.cfi_def_cfa_offset 8
 513:C:/Users/vasil/STM32Cube/Repository/STM32Cube_FW_F1_V1.8.5/Drivers/STM32F1xx_HAL_Driver/Src\stm32f1xx_hal_gpio.c ****   __IO uint32_t tmp = GPIO_LCKR_LCKK;
 808              		.loc 1 513 3 is_stmt 1 view .LVU227
 809              		.loc 1 513 17 is_stmt 0 view .LVU228
 810 0002 4FF48033 		mov	r3, #65536
 811 0006 0193     		str	r3, [sp, #4]
 514:C:/Users/vasil/STM32Cube/Repository/STM32Cube_FW_F1_V1.8.5/Drivers/STM32F1xx_HAL_Driver/Src\stm32f1xx_hal_gpio.c **** 
 515:C:/Users/vasil/STM32Cube/Repository/STM32Cube_FW_F1_V1.8.5/Drivers/STM32F1xx_HAL_Driver/Src\stm32f1xx_hal_gpio.c ****   /* Check the parameters */
 516:C:/Users/vasil/STM32Cube/Repository/STM32Cube_FW_F1_V1.8.5/Drivers/STM32F1xx_HAL_Driver/Src\stm32f1xx_hal_gpio.c ****   assert_param(IS_GPIO_LOCK_INSTANCE(GPIOx));
 812              		.loc 1 516 3 is_stmt 1 view .LVU229
 517:C:/Users/vasil/STM32Cube/Repository/STM32Cube_FW_F1_V1.8.5/Drivers/STM32F1xx_HAL_Driver/Src\stm32f1xx_hal_gpio.c ****   assert_param(IS_GPIO_PIN(GPIO_Pin));
 813              		.loc 1 517 3 view .LVU230
 518:C:/Users/vasil/STM32Cube/Repository/STM32Cube_FW_F1_V1.8.5/Drivers/STM32F1xx_HAL_Driver/Src\stm32f1xx_hal_gpio.c **** 
 519:C:/Users/vasil/STM32Cube/Repository/STM32Cube_FW_F1_V1.8.5/Drivers/STM32F1xx_HAL_Driver/Src\stm32f1xx_hal_gpio.c ****   /* Apply lock key write sequence */
 520:C:/Users/vasil/STM32Cube/Repository/STM32Cube_FW_F1_V1.8.5/Drivers/STM32F1xx_HAL_Driver/Src\stm32f1xx_hal_gpio.c ****   SET_BIT(tmp, GPIO_Pin);
 814              		.loc 1 520 3 view .LVU231
 815 0008 019B     		ldr	r3, [sp, #4]
 816 000a 0B43     		orrs	r3, r3, r1
 817 000c 0193     		str	r3, [sp, #4]
 521:C:/Users/vasil/STM32Cube/Repository/STM32Cube_FW_F1_V1.8.5/Drivers/STM32F1xx_HAL_Driver/Src\stm32f1xx_hal_gpio.c ****   /* Set LCKx bit(s): LCKK='1' + LCK[15-0] */
 522:C:/Users/vasil/STM32Cube/Repository/STM32Cube_FW_F1_V1.8.5/Drivers/STM32F1xx_HAL_Driver/Src\stm32f1xx_hal_gpio.c ****   GPIOx->LCKR = tmp;
 818              		.loc 1 522 3 view .LVU232
 819              		.loc 1 522 15 is_stmt 0 view .LVU233
 820 000e 019B     		ldr	r3, [sp, #4]
ARM GAS  C:\Users\vasil\AppData\Local\Temp\ccc7WSuc.s 			page 26


 821 0010 8361     		str	r3, [r0, #24]
 523:C:/Users/vasil/STM32Cube/Repository/STM32Cube_FW_F1_V1.8.5/Drivers/STM32F1xx_HAL_Driver/Src\stm32f1xx_hal_gpio.c ****   /* Reset LCKx bit(s): LCKK='0' + LCK[15-0] */
 524:C:/Users/vasil/STM32Cube/Repository/STM32Cube_FW_F1_V1.8.5/Drivers/STM32F1xx_HAL_Driver/Src\stm32f1xx_hal_gpio.c ****   GPIOx->LCKR = GPIO_Pin;
 822              		.loc 1 524 3 is_stmt 1 view .LVU234
 823              		.loc 1 524 15 is_stmt 0 view .LVU235
 824 0012 8161     		str	r1, [r0, #24]
 525:C:/Users/vasil/STM32Cube/Repository/STM32Cube_FW_F1_V1.8.5/Drivers/STM32F1xx_HAL_Driver/Src\stm32f1xx_hal_gpio.c ****   /* Set LCKx bit(s): LCKK='1' + LCK[15-0] */
 526:C:/Users/vasil/STM32Cube/Repository/STM32Cube_FW_F1_V1.8.5/Drivers/STM32F1xx_HAL_Driver/Src\stm32f1xx_hal_gpio.c ****   GPIOx->LCKR = tmp;
 825              		.loc 1 526 3 is_stmt 1 view .LVU236
 826              		.loc 1 526 15 is_stmt 0 view .LVU237
 827 0014 019B     		ldr	r3, [sp, #4]
 828 0016 8361     		str	r3, [r0, #24]
 527:C:/Users/vasil/STM32Cube/Repository/STM32Cube_FW_F1_V1.8.5/Drivers/STM32F1xx_HAL_Driver/Src\stm32f1xx_hal_gpio.c ****   /* Read LCKK register. This read is mandatory to complete key lock sequence */
 528:C:/Users/vasil/STM32Cube/Repository/STM32Cube_FW_F1_V1.8.5/Drivers/STM32F1xx_HAL_Driver/Src\stm32f1xx_hal_gpio.c ****   tmp = GPIOx->LCKR;
 829              		.loc 1 528 3 is_stmt 1 view .LVU238
 830              		.loc 1 528 14 is_stmt 0 view .LVU239
 831 0018 8369     		ldr	r3, [r0, #24]
 832              		.loc 1 528 7 view .LVU240
 833 001a 0193     		str	r3, [sp, #4]
 529:C:/Users/vasil/STM32Cube/Repository/STM32Cube_FW_F1_V1.8.5/Drivers/STM32F1xx_HAL_Driver/Src\stm32f1xx_hal_gpio.c **** 
 530:C:/Users/vasil/STM32Cube/Repository/STM32Cube_FW_F1_V1.8.5/Drivers/STM32F1xx_HAL_Driver/Src\stm32f1xx_hal_gpio.c ****   /* read again in order to confirm lock is active */
 531:C:/Users/vasil/STM32Cube/Repository/STM32Cube_FW_F1_V1.8.5/Drivers/STM32F1xx_HAL_Driver/Src\stm32f1xx_hal_gpio.c ****   if ((uint32_t)(GPIOx->LCKR & GPIO_LCKR_LCKK))
 834              		.loc 1 531 3 is_stmt 1 view .LVU241
 835              		.loc 1 531 23 is_stmt 0 view .LVU242
 836 001c 8369     		ldr	r3, [r0, #24]
 837              		.loc 1 531 6 view .LVU243
 838 001e 13F4803F 		tst	r3, #65536
 839 0022 02D0     		beq	.L78
 532:C:/Users/vasil/STM32Cube/Repository/STM32Cube_FW_F1_V1.8.5/Drivers/STM32F1xx_HAL_Driver/Src\stm32f1xx_hal_gpio.c ****   {
 533:C:/Users/vasil/STM32Cube/Repository/STM32Cube_FW_F1_V1.8.5/Drivers/STM32F1xx_HAL_Driver/Src\stm32f1xx_hal_gpio.c ****     return HAL_OK;
 840              		.loc 1 533 12 view .LVU244
 841 0024 0020     		movs	r0, #0
 842              	.LVL71:
 843              	.L77:
 534:C:/Users/vasil/STM32Cube/Repository/STM32Cube_FW_F1_V1.8.5/Drivers/STM32F1xx_HAL_Driver/Src\stm32f1xx_hal_gpio.c ****   }
 535:C:/Users/vasil/STM32Cube/Repository/STM32Cube_FW_F1_V1.8.5/Drivers/STM32F1xx_HAL_Driver/Src\stm32f1xx_hal_gpio.c ****   else
 536:C:/Users/vasil/STM32Cube/Repository/STM32Cube_FW_F1_V1.8.5/Drivers/STM32F1xx_HAL_Driver/Src\stm32f1xx_hal_gpio.c ****   {
 537:C:/Users/vasil/STM32Cube/Repository/STM32Cube_FW_F1_V1.8.5/Drivers/STM32F1xx_HAL_Driver/Src\stm32f1xx_hal_gpio.c ****     return HAL_ERROR;
 538:C:/Users/vasil/STM32Cube/Repository/STM32Cube_FW_F1_V1.8.5/Drivers/STM32F1xx_HAL_Driver/Src\stm32f1xx_hal_gpio.c ****   }
 539:C:/Users/vasil/STM32Cube/Repository/STM32Cube_FW_F1_V1.8.5/Drivers/STM32F1xx_HAL_Driver/Src\stm32f1xx_hal_gpio.c **** }
 844              		.loc 1 539 1 view .LVU245
 845 0026 02B0     		add	sp, sp, #8
 846              		.cfi_remember_state
 847              		.cfi_def_cfa_offset 0
 848              		@ sp needed
 849 0028 7047     		bx	lr
 850              	.LVL72:
 851              	.L78:
 852              		.cfi_restore_state
 537:C:/Users/vasil/STM32Cube/Repository/STM32Cube_FW_F1_V1.8.5/Drivers/STM32F1xx_HAL_Driver/Src\stm32f1xx_hal_gpio.c ****   }
 853              		.loc 1 537 12 view .LVU246
 854 002a 0120     		movs	r0, #1
 855              	.LVL73:
 537:C:/Users/vasil/STM32Cube/Repository/STM32Cube_FW_F1_V1.8.5/Drivers/STM32F1xx_HAL_Driver/Src\stm32f1xx_hal_gpio.c ****   }
 856              		.loc 1 537 12 view .LVU247
 857 002c FBE7     		b	.L77
 858              		.cfi_endproc
ARM GAS  C:\Users\vasil\AppData\Local\Temp\ccc7WSuc.s 			page 27


 859              	.LFE70:
 861              		.section	.text.HAL_GPIO_EXTI_Callback,"ax",%progbits
 862              		.align	1
 863              		.weak	HAL_GPIO_EXTI_Callback
 864              		.syntax unified
 865              		.thumb
 866              		.thumb_func
 868              	HAL_GPIO_EXTI_Callback:
 869              	.LVL74:
 870              	.LFB72:
 540:C:/Users/vasil/STM32Cube/Repository/STM32Cube_FW_F1_V1.8.5/Drivers/STM32F1xx_HAL_Driver/Src\stm32f1xx_hal_gpio.c **** 
 541:C:/Users/vasil/STM32Cube/Repository/STM32Cube_FW_F1_V1.8.5/Drivers/STM32F1xx_HAL_Driver/Src\stm32f1xx_hal_gpio.c **** /**
 542:C:/Users/vasil/STM32Cube/Repository/STM32Cube_FW_F1_V1.8.5/Drivers/STM32F1xx_HAL_Driver/Src\stm32f1xx_hal_gpio.c ****   * @brief  This function handles EXTI interrupt request.
 543:C:/Users/vasil/STM32Cube/Repository/STM32Cube_FW_F1_V1.8.5/Drivers/STM32F1xx_HAL_Driver/Src\stm32f1xx_hal_gpio.c ****   * @param  GPIO_Pin: Specifies the pins connected EXTI line
 544:C:/Users/vasil/STM32Cube/Repository/STM32Cube_FW_F1_V1.8.5/Drivers/STM32F1xx_HAL_Driver/Src\stm32f1xx_hal_gpio.c ****   * @retval None
 545:C:/Users/vasil/STM32Cube/Repository/STM32Cube_FW_F1_V1.8.5/Drivers/STM32F1xx_HAL_Driver/Src\stm32f1xx_hal_gpio.c ****   */
 546:C:/Users/vasil/STM32Cube/Repository/STM32Cube_FW_F1_V1.8.5/Drivers/STM32F1xx_HAL_Driver/Src\stm32f1xx_hal_gpio.c **** void HAL_GPIO_EXTI_IRQHandler(uint16_t GPIO_Pin)
 547:C:/Users/vasil/STM32Cube/Repository/STM32Cube_FW_F1_V1.8.5/Drivers/STM32F1xx_HAL_Driver/Src\stm32f1xx_hal_gpio.c **** {
 548:C:/Users/vasil/STM32Cube/Repository/STM32Cube_FW_F1_V1.8.5/Drivers/STM32F1xx_HAL_Driver/Src\stm32f1xx_hal_gpio.c ****   /* EXTI line interrupt detected */
 549:C:/Users/vasil/STM32Cube/Repository/STM32Cube_FW_F1_V1.8.5/Drivers/STM32F1xx_HAL_Driver/Src\stm32f1xx_hal_gpio.c ****   if (__HAL_GPIO_EXTI_GET_IT(GPIO_Pin) != 0x00u)
 550:C:/Users/vasil/STM32Cube/Repository/STM32Cube_FW_F1_V1.8.5/Drivers/STM32F1xx_HAL_Driver/Src\stm32f1xx_hal_gpio.c ****   {
 551:C:/Users/vasil/STM32Cube/Repository/STM32Cube_FW_F1_V1.8.5/Drivers/STM32F1xx_HAL_Driver/Src\stm32f1xx_hal_gpio.c ****     __HAL_GPIO_EXTI_CLEAR_IT(GPIO_Pin);
 552:C:/Users/vasil/STM32Cube/Repository/STM32Cube_FW_F1_V1.8.5/Drivers/STM32F1xx_HAL_Driver/Src\stm32f1xx_hal_gpio.c ****     HAL_GPIO_EXTI_Callback(GPIO_Pin);
 553:C:/Users/vasil/STM32Cube/Repository/STM32Cube_FW_F1_V1.8.5/Drivers/STM32F1xx_HAL_Driver/Src\stm32f1xx_hal_gpio.c ****   }
 554:C:/Users/vasil/STM32Cube/Repository/STM32Cube_FW_F1_V1.8.5/Drivers/STM32F1xx_HAL_Driver/Src\stm32f1xx_hal_gpio.c **** }
 555:C:/Users/vasil/STM32Cube/Repository/STM32Cube_FW_F1_V1.8.5/Drivers/STM32F1xx_HAL_Driver/Src\stm32f1xx_hal_gpio.c **** 
 556:C:/Users/vasil/STM32Cube/Repository/STM32Cube_FW_F1_V1.8.5/Drivers/STM32F1xx_HAL_Driver/Src\stm32f1xx_hal_gpio.c **** /**
 557:C:/Users/vasil/STM32Cube/Repository/STM32Cube_FW_F1_V1.8.5/Drivers/STM32F1xx_HAL_Driver/Src\stm32f1xx_hal_gpio.c ****   * @brief  EXTI line detection callbacks.
 558:C:/Users/vasil/STM32Cube/Repository/STM32Cube_FW_F1_V1.8.5/Drivers/STM32F1xx_HAL_Driver/Src\stm32f1xx_hal_gpio.c ****   * @param  GPIO_Pin: Specifies the pins connected EXTI line
 559:C:/Users/vasil/STM32Cube/Repository/STM32Cube_FW_F1_V1.8.5/Drivers/STM32F1xx_HAL_Driver/Src\stm32f1xx_hal_gpio.c ****   * @retval None
 560:C:/Users/vasil/STM32Cube/Repository/STM32Cube_FW_F1_V1.8.5/Drivers/STM32F1xx_HAL_Driver/Src\stm32f1xx_hal_gpio.c ****   */
 561:C:/Users/vasil/STM32Cube/Repository/STM32Cube_FW_F1_V1.8.5/Drivers/STM32F1xx_HAL_Driver/Src\stm32f1xx_hal_gpio.c **** __weak void HAL_GPIO_EXTI_Callback(uint16_t GPIO_Pin)
 562:C:/Users/vasil/STM32Cube/Repository/STM32Cube_FW_F1_V1.8.5/Drivers/STM32F1xx_HAL_Driver/Src\stm32f1xx_hal_gpio.c **** {
 871              		.loc 1 562 1 is_stmt 1 view -0
 872              		.cfi_startproc
 873              		@ args = 0, pretend = 0, frame = 0
 874              		@ frame_needed = 0, uses_anonymous_args = 0
 875              		@ link register save eliminated.
 563:C:/Users/vasil/STM32Cube/Repository/STM32Cube_FW_F1_V1.8.5/Drivers/STM32F1xx_HAL_Driver/Src\stm32f1xx_hal_gpio.c ****   /* Prevent unused argument(s) compilation warning */
 564:C:/Users/vasil/STM32Cube/Repository/STM32Cube_FW_F1_V1.8.5/Drivers/STM32F1xx_HAL_Driver/Src\stm32f1xx_hal_gpio.c ****   UNUSED(GPIO_Pin);
 876              		.loc 1 564 3 view .LVU249
 565:C:/Users/vasil/STM32Cube/Repository/STM32Cube_FW_F1_V1.8.5/Drivers/STM32F1xx_HAL_Driver/Src\stm32f1xx_hal_gpio.c ****   /* NOTE: This function Should not be modified, when the callback is needed,
 566:C:/Users/vasil/STM32Cube/Repository/STM32Cube_FW_F1_V1.8.5/Drivers/STM32F1xx_HAL_Driver/Src\stm32f1xx_hal_gpio.c ****            the HAL_GPIO_EXTI_Callback could be implemented in the user file
 567:C:/Users/vasil/STM32Cube/Repository/STM32Cube_FW_F1_V1.8.5/Drivers/STM32F1xx_HAL_Driver/Src\stm32f1xx_hal_gpio.c ****    */
 568:C:/Users/vasil/STM32Cube/Repository/STM32Cube_FW_F1_V1.8.5/Drivers/STM32F1xx_HAL_Driver/Src\stm32f1xx_hal_gpio.c **** }
 877              		.loc 1 568 1 is_stmt 0 view .LVU250
 878 0000 7047     		bx	lr
 879              		.cfi_endproc
 880              	.LFE72:
 882              		.section	.text.HAL_GPIO_EXTI_IRQHandler,"ax",%progbits
 883              		.align	1
 884              		.global	HAL_GPIO_EXTI_IRQHandler
 885              		.syntax unified
 886              		.thumb
 887              		.thumb_func
 889              	HAL_GPIO_EXTI_IRQHandler:
 890              	.LVL75:
ARM GAS  C:\Users\vasil\AppData\Local\Temp\ccc7WSuc.s 			page 28


 891              	.LFB71:
 547:C:/Users/vasil/STM32Cube/Repository/STM32Cube_FW_F1_V1.8.5/Drivers/STM32F1xx_HAL_Driver/Src\stm32f1xx_hal_gpio.c ****   /* EXTI line interrupt detected */
 892              		.loc 1 547 1 is_stmt 1 view -0
 893              		.cfi_startproc
 894              		@ args = 0, pretend = 0, frame = 0
 895              		@ frame_needed = 0, uses_anonymous_args = 0
 547:C:/Users/vasil/STM32Cube/Repository/STM32Cube_FW_F1_V1.8.5/Drivers/STM32F1xx_HAL_Driver/Src\stm32f1xx_hal_gpio.c ****   /* EXTI line interrupt detected */
 896              		.loc 1 547 1 is_stmt 0 view .LVU252
 897 0000 08B5     		push	{r3, lr}
 898              		.cfi_def_cfa_offset 8
 899              		.cfi_offset 3, -8
 900              		.cfi_offset 14, -4
 549:C:/Users/vasil/STM32Cube/Repository/STM32Cube_FW_F1_V1.8.5/Drivers/STM32F1xx_HAL_Driver/Src\stm32f1xx_hal_gpio.c ****   {
 901              		.loc 1 549 3 is_stmt 1 view .LVU253
 549:C:/Users/vasil/STM32Cube/Repository/STM32Cube_FW_F1_V1.8.5/Drivers/STM32F1xx_HAL_Driver/Src\stm32f1xx_hal_gpio.c ****   {
 902              		.loc 1 549 7 is_stmt 0 view .LVU254
 903 0002 054B     		ldr	r3, .L85
 904 0004 5B69     		ldr	r3, [r3, #20]
 549:C:/Users/vasil/STM32Cube/Repository/STM32Cube_FW_F1_V1.8.5/Drivers/STM32F1xx_HAL_Driver/Src\stm32f1xx_hal_gpio.c ****   {
 905              		.loc 1 549 6 view .LVU255
 906 0006 0342     		tst	r3, r0
 907 0008 00D1     		bne	.L84
 908              	.LVL76:
 909              	.L81:
 554:C:/Users/vasil/STM32Cube/Repository/STM32Cube_FW_F1_V1.8.5/Drivers/STM32F1xx_HAL_Driver/Src\stm32f1xx_hal_gpio.c **** 
 910              		.loc 1 554 1 view .LVU256
 911 000a 08BD     		pop	{r3, pc}
 912              	.LVL77:
 913              	.L84:
 551:C:/Users/vasil/STM32Cube/Repository/STM32Cube_FW_F1_V1.8.5/Drivers/STM32F1xx_HAL_Driver/Src\stm32f1xx_hal_gpio.c ****     HAL_GPIO_EXTI_Callback(GPIO_Pin);
 914              		.loc 1 551 5 is_stmt 1 view .LVU257
 915 000c 024B     		ldr	r3, .L85
 916 000e 5861     		str	r0, [r3, #20]
 552:C:/Users/vasil/STM32Cube/Repository/STM32Cube_FW_F1_V1.8.5/Drivers/STM32F1xx_HAL_Driver/Src\stm32f1xx_hal_gpio.c ****   }
 917              		.loc 1 552 5 view .LVU258
 918 0010 FFF7FEFF 		bl	HAL_GPIO_EXTI_Callback
 919              	.LVL78:
 554:C:/Users/vasil/STM32Cube/Repository/STM32Cube_FW_F1_V1.8.5/Drivers/STM32F1xx_HAL_Driver/Src\stm32f1xx_hal_gpio.c **** 
 920              		.loc 1 554 1 is_stmt 0 view .LVU259
 921 0014 F9E7     		b	.L81
 922              	.L86:
 923 0016 00BF     		.align	2
 924              	.L85:
 925 0018 00040140 		.word	1073808384
 926              		.cfi_endproc
 927              	.LFE71:
 929              		.text
 930              	.Letext0:
 931              		.file 2 "c:\\users\\vasil\\appdata\\roaming\\code\\user\\globalstorage\\bmd.stm32-for-vscode\\@xpa
 932              		.file 3 "c:\\users\\vasil\\appdata\\roaming\\code\\user\\globalstorage\\bmd.stm32-for-vscode\\@xpa
 933              		.file 4 "C:/Users/vasil/STM32Cube/Repository/STM32Cube_FW_F1_V1.8.5/Drivers/CMSIS/Device/ST/STM32F
 934              		.file 5 "C:/Users/vasil/STM32Cube/Repository/STM32Cube_FW_F1_V1.8.5/Drivers/STM32F1xx_HAL_Driver/I
 935              		.file 6 "C:/Users/vasil/STM32Cube/Repository/STM32Cube_FW_F1_V1.8.5/Drivers/STM32F1xx_HAL_Driver/I
ARM GAS  C:\Users\vasil\AppData\Local\Temp\ccc7WSuc.s 			page 29

