ARM GAS  C:\Users\vasil\AppData\Local\Temp\ccvloAs2.s 			page 1


   1              		.cpu cortex-m3
   2              		.arch armv7-m
   3              		.fpu softvfp
   4              		.eabi_attribute 20, 1
   5              		.eabi_attribute 21, 1
   6              		.eabi_attribute 23, 3
   7              		.eabi_attribute 24, 1
   8              		.eabi_attribute 25, 1
   9              		.eabi_attribute 26, 1
  10              		.eabi_attribute 30, 1
  11              		.eabi_attribute 34, 1
  12              		.eabi_attribute 18, 4
  13              		.file	"stm32f1xx_hal_flash.c"
  14              		.text
  15              	.Ltext0:
  16              		.cfi_sections	.debug_frame
  17              		.section	.text.FLASH_Program_HalfWord,"ax",%progbits
  18              		.align	1
  19              		.syntax unified
  20              		.thumb
  21              		.thumb_func
  23              	FLASH_Program_HalfWord:
  24              	.LVL0:
  25              	.LFB76:
  26              		.file 1 "C:/Users/vasil/STM32Cube/Repository/STM32Cube_FW_F1_V1.8.5/Drivers/STM32F1xx_HAL_Driver/S
   1:C:/Users/vasil/STM32Cube/Repository/STM32Cube_FW_F1_V1.8.5/Drivers/STM32F1xx_HAL_Driver/Src\stm32f1xx_hal_flash.c **** /**
   2:C:/Users/vasil/STM32Cube/Repository/STM32Cube_FW_F1_V1.8.5/Drivers/STM32F1xx_HAL_Driver/Src\stm32f1xx_hal_flash.c ****   ******************************************************************************
   3:C:/Users/vasil/STM32Cube/Repository/STM32Cube_FW_F1_V1.8.5/Drivers/STM32F1xx_HAL_Driver/Src\stm32f1xx_hal_flash.c ****   * @file    stm32f1xx_hal_flash.c
   4:C:/Users/vasil/STM32Cube/Repository/STM32Cube_FW_F1_V1.8.5/Drivers/STM32F1xx_HAL_Driver/Src\stm32f1xx_hal_flash.c ****   * @author  MCD Application Team
   5:C:/Users/vasil/STM32Cube/Repository/STM32Cube_FW_F1_V1.8.5/Drivers/STM32F1xx_HAL_Driver/Src\stm32f1xx_hal_flash.c ****   * @brief   FLASH HAL module driver.
   6:C:/Users/vasil/STM32Cube/Repository/STM32Cube_FW_F1_V1.8.5/Drivers/STM32F1xx_HAL_Driver/Src\stm32f1xx_hal_flash.c ****   *          This file provides firmware functions to manage the following 
   7:C:/Users/vasil/STM32Cube/Repository/STM32Cube_FW_F1_V1.8.5/Drivers/STM32F1xx_HAL_Driver/Src\stm32f1xx_hal_flash.c ****   *          functionalities of the internal FLASH memory:
   8:C:/Users/vasil/STM32Cube/Repository/STM32Cube_FW_F1_V1.8.5/Drivers/STM32F1xx_HAL_Driver/Src\stm32f1xx_hal_flash.c ****   *           + Program operations functions
   9:C:/Users/vasil/STM32Cube/Repository/STM32Cube_FW_F1_V1.8.5/Drivers/STM32F1xx_HAL_Driver/Src\stm32f1xx_hal_flash.c ****   *           + Memory Control functions 
  10:C:/Users/vasil/STM32Cube/Repository/STM32Cube_FW_F1_V1.8.5/Drivers/STM32F1xx_HAL_Driver/Src\stm32f1xx_hal_flash.c ****   *           + Peripheral State functions
  11:C:/Users/vasil/STM32Cube/Repository/STM32Cube_FW_F1_V1.8.5/Drivers/STM32F1xx_HAL_Driver/Src\stm32f1xx_hal_flash.c ****   *         
  12:C:/Users/vasil/STM32Cube/Repository/STM32Cube_FW_F1_V1.8.5/Drivers/STM32F1xx_HAL_Driver/Src\stm32f1xx_hal_flash.c ****   @verbatim
  13:C:/Users/vasil/STM32Cube/Repository/STM32Cube_FW_F1_V1.8.5/Drivers/STM32F1xx_HAL_Driver/Src\stm32f1xx_hal_flash.c ****   ==============================================================================
  14:C:/Users/vasil/STM32Cube/Repository/STM32Cube_FW_F1_V1.8.5/Drivers/STM32F1xx_HAL_Driver/Src\stm32f1xx_hal_flash.c ****                         ##### FLASH peripheral features #####
  15:C:/Users/vasil/STM32Cube/Repository/STM32Cube_FW_F1_V1.8.5/Drivers/STM32F1xx_HAL_Driver/Src\stm32f1xx_hal_flash.c ****   ==============================================================================
  16:C:/Users/vasil/STM32Cube/Repository/STM32Cube_FW_F1_V1.8.5/Drivers/STM32F1xx_HAL_Driver/Src\stm32f1xx_hal_flash.c ****   [..] The Flash memory interface manages CPU AHB I-Code and D-Code accesses 
  17:C:/Users/vasil/STM32Cube/Repository/STM32Cube_FW_F1_V1.8.5/Drivers/STM32F1xx_HAL_Driver/Src\stm32f1xx_hal_flash.c ****        to the Flash memory. It implements the erase and program Flash memory operations 
  18:C:/Users/vasil/STM32Cube/Repository/STM32Cube_FW_F1_V1.8.5/Drivers/STM32F1xx_HAL_Driver/Src\stm32f1xx_hal_flash.c ****        and the read and write protection mechanisms.
  19:C:/Users/vasil/STM32Cube/Repository/STM32Cube_FW_F1_V1.8.5/Drivers/STM32F1xx_HAL_Driver/Src\stm32f1xx_hal_flash.c **** 
  20:C:/Users/vasil/STM32Cube/Repository/STM32Cube_FW_F1_V1.8.5/Drivers/STM32F1xx_HAL_Driver/Src\stm32f1xx_hal_flash.c ****   [..] The Flash memory interface accelerates code execution with a system of instruction
  21:C:/Users/vasil/STM32Cube/Repository/STM32Cube_FW_F1_V1.8.5/Drivers/STM32F1xx_HAL_Driver/Src\stm32f1xx_hal_flash.c ****       prefetch. 
  22:C:/Users/vasil/STM32Cube/Repository/STM32Cube_FW_F1_V1.8.5/Drivers/STM32F1xx_HAL_Driver/Src\stm32f1xx_hal_flash.c **** 
  23:C:/Users/vasil/STM32Cube/Repository/STM32Cube_FW_F1_V1.8.5/Drivers/STM32F1xx_HAL_Driver/Src\stm32f1xx_hal_flash.c ****   [..] The FLASH main features are:
  24:C:/Users/vasil/STM32Cube/Repository/STM32Cube_FW_F1_V1.8.5/Drivers/STM32F1xx_HAL_Driver/Src\stm32f1xx_hal_flash.c ****       (+) Flash memory read operations
  25:C:/Users/vasil/STM32Cube/Repository/STM32Cube_FW_F1_V1.8.5/Drivers/STM32F1xx_HAL_Driver/Src\stm32f1xx_hal_flash.c ****       (+) Flash memory program/erase operations
  26:C:/Users/vasil/STM32Cube/Repository/STM32Cube_FW_F1_V1.8.5/Drivers/STM32F1xx_HAL_Driver/Src\stm32f1xx_hal_flash.c ****       (+) Read / write protections
  27:C:/Users/vasil/STM32Cube/Repository/STM32Cube_FW_F1_V1.8.5/Drivers/STM32F1xx_HAL_Driver/Src\stm32f1xx_hal_flash.c ****       (+) Prefetch on I-Code
  28:C:/Users/vasil/STM32Cube/Repository/STM32Cube_FW_F1_V1.8.5/Drivers/STM32F1xx_HAL_Driver/Src\stm32f1xx_hal_flash.c ****       (+) Option Bytes programming
  29:C:/Users/vasil/STM32Cube/Repository/STM32Cube_FW_F1_V1.8.5/Drivers/STM32F1xx_HAL_Driver/Src\stm32f1xx_hal_flash.c **** 
  30:C:/Users/vasil/STM32Cube/Repository/STM32Cube_FW_F1_V1.8.5/Drivers/STM32F1xx_HAL_Driver/Src\stm32f1xx_hal_flash.c **** 
  31:C:/Users/vasil/STM32Cube/Repository/STM32Cube_FW_F1_V1.8.5/Drivers/STM32F1xx_HAL_Driver/Src\stm32f1xx_hal_flash.c ****                      ##### How to use this driver #####
  32:C:/Users/vasil/STM32Cube/Repository/STM32Cube_FW_F1_V1.8.5/Drivers/STM32F1xx_HAL_Driver/Src\stm32f1xx_hal_flash.c ****   ==============================================================================
ARM GAS  C:\Users\vasil\AppData\Local\Temp\ccvloAs2.s 			page 2


  33:C:/Users/vasil/STM32Cube/Repository/STM32Cube_FW_F1_V1.8.5/Drivers/STM32F1xx_HAL_Driver/Src\stm32f1xx_hal_flash.c ****   [..]                             
  34:C:/Users/vasil/STM32Cube/Repository/STM32Cube_FW_F1_V1.8.5/Drivers/STM32F1xx_HAL_Driver/Src\stm32f1xx_hal_flash.c ****       This driver provides functions and macros to configure and program the FLASH 
  35:C:/Users/vasil/STM32Cube/Repository/STM32Cube_FW_F1_V1.8.5/Drivers/STM32F1xx_HAL_Driver/Src\stm32f1xx_hal_flash.c ****       memory of all STM32F1xx devices.
  36:C:/Users/vasil/STM32Cube/Repository/STM32Cube_FW_F1_V1.8.5/Drivers/STM32F1xx_HAL_Driver/Src\stm32f1xx_hal_flash.c ****     
  37:C:/Users/vasil/STM32Cube/Repository/STM32Cube_FW_F1_V1.8.5/Drivers/STM32F1xx_HAL_Driver/Src\stm32f1xx_hal_flash.c ****       (#) FLASH Memory I/O Programming functions: this group includes all needed
  38:C:/Users/vasil/STM32Cube/Repository/STM32Cube_FW_F1_V1.8.5/Drivers/STM32F1xx_HAL_Driver/Src\stm32f1xx_hal_flash.c ****           functions to erase and program the main memory:
  39:C:/Users/vasil/STM32Cube/Repository/STM32Cube_FW_F1_V1.8.5/Drivers/STM32F1xx_HAL_Driver/Src\stm32f1xx_hal_flash.c ****         (++) Lock and Unlock the FLASH interface
  40:C:/Users/vasil/STM32Cube/Repository/STM32Cube_FW_F1_V1.8.5/Drivers/STM32F1xx_HAL_Driver/Src\stm32f1xx_hal_flash.c ****         (++) Erase function: Erase page, erase all pages
  41:C:/Users/vasil/STM32Cube/Repository/STM32Cube_FW_F1_V1.8.5/Drivers/STM32F1xx_HAL_Driver/Src\stm32f1xx_hal_flash.c ****         (++) Program functions: half word, word and doubleword
  42:C:/Users/vasil/STM32Cube/Repository/STM32Cube_FW_F1_V1.8.5/Drivers/STM32F1xx_HAL_Driver/Src\stm32f1xx_hal_flash.c ****       (#) FLASH Option Bytes Programming functions: this group includes all needed
  43:C:/Users/vasil/STM32Cube/Repository/STM32Cube_FW_F1_V1.8.5/Drivers/STM32F1xx_HAL_Driver/Src\stm32f1xx_hal_flash.c ****           functions to manage the Option Bytes:
  44:C:/Users/vasil/STM32Cube/Repository/STM32Cube_FW_F1_V1.8.5/Drivers/STM32F1xx_HAL_Driver/Src\stm32f1xx_hal_flash.c ****         (++) Lock and Unlock the Option Bytes
  45:C:/Users/vasil/STM32Cube/Repository/STM32Cube_FW_F1_V1.8.5/Drivers/STM32F1xx_HAL_Driver/Src\stm32f1xx_hal_flash.c ****         (++) Set/Reset the write protection
  46:C:/Users/vasil/STM32Cube/Repository/STM32Cube_FW_F1_V1.8.5/Drivers/STM32F1xx_HAL_Driver/Src\stm32f1xx_hal_flash.c ****         (++) Set the Read protection Level
  47:C:/Users/vasil/STM32Cube/Repository/STM32Cube_FW_F1_V1.8.5/Drivers/STM32F1xx_HAL_Driver/Src\stm32f1xx_hal_flash.c ****         (++) Program the user Option Bytes
  48:C:/Users/vasil/STM32Cube/Repository/STM32Cube_FW_F1_V1.8.5/Drivers/STM32F1xx_HAL_Driver/Src\stm32f1xx_hal_flash.c ****         (++) Launch the Option Bytes loader
  49:C:/Users/vasil/STM32Cube/Repository/STM32Cube_FW_F1_V1.8.5/Drivers/STM32F1xx_HAL_Driver/Src\stm32f1xx_hal_flash.c ****         (++) Erase Option Bytes
  50:C:/Users/vasil/STM32Cube/Repository/STM32Cube_FW_F1_V1.8.5/Drivers/STM32F1xx_HAL_Driver/Src\stm32f1xx_hal_flash.c ****         (++) Program the data Option Bytes
  51:C:/Users/vasil/STM32Cube/Repository/STM32Cube_FW_F1_V1.8.5/Drivers/STM32F1xx_HAL_Driver/Src\stm32f1xx_hal_flash.c ****         (++) Get the Write protection.
  52:C:/Users/vasil/STM32Cube/Repository/STM32Cube_FW_F1_V1.8.5/Drivers/STM32F1xx_HAL_Driver/Src\stm32f1xx_hal_flash.c ****         (++) Get the user option bytes.
  53:C:/Users/vasil/STM32Cube/Repository/STM32Cube_FW_F1_V1.8.5/Drivers/STM32F1xx_HAL_Driver/Src\stm32f1xx_hal_flash.c ****     
  54:C:/Users/vasil/STM32Cube/Repository/STM32Cube_FW_F1_V1.8.5/Drivers/STM32F1xx_HAL_Driver/Src\stm32f1xx_hal_flash.c ****       (#) Interrupts and flags management functions : this group 
  55:C:/Users/vasil/STM32Cube/Repository/STM32Cube_FW_F1_V1.8.5/Drivers/STM32F1xx_HAL_Driver/Src\stm32f1xx_hal_flash.c ****           includes all needed functions to:
  56:C:/Users/vasil/STM32Cube/Repository/STM32Cube_FW_F1_V1.8.5/Drivers/STM32F1xx_HAL_Driver/Src\stm32f1xx_hal_flash.c ****         (++) Handle FLASH interrupts
  57:C:/Users/vasil/STM32Cube/Repository/STM32Cube_FW_F1_V1.8.5/Drivers/STM32F1xx_HAL_Driver/Src\stm32f1xx_hal_flash.c ****         (++) Wait for last FLASH operation according to its status
  58:C:/Users/vasil/STM32Cube/Repository/STM32Cube_FW_F1_V1.8.5/Drivers/STM32F1xx_HAL_Driver/Src\stm32f1xx_hal_flash.c ****         (++) Get error flag status
  59:C:/Users/vasil/STM32Cube/Repository/STM32Cube_FW_F1_V1.8.5/Drivers/STM32F1xx_HAL_Driver/Src\stm32f1xx_hal_flash.c **** 
  60:C:/Users/vasil/STM32Cube/Repository/STM32Cube_FW_F1_V1.8.5/Drivers/STM32F1xx_HAL_Driver/Src\stm32f1xx_hal_flash.c ****   [..] In addition to these function, this driver includes a set of macros allowing
  61:C:/Users/vasil/STM32Cube/Repository/STM32Cube_FW_F1_V1.8.5/Drivers/STM32F1xx_HAL_Driver/Src\stm32f1xx_hal_flash.c ****        to handle the following operations:
  62:C:/Users/vasil/STM32Cube/Repository/STM32Cube_FW_F1_V1.8.5/Drivers/STM32F1xx_HAL_Driver/Src\stm32f1xx_hal_flash.c ****       
  63:C:/Users/vasil/STM32Cube/Repository/STM32Cube_FW_F1_V1.8.5/Drivers/STM32F1xx_HAL_Driver/Src\stm32f1xx_hal_flash.c ****       (+) Set/Get the latency
  64:C:/Users/vasil/STM32Cube/Repository/STM32Cube_FW_F1_V1.8.5/Drivers/STM32F1xx_HAL_Driver/Src\stm32f1xx_hal_flash.c ****       (+) Enable/Disable the prefetch buffer
  65:C:/Users/vasil/STM32Cube/Repository/STM32Cube_FW_F1_V1.8.5/Drivers/STM32F1xx_HAL_Driver/Src\stm32f1xx_hal_flash.c ****       (+) Enable/Disable the half cycle access
  66:C:/Users/vasil/STM32Cube/Repository/STM32Cube_FW_F1_V1.8.5/Drivers/STM32F1xx_HAL_Driver/Src\stm32f1xx_hal_flash.c ****       (+) Enable/Disable the FLASH interrupts
  67:C:/Users/vasil/STM32Cube/Repository/STM32Cube_FW_F1_V1.8.5/Drivers/STM32F1xx_HAL_Driver/Src\stm32f1xx_hal_flash.c ****       (+) Monitor the FLASH flags status
  68:C:/Users/vasil/STM32Cube/Repository/STM32Cube_FW_F1_V1.8.5/Drivers/STM32F1xx_HAL_Driver/Src\stm32f1xx_hal_flash.c ****           
  69:C:/Users/vasil/STM32Cube/Repository/STM32Cube_FW_F1_V1.8.5/Drivers/STM32F1xx_HAL_Driver/Src\stm32f1xx_hal_flash.c ****   @endverbatim
  70:C:/Users/vasil/STM32Cube/Repository/STM32Cube_FW_F1_V1.8.5/Drivers/STM32F1xx_HAL_Driver/Src\stm32f1xx_hal_flash.c ****   ******************************************************************************
  71:C:/Users/vasil/STM32Cube/Repository/STM32Cube_FW_F1_V1.8.5/Drivers/STM32F1xx_HAL_Driver/Src\stm32f1xx_hal_flash.c ****   * @attention
  72:C:/Users/vasil/STM32Cube/Repository/STM32Cube_FW_F1_V1.8.5/Drivers/STM32F1xx_HAL_Driver/Src\stm32f1xx_hal_flash.c ****   *
  73:C:/Users/vasil/STM32Cube/Repository/STM32Cube_FW_F1_V1.8.5/Drivers/STM32F1xx_HAL_Driver/Src\stm32f1xx_hal_flash.c ****   * Copyright (c) 2016 STMicroelectronics.
  74:C:/Users/vasil/STM32Cube/Repository/STM32Cube_FW_F1_V1.8.5/Drivers/STM32F1xx_HAL_Driver/Src\stm32f1xx_hal_flash.c ****   * All rights reserved.
  75:C:/Users/vasil/STM32Cube/Repository/STM32Cube_FW_F1_V1.8.5/Drivers/STM32F1xx_HAL_Driver/Src\stm32f1xx_hal_flash.c ****   *
  76:C:/Users/vasil/STM32Cube/Repository/STM32Cube_FW_F1_V1.8.5/Drivers/STM32F1xx_HAL_Driver/Src\stm32f1xx_hal_flash.c ****   * This software is licensed under terms that can be found in the LICENSE file in
  77:C:/Users/vasil/STM32Cube/Repository/STM32Cube_FW_F1_V1.8.5/Drivers/STM32F1xx_HAL_Driver/Src\stm32f1xx_hal_flash.c ****   * the root directory of this software component.
  78:C:/Users/vasil/STM32Cube/Repository/STM32Cube_FW_F1_V1.8.5/Drivers/STM32F1xx_HAL_Driver/Src\stm32f1xx_hal_flash.c ****   * If no LICENSE file comes with this software, it is provided AS-IS.
  79:C:/Users/vasil/STM32Cube/Repository/STM32Cube_FW_F1_V1.8.5/Drivers/STM32F1xx_HAL_Driver/Src\stm32f1xx_hal_flash.c ****   ******************************************************************************
  80:C:/Users/vasil/STM32Cube/Repository/STM32Cube_FW_F1_V1.8.5/Drivers/STM32F1xx_HAL_Driver/Src\stm32f1xx_hal_flash.c ****   */
  81:C:/Users/vasil/STM32Cube/Repository/STM32Cube_FW_F1_V1.8.5/Drivers/STM32F1xx_HAL_Driver/Src\stm32f1xx_hal_flash.c **** 
  82:C:/Users/vasil/STM32Cube/Repository/STM32Cube_FW_F1_V1.8.5/Drivers/STM32F1xx_HAL_Driver/Src\stm32f1xx_hal_flash.c **** /* Includes ------------------------------------------------------------------*/
  83:C:/Users/vasil/STM32Cube/Repository/STM32Cube_FW_F1_V1.8.5/Drivers/STM32F1xx_HAL_Driver/Src\stm32f1xx_hal_flash.c **** #include "stm32f1xx_hal.h"
  84:C:/Users/vasil/STM32Cube/Repository/STM32Cube_FW_F1_V1.8.5/Drivers/STM32F1xx_HAL_Driver/Src\stm32f1xx_hal_flash.c **** 
  85:C:/Users/vasil/STM32Cube/Repository/STM32Cube_FW_F1_V1.8.5/Drivers/STM32F1xx_HAL_Driver/Src\stm32f1xx_hal_flash.c **** /** @addtogroup STM32F1xx_HAL_Driver
  86:C:/Users/vasil/STM32Cube/Repository/STM32Cube_FW_F1_V1.8.5/Drivers/STM32F1xx_HAL_Driver/Src\stm32f1xx_hal_flash.c ****   * @{
  87:C:/Users/vasil/STM32Cube/Repository/STM32Cube_FW_F1_V1.8.5/Drivers/STM32F1xx_HAL_Driver/Src\stm32f1xx_hal_flash.c ****   */
  88:C:/Users/vasil/STM32Cube/Repository/STM32Cube_FW_F1_V1.8.5/Drivers/STM32F1xx_HAL_Driver/Src\stm32f1xx_hal_flash.c **** 
  89:C:/Users/vasil/STM32Cube/Repository/STM32Cube_FW_F1_V1.8.5/Drivers/STM32F1xx_HAL_Driver/Src\stm32f1xx_hal_flash.c **** #ifdef HAL_FLASH_MODULE_ENABLED
ARM GAS  C:\Users\vasil\AppData\Local\Temp\ccvloAs2.s 			page 3


  90:C:/Users/vasil/STM32Cube/Repository/STM32Cube_FW_F1_V1.8.5/Drivers/STM32F1xx_HAL_Driver/Src\stm32f1xx_hal_flash.c **** 
  91:C:/Users/vasil/STM32Cube/Repository/STM32Cube_FW_F1_V1.8.5/Drivers/STM32F1xx_HAL_Driver/Src\stm32f1xx_hal_flash.c **** /** @defgroup FLASH FLASH
  92:C:/Users/vasil/STM32Cube/Repository/STM32Cube_FW_F1_V1.8.5/Drivers/STM32F1xx_HAL_Driver/Src\stm32f1xx_hal_flash.c ****   * @brief FLASH HAL module driver
  93:C:/Users/vasil/STM32Cube/Repository/STM32Cube_FW_F1_V1.8.5/Drivers/STM32F1xx_HAL_Driver/Src\stm32f1xx_hal_flash.c ****   * @{
  94:C:/Users/vasil/STM32Cube/Repository/STM32Cube_FW_F1_V1.8.5/Drivers/STM32F1xx_HAL_Driver/Src\stm32f1xx_hal_flash.c ****   */
  95:C:/Users/vasil/STM32Cube/Repository/STM32Cube_FW_F1_V1.8.5/Drivers/STM32F1xx_HAL_Driver/Src\stm32f1xx_hal_flash.c **** 
  96:C:/Users/vasil/STM32Cube/Repository/STM32Cube_FW_F1_V1.8.5/Drivers/STM32F1xx_HAL_Driver/Src\stm32f1xx_hal_flash.c **** /* Private typedef -----------------------------------------------------------*/
  97:C:/Users/vasil/STM32Cube/Repository/STM32Cube_FW_F1_V1.8.5/Drivers/STM32F1xx_HAL_Driver/Src\stm32f1xx_hal_flash.c **** /* Private define ------------------------------------------------------------*/
  98:C:/Users/vasil/STM32Cube/Repository/STM32Cube_FW_F1_V1.8.5/Drivers/STM32F1xx_HAL_Driver/Src\stm32f1xx_hal_flash.c **** /** @defgroup FLASH_Private_Constants FLASH Private Constants
  99:C:/Users/vasil/STM32Cube/Repository/STM32Cube_FW_F1_V1.8.5/Drivers/STM32F1xx_HAL_Driver/Src\stm32f1xx_hal_flash.c ****   * @{
 100:C:/Users/vasil/STM32Cube/Repository/STM32Cube_FW_F1_V1.8.5/Drivers/STM32F1xx_HAL_Driver/Src\stm32f1xx_hal_flash.c ****   */
 101:C:/Users/vasil/STM32Cube/Repository/STM32Cube_FW_F1_V1.8.5/Drivers/STM32F1xx_HAL_Driver/Src\stm32f1xx_hal_flash.c **** /**
 102:C:/Users/vasil/STM32Cube/Repository/STM32Cube_FW_F1_V1.8.5/Drivers/STM32F1xx_HAL_Driver/Src\stm32f1xx_hal_flash.c ****   * @}
 103:C:/Users/vasil/STM32Cube/Repository/STM32Cube_FW_F1_V1.8.5/Drivers/STM32F1xx_HAL_Driver/Src\stm32f1xx_hal_flash.c ****   */
 104:C:/Users/vasil/STM32Cube/Repository/STM32Cube_FW_F1_V1.8.5/Drivers/STM32F1xx_HAL_Driver/Src\stm32f1xx_hal_flash.c **** 
 105:C:/Users/vasil/STM32Cube/Repository/STM32Cube_FW_F1_V1.8.5/Drivers/STM32F1xx_HAL_Driver/Src\stm32f1xx_hal_flash.c **** /* Private macro ---------------------------- ---------------------------------*/
 106:C:/Users/vasil/STM32Cube/Repository/STM32Cube_FW_F1_V1.8.5/Drivers/STM32F1xx_HAL_Driver/Src\stm32f1xx_hal_flash.c **** /** @defgroup FLASH_Private_Macros FLASH Private Macros
 107:C:/Users/vasil/STM32Cube/Repository/STM32Cube_FW_F1_V1.8.5/Drivers/STM32F1xx_HAL_Driver/Src\stm32f1xx_hal_flash.c ****   * @{
 108:C:/Users/vasil/STM32Cube/Repository/STM32Cube_FW_F1_V1.8.5/Drivers/STM32F1xx_HAL_Driver/Src\stm32f1xx_hal_flash.c ****   */
 109:C:/Users/vasil/STM32Cube/Repository/STM32Cube_FW_F1_V1.8.5/Drivers/STM32F1xx_HAL_Driver/Src\stm32f1xx_hal_flash.c ****  
 110:C:/Users/vasil/STM32Cube/Repository/STM32Cube_FW_F1_V1.8.5/Drivers/STM32F1xx_HAL_Driver/Src\stm32f1xx_hal_flash.c **** /**
 111:C:/Users/vasil/STM32Cube/Repository/STM32Cube_FW_F1_V1.8.5/Drivers/STM32F1xx_HAL_Driver/Src\stm32f1xx_hal_flash.c ****   * @}
 112:C:/Users/vasil/STM32Cube/Repository/STM32Cube_FW_F1_V1.8.5/Drivers/STM32F1xx_HAL_Driver/Src\stm32f1xx_hal_flash.c ****   */
 113:C:/Users/vasil/STM32Cube/Repository/STM32Cube_FW_F1_V1.8.5/Drivers/STM32F1xx_HAL_Driver/Src\stm32f1xx_hal_flash.c **** 
 114:C:/Users/vasil/STM32Cube/Repository/STM32Cube_FW_F1_V1.8.5/Drivers/STM32F1xx_HAL_Driver/Src\stm32f1xx_hal_flash.c **** /* Private variables ---------------------------------------------------------*/
 115:C:/Users/vasil/STM32Cube/Repository/STM32Cube_FW_F1_V1.8.5/Drivers/STM32F1xx_HAL_Driver/Src\stm32f1xx_hal_flash.c **** /** @defgroup FLASH_Private_Variables FLASH Private Variables
 116:C:/Users/vasil/STM32Cube/Repository/STM32Cube_FW_F1_V1.8.5/Drivers/STM32F1xx_HAL_Driver/Src\stm32f1xx_hal_flash.c ****   * @{
 117:C:/Users/vasil/STM32Cube/Repository/STM32Cube_FW_F1_V1.8.5/Drivers/STM32F1xx_HAL_Driver/Src\stm32f1xx_hal_flash.c ****   */
 118:C:/Users/vasil/STM32Cube/Repository/STM32Cube_FW_F1_V1.8.5/Drivers/STM32F1xx_HAL_Driver/Src\stm32f1xx_hal_flash.c **** /* Variables used for Erase pages under interruption*/
 119:C:/Users/vasil/STM32Cube/Repository/STM32Cube_FW_F1_V1.8.5/Drivers/STM32F1xx_HAL_Driver/Src\stm32f1xx_hal_flash.c **** FLASH_ProcessTypeDef pFlash;
 120:C:/Users/vasil/STM32Cube/Repository/STM32Cube_FW_F1_V1.8.5/Drivers/STM32F1xx_HAL_Driver/Src\stm32f1xx_hal_flash.c **** /**
 121:C:/Users/vasil/STM32Cube/Repository/STM32Cube_FW_F1_V1.8.5/Drivers/STM32F1xx_HAL_Driver/Src\stm32f1xx_hal_flash.c ****   * @}
 122:C:/Users/vasil/STM32Cube/Repository/STM32Cube_FW_F1_V1.8.5/Drivers/STM32F1xx_HAL_Driver/Src\stm32f1xx_hal_flash.c ****   */
 123:C:/Users/vasil/STM32Cube/Repository/STM32Cube_FW_F1_V1.8.5/Drivers/STM32F1xx_HAL_Driver/Src\stm32f1xx_hal_flash.c **** 
 124:C:/Users/vasil/STM32Cube/Repository/STM32Cube_FW_F1_V1.8.5/Drivers/STM32F1xx_HAL_Driver/Src\stm32f1xx_hal_flash.c **** /* Private function prototypes -----------------------------------------------*/
 125:C:/Users/vasil/STM32Cube/Repository/STM32Cube_FW_F1_V1.8.5/Drivers/STM32F1xx_HAL_Driver/Src\stm32f1xx_hal_flash.c **** /** @defgroup FLASH_Private_Functions FLASH Private Functions
 126:C:/Users/vasil/STM32Cube/Repository/STM32Cube_FW_F1_V1.8.5/Drivers/STM32F1xx_HAL_Driver/Src\stm32f1xx_hal_flash.c ****   * @{
 127:C:/Users/vasil/STM32Cube/Repository/STM32Cube_FW_F1_V1.8.5/Drivers/STM32F1xx_HAL_Driver/Src\stm32f1xx_hal_flash.c ****   */
 128:C:/Users/vasil/STM32Cube/Repository/STM32Cube_FW_F1_V1.8.5/Drivers/STM32F1xx_HAL_Driver/Src\stm32f1xx_hal_flash.c **** static  void   FLASH_Program_HalfWord(uint32_t Address, uint16_t Data);
 129:C:/Users/vasil/STM32Cube/Repository/STM32Cube_FW_F1_V1.8.5/Drivers/STM32F1xx_HAL_Driver/Src\stm32f1xx_hal_flash.c **** static  void   FLASH_SetErrorCode(void);
 130:C:/Users/vasil/STM32Cube/Repository/STM32Cube_FW_F1_V1.8.5/Drivers/STM32F1xx_HAL_Driver/Src\stm32f1xx_hal_flash.c **** extern void    FLASH_PageErase(uint32_t PageAddress);
 131:C:/Users/vasil/STM32Cube/Repository/STM32Cube_FW_F1_V1.8.5/Drivers/STM32F1xx_HAL_Driver/Src\stm32f1xx_hal_flash.c **** /**
 132:C:/Users/vasil/STM32Cube/Repository/STM32Cube_FW_F1_V1.8.5/Drivers/STM32F1xx_HAL_Driver/Src\stm32f1xx_hal_flash.c ****   * @}
 133:C:/Users/vasil/STM32Cube/Repository/STM32Cube_FW_F1_V1.8.5/Drivers/STM32F1xx_HAL_Driver/Src\stm32f1xx_hal_flash.c ****   */
 134:C:/Users/vasil/STM32Cube/Repository/STM32Cube_FW_F1_V1.8.5/Drivers/STM32F1xx_HAL_Driver/Src\stm32f1xx_hal_flash.c **** 
 135:C:/Users/vasil/STM32Cube/Repository/STM32Cube_FW_F1_V1.8.5/Drivers/STM32F1xx_HAL_Driver/Src\stm32f1xx_hal_flash.c **** /* Exported functions ---------------------------------------------------------*/
 136:C:/Users/vasil/STM32Cube/Repository/STM32Cube_FW_F1_V1.8.5/Drivers/STM32F1xx_HAL_Driver/Src\stm32f1xx_hal_flash.c **** /** @defgroup FLASH_Exported_Functions FLASH Exported Functions
 137:C:/Users/vasil/STM32Cube/Repository/STM32Cube_FW_F1_V1.8.5/Drivers/STM32F1xx_HAL_Driver/Src\stm32f1xx_hal_flash.c ****   * @{
 138:C:/Users/vasil/STM32Cube/Repository/STM32Cube_FW_F1_V1.8.5/Drivers/STM32F1xx_HAL_Driver/Src\stm32f1xx_hal_flash.c ****   */
 139:C:/Users/vasil/STM32Cube/Repository/STM32Cube_FW_F1_V1.8.5/Drivers/STM32F1xx_HAL_Driver/Src\stm32f1xx_hal_flash.c ****   
 140:C:/Users/vasil/STM32Cube/Repository/STM32Cube_FW_F1_V1.8.5/Drivers/STM32F1xx_HAL_Driver/Src\stm32f1xx_hal_flash.c **** /** @defgroup FLASH_Exported_Functions_Group1 Programming operation functions 
 141:C:/Users/vasil/STM32Cube/Repository/STM32Cube_FW_F1_V1.8.5/Drivers/STM32F1xx_HAL_Driver/Src\stm32f1xx_hal_flash.c ****   *  @brief   Programming operation functions 
 142:C:/Users/vasil/STM32Cube/Repository/STM32Cube_FW_F1_V1.8.5/Drivers/STM32F1xx_HAL_Driver/Src\stm32f1xx_hal_flash.c ****   *
 143:C:/Users/vasil/STM32Cube/Repository/STM32Cube_FW_F1_V1.8.5/Drivers/STM32F1xx_HAL_Driver/Src\stm32f1xx_hal_flash.c **** @verbatim   
 144:C:/Users/vasil/STM32Cube/Repository/STM32Cube_FW_F1_V1.8.5/Drivers/STM32F1xx_HAL_Driver/Src\stm32f1xx_hal_flash.c **** @endverbatim
 145:C:/Users/vasil/STM32Cube/Repository/STM32Cube_FW_F1_V1.8.5/Drivers/STM32F1xx_HAL_Driver/Src\stm32f1xx_hal_flash.c ****   * @{
 146:C:/Users/vasil/STM32Cube/Repository/STM32Cube_FW_F1_V1.8.5/Drivers/STM32F1xx_HAL_Driver/Src\stm32f1xx_hal_flash.c ****   */
ARM GAS  C:\Users\vasil\AppData\Local\Temp\ccvloAs2.s 			page 4


 147:C:/Users/vasil/STM32Cube/Repository/STM32Cube_FW_F1_V1.8.5/Drivers/STM32F1xx_HAL_Driver/Src\stm32f1xx_hal_flash.c **** 
 148:C:/Users/vasil/STM32Cube/Repository/STM32Cube_FW_F1_V1.8.5/Drivers/STM32F1xx_HAL_Driver/Src\stm32f1xx_hal_flash.c **** /**
 149:C:/Users/vasil/STM32Cube/Repository/STM32Cube_FW_F1_V1.8.5/Drivers/STM32F1xx_HAL_Driver/Src\stm32f1xx_hal_flash.c ****   * @brief  Program halfword, word or double word at a specified address
 150:C:/Users/vasil/STM32Cube/Repository/STM32Cube_FW_F1_V1.8.5/Drivers/STM32F1xx_HAL_Driver/Src\stm32f1xx_hal_flash.c ****   * @note   The function HAL_FLASH_Unlock() should be called before to unlock the FLASH interface
 151:C:/Users/vasil/STM32Cube/Repository/STM32Cube_FW_F1_V1.8.5/Drivers/STM32F1xx_HAL_Driver/Src\stm32f1xx_hal_flash.c ****   *         The function HAL_FLASH_Lock() should be called after to lock the FLASH interface
 152:C:/Users/vasil/STM32Cube/Repository/STM32Cube_FW_F1_V1.8.5/Drivers/STM32F1xx_HAL_Driver/Src\stm32f1xx_hal_flash.c ****   *
 153:C:/Users/vasil/STM32Cube/Repository/STM32Cube_FW_F1_V1.8.5/Drivers/STM32F1xx_HAL_Driver/Src\stm32f1xx_hal_flash.c ****   * @note   If an erase and a program operations are requested simultaneously,    
 154:C:/Users/vasil/STM32Cube/Repository/STM32Cube_FW_F1_V1.8.5/Drivers/STM32F1xx_HAL_Driver/Src\stm32f1xx_hal_flash.c ****   *         the erase operation is performed before the program one.
 155:C:/Users/vasil/STM32Cube/Repository/STM32Cube_FW_F1_V1.8.5/Drivers/STM32F1xx_HAL_Driver/Src\stm32f1xx_hal_flash.c ****   *  
 156:C:/Users/vasil/STM32Cube/Repository/STM32Cube_FW_F1_V1.8.5/Drivers/STM32F1xx_HAL_Driver/Src\stm32f1xx_hal_flash.c ****   * @note   FLASH should be previously erased before new programmation (only exception to this 
 157:C:/Users/vasil/STM32Cube/Repository/STM32Cube_FW_F1_V1.8.5/Drivers/STM32F1xx_HAL_Driver/Src\stm32f1xx_hal_flash.c ****   *         is when 0x0000 is programmed)
 158:C:/Users/vasil/STM32Cube/Repository/STM32Cube_FW_F1_V1.8.5/Drivers/STM32F1xx_HAL_Driver/Src\stm32f1xx_hal_flash.c ****   *
 159:C:/Users/vasil/STM32Cube/Repository/STM32Cube_FW_F1_V1.8.5/Drivers/STM32F1xx_HAL_Driver/Src\stm32f1xx_hal_flash.c ****   * @param  TypeProgram:  Indicate the way to program at a specified address.
 160:C:/Users/vasil/STM32Cube/Repository/STM32Cube_FW_F1_V1.8.5/Drivers/STM32F1xx_HAL_Driver/Src\stm32f1xx_hal_flash.c ****   *                       This parameter can be a value of @ref FLASH_Type_Program
 161:C:/Users/vasil/STM32Cube/Repository/STM32Cube_FW_F1_V1.8.5/Drivers/STM32F1xx_HAL_Driver/Src\stm32f1xx_hal_flash.c ****   * @param  Address:      Specifies the address to be programmed.
 162:C:/Users/vasil/STM32Cube/Repository/STM32Cube_FW_F1_V1.8.5/Drivers/STM32F1xx_HAL_Driver/Src\stm32f1xx_hal_flash.c ****   * @param  Data:         Specifies the data to be programmed
 163:C:/Users/vasil/STM32Cube/Repository/STM32Cube_FW_F1_V1.8.5/Drivers/STM32F1xx_HAL_Driver/Src\stm32f1xx_hal_flash.c ****   * 
 164:C:/Users/vasil/STM32Cube/Repository/STM32Cube_FW_F1_V1.8.5/Drivers/STM32F1xx_HAL_Driver/Src\stm32f1xx_hal_flash.c ****   * @retval HAL_StatusTypeDef HAL Status
 165:C:/Users/vasil/STM32Cube/Repository/STM32Cube_FW_F1_V1.8.5/Drivers/STM32F1xx_HAL_Driver/Src\stm32f1xx_hal_flash.c ****   */
 166:C:/Users/vasil/STM32Cube/Repository/STM32Cube_FW_F1_V1.8.5/Drivers/STM32F1xx_HAL_Driver/Src\stm32f1xx_hal_flash.c **** HAL_StatusTypeDef HAL_FLASH_Program(uint32_t TypeProgram, uint32_t Address, uint64_t Data)
 167:C:/Users/vasil/STM32Cube/Repository/STM32Cube_FW_F1_V1.8.5/Drivers/STM32F1xx_HAL_Driver/Src\stm32f1xx_hal_flash.c **** {
 168:C:/Users/vasil/STM32Cube/Repository/STM32Cube_FW_F1_V1.8.5/Drivers/STM32F1xx_HAL_Driver/Src\stm32f1xx_hal_flash.c ****   HAL_StatusTypeDef status = HAL_ERROR;
 169:C:/Users/vasil/STM32Cube/Repository/STM32Cube_FW_F1_V1.8.5/Drivers/STM32F1xx_HAL_Driver/Src\stm32f1xx_hal_flash.c ****   uint8_t index = 0;
 170:C:/Users/vasil/STM32Cube/Repository/STM32Cube_FW_F1_V1.8.5/Drivers/STM32F1xx_HAL_Driver/Src\stm32f1xx_hal_flash.c ****   uint8_t nbiterations = 0;
 171:C:/Users/vasil/STM32Cube/Repository/STM32Cube_FW_F1_V1.8.5/Drivers/STM32F1xx_HAL_Driver/Src\stm32f1xx_hal_flash.c ****   
 172:C:/Users/vasil/STM32Cube/Repository/STM32Cube_FW_F1_V1.8.5/Drivers/STM32F1xx_HAL_Driver/Src\stm32f1xx_hal_flash.c ****   /* Process Locked */
 173:C:/Users/vasil/STM32Cube/Repository/STM32Cube_FW_F1_V1.8.5/Drivers/STM32F1xx_HAL_Driver/Src\stm32f1xx_hal_flash.c ****   __HAL_LOCK(&pFlash);
 174:C:/Users/vasil/STM32Cube/Repository/STM32Cube_FW_F1_V1.8.5/Drivers/STM32F1xx_HAL_Driver/Src\stm32f1xx_hal_flash.c **** 
 175:C:/Users/vasil/STM32Cube/Repository/STM32Cube_FW_F1_V1.8.5/Drivers/STM32F1xx_HAL_Driver/Src\stm32f1xx_hal_flash.c ****   /* Check the parameters */
 176:C:/Users/vasil/STM32Cube/Repository/STM32Cube_FW_F1_V1.8.5/Drivers/STM32F1xx_HAL_Driver/Src\stm32f1xx_hal_flash.c ****   assert_param(IS_FLASH_TYPEPROGRAM(TypeProgram));
 177:C:/Users/vasil/STM32Cube/Repository/STM32Cube_FW_F1_V1.8.5/Drivers/STM32F1xx_HAL_Driver/Src\stm32f1xx_hal_flash.c ****   assert_param(IS_FLASH_PROGRAM_ADDRESS(Address));
 178:C:/Users/vasil/STM32Cube/Repository/STM32Cube_FW_F1_V1.8.5/Drivers/STM32F1xx_HAL_Driver/Src\stm32f1xx_hal_flash.c **** 
 179:C:/Users/vasil/STM32Cube/Repository/STM32Cube_FW_F1_V1.8.5/Drivers/STM32F1xx_HAL_Driver/Src\stm32f1xx_hal_flash.c **** #if defined(FLASH_BANK2_END)
 180:C:/Users/vasil/STM32Cube/Repository/STM32Cube_FW_F1_V1.8.5/Drivers/STM32F1xx_HAL_Driver/Src\stm32f1xx_hal_flash.c ****   if(Address <= FLASH_BANK1_END)
 181:C:/Users/vasil/STM32Cube/Repository/STM32Cube_FW_F1_V1.8.5/Drivers/STM32F1xx_HAL_Driver/Src\stm32f1xx_hal_flash.c ****   {
 182:C:/Users/vasil/STM32Cube/Repository/STM32Cube_FW_F1_V1.8.5/Drivers/STM32F1xx_HAL_Driver/Src\stm32f1xx_hal_flash.c **** #endif /* FLASH_BANK2_END */
 183:C:/Users/vasil/STM32Cube/Repository/STM32Cube_FW_F1_V1.8.5/Drivers/STM32F1xx_HAL_Driver/Src\stm32f1xx_hal_flash.c ****     /* Wait for last operation to be completed */
 184:C:/Users/vasil/STM32Cube/Repository/STM32Cube_FW_F1_V1.8.5/Drivers/STM32F1xx_HAL_Driver/Src\stm32f1xx_hal_flash.c ****     status = FLASH_WaitForLastOperation(FLASH_TIMEOUT_VALUE);
 185:C:/Users/vasil/STM32Cube/Repository/STM32Cube_FW_F1_V1.8.5/Drivers/STM32F1xx_HAL_Driver/Src\stm32f1xx_hal_flash.c **** #if defined(FLASH_BANK2_END)
 186:C:/Users/vasil/STM32Cube/Repository/STM32Cube_FW_F1_V1.8.5/Drivers/STM32F1xx_HAL_Driver/Src\stm32f1xx_hal_flash.c ****   }
 187:C:/Users/vasil/STM32Cube/Repository/STM32Cube_FW_F1_V1.8.5/Drivers/STM32F1xx_HAL_Driver/Src\stm32f1xx_hal_flash.c ****   else
 188:C:/Users/vasil/STM32Cube/Repository/STM32Cube_FW_F1_V1.8.5/Drivers/STM32F1xx_HAL_Driver/Src\stm32f1xx_hal_flash.c ****   {
 189:C:/Users/vasil/STM32Cube/Repository/STM32Cube_FW_F1_V1.8.5/Drivers/STM32F1xx_HAL_Driver/Src\stm32f1xx_hal_flash.c ****     /* Wait for last operation to be completed */
 190:C:/Users/vasil/STM32Cube/Repository/STM32Cube_FW_F1_V1.8.5/Drivers/STM32F1xx_HAL_Driver/Src\stm32f1xx_hal_flash.c ****     status = FLASH_WaitForLastOperationBank2(FLASH_TIMEOUT_VALUE);
 191:C:/Users/vasil/STM32Cube/Repository/STM32Cube_FW_F1_V1.8.5/Drivers/STM32F1xx_HAL_Driver/Src\stm32f1xx_hal_flash.c ****   }
 192:C:/Users/vasil/STM32Cube/Repository/STM32Cube_FW_F1_V1.8.5/Drivers/STM32F1xx_HAL_Driver/Src\stm32f1xx_hal_flash.c **** #endif /* FLASH_BANK2_END */
 193:C:/Users/vasil/STM32Cube/Repository/STM32Cube_FW_F1_V1.8.5/Drivers/STM32F1xx_HAL_Driver/Src\stm32f1xx_hal_flash.c ****   
 194:C:/Users/vasil/STM32Cube/Repository/STM32Cube_FW_F1_V1.8.5/Drivers/STM32F1xx_HAL_Driver/Src\stm32f1xx_hal_flash.c ****   if(status == HAL_OK)
 195:C:/Users/vasil/STM32Cube/Repository/STM32Cube_FW_F1_V1.8.5/Drivers/STM32F1xx_HAL_Driver/Src\stm32f1xx_hal_flash.c ****   {
 196:C:/Users/vasil/STM32Cube/Repository/STM32Cube_FW_F1_V1.8.5/Drivers/STM32F1xx_HAL_Driver/Src\stm32f1xx_hal_flash.c ****     if(TypeProgram == FLASH_TYPEPROGRAM_HALFWORD)
 197:C:/Users/vasil/STM32Cube/Repository/STM32Cube_FW_F1_V1.8.5/Drivers/STM32F1xx_HAL_Driver/Src\stm32f1xx_hal_flash.c ****     {
 198:C:/Users/vasil/STM32Cube/Repository/STM32Cube_FW_F1_V1.8.5/Drivers/STM32F1xx_HAL_Driver/Src\stm32f1xx_hal_flash.c ****       /* Program halfword (16-bit) at a specified address. */
 199:C:/Users/vasil/STM32Cube/Repository/STM32Cube_FW_F1_V1.8.5/Drivers/STM32F1xx_HAL_Driver/Src\stm32f1xx_hal_flash.c ****       nbiterations = 1U;
 200:C:/Users/vasil/STM32Cube/Repository/STM32Cube_FW_F1_V1.8.5/Drivers/STM32F1xx_HAL_Driver/Src\stm32f1xx_hal_flash.c ****     }
 201:C:/Users/vasil/STM32Cube/Repository/STM32Cube_FW_F1_V1.8.5/Drivers/STM32F1xx_HAL_Driver/Src\stm32f1xx_hal_flash.c ****     else if(TypeProgram == FLASH_TYPEPROGRAM_WORD)
 202:C:/Users/vasil/STM32Cube/Repository/STM32Cube_FW_F1_V1.8.5/Drivers/STM32F1xx_HAL_Driver/Src\stm32f1xx_hal_flash.c ****     {
 203:C:/Users/vasil/STM32Cube/Repository/STM32Cube_FW_F1_V1.8.5/Drivers/STM32F1xx_HAL_Driver/Src\stm32f1xx_hal_flash.c ****       /* Program word (32-bit = 2*16-bit) at a specified address. */
ARM GAS  C:\Users\vasil\AppData\Local\Temp\ccvloAs2.s 			page 5


 204:C:/Users/vasil/STM32Cube/Repository/STM32Cube_FW_F1_V1.8.5/Drivers/STM32F1xx_HAL_Driver/Src\stm32f1xx_hal_flash.c ****       nbiterations = 2U;
 205:C:/Users/vasil/STM32Cube/Repository/STM32Cube_FW_F1_V1.8.5/Drivers/STM32F1xx_HAL_Driver/Src\stm32f1xx_hal_flash.c ****     }
 206:C:/Users/vasil/STM32Cube/Repository/STM32Cube_FW_F1_V1.8.5/Drivers/STM32F1xx_HAL_Driver/Src\stm32f1xx_hal_flash.c ****     else
 207:C:/Users/vasil/STM32Cube/Repository/STM32Cube_FW_F1_V1.8.5/Drivers/STM32F1xx_HAL_Driver/Src\stm32f1xx_hal_flash.c ****     {
 208:C:/Users/vasil/STM32Cube/Repository/STM32Cube_FW_F1_V1.8.5/Drivers/STM32F1xx_HAL_Driver/Src\stm32f1xx_hal_flash.c ****       /* Program double word (64-bit = 4*16-bit) at a specified address. */
 209:C:/Users/vasil/STM32Cube/Repository/STM32Cube_FW_F1_V1.8.5/Drivers/STM32F1xx_HAL_Driver/Src\stm32f1xx_hal_flash.c ****       nbiterations = 4U;
 210:C:/Users/vasil/STM32Cube/Repository/STM32Cube_FW_F1_V1.8.5/Drivers/STM32F1xx_HAL_Driver/Src\stm32f1xx_hal_flash.c ****     }
 211:C:/Users/vasil/STM32Cube/Repository/STM32Cube_FW_F1_V1.8.5/Drivers/STM32F1xx_HAL_Driver/Src\stm32f1xx_hal_flash.c **** 
 212:C:/Users/vasil/STM32Cube/Repository/STM32Cube_FW_F1_V1.8.5/Drivers/STM32F1xx_HAL_Driver/Src\stm32f1xx_hal_flash.c ****     for (index = 0U; index < nbiterations; index++)
 213:C:/Users/vasil/STM32Cube/Repository/STM32Cube_FW_F1_V1.8.5/Drivers/STM32F1xx_HAL_Driver/Src\stm32f1xx_hal_flash.c ****     {
 214:C:/Users/vasil/STM32Cube/Repository/STM32Cube_FW_F1_V1.8.5/Drivers/STM32F1xx_HAL_Driver/Src\stm32f1xx_hal_flash.c ****       FLASH_Program_HalfWord((Address + (2U*index)), (uint16_t)(Data >> (16U*index)));
 215:C:/Users/vasil/STM32Cube/Repository/STM32Cube_FW_F1_V1.8.5/Drivers/STM32F1xx_HAL_Driver/Src\stm32f1xx_hal_flash.c **** 
 216:C:/Users/vasil/STM32Cube/Repository/STM32Cube_FW_F1_V1.8.5/Drivers/STM32F1xx_HAL_Driver/Src\stm32f1xx_hal_flash.c **** #if defined(FLASH_BANK2_END)
 217:C:/Users/vasil/STM32Cube/Repository/STM32Cube_FW_F1_V1.8.5/Drivers/STM32F1xx_HAL_Driver/Src\stm32f1xx_hal_flash.c ****       if(Address <= FLASH_BANK1_END)
 218:C:/Users/vasil/STM32Cube/Repository/STM32Cube_FW_F1_V1.8.5/Drivers/STM32F1xx_HAL_Driver/Src\stm32f1xx_hal_flash.c ****       {
 219:C:/Users/vasil/STM32Cube/Repository/STM32Cube_FW_F1_V1.8.5/Drivers/STM32F1xx_HAL_Driver/Src\stm32f1xx_hal_flash.c **** #endif /* FLASH_BANK2_END */
 220:C:/Users/vasil/STM32Cube/Repository/STM32Cube_FW_F1_V1.8.5/Drivers/STM32F1xx_HAL_Driver/Src\stm32f1xx_hal_flash.c ****         /* Wait for last operation to be completed */
 221:C:/Users/vasil/STM32Cube/Repository/STM32Cube_FW_F1_V1.8.5/Drivers/STM32F1xx_HAL_Driver/Src\stm32f1xx_hal_flash.c ****         status = FLASH_WaitForLastOperation(FLASH_TIMEOUT_VALUE);
 222:C:/Users/vasil/STM32Cube/Repository/STM32Cube_FW_F1_V1.8.5/Drivers/STM32F1xx_HAL_Driver/Src\stm32f1xx_hal_flash.c ****     
 223:C:/Users/vasil/STM32Cube/Repository/STM32Cube_FW_F1_V1.8.5/Drivers/STM32F1xx_HAL_Driver/Src\stm32f1xx_hal_flash.c ****         /* If the program operation is completed, disable the PG Bit */
 224:C:/Users/vasil/STM32Cube/Repository/STM32Cube_FW_F1_V1.8.5/Drivers/STM32F1xx_HAL_Driver/Src\stm32f1xx_hal_flash.c ****         CLEAR_BIT(FLASH->CR, FLASH_CR_PG);
 225:C:/Users/vasil/STM32Cube/Repository/STM32Cube_FW_F1_V1.8.5/Drivers/STM32F1xx_HAL_Driver/Src\stm32f1xx_hal_flash.c **** #if defined(FLASH_BANK2_END)
 226:C:/Users/vasil/STM32Cube/Repository/STM32Cube_FW_F1_V1.8.5/Drivers/STM32F1xx_HAL_Driver/Src\stm32f1xx_hal_flash.c ****       }
 227:C:/Users/vasil/STM32Cube/Repository/STM32Cube_FW_F1_V1.8.5/Drivers/STM32F1xx_HAL_Driver/Src\stm32f1xx_hal_flash.c ****       else
 228:C:/Users/vasil/STM32Cube/Repository/STM32Cube_FW_F1_V1.8.5/Drivers/STM32F1xx_HAL_Driver/Src\stm32f1xx_hal_flash.c ****       {
 229:C:/Users/vasil/STM32Cube/Repository/STM32Cube_FW_F1_V1.8.5/Drivers/STM32F1xx_HAL_Driver/Src\stm32f1xx_hal_flash.c ****         /* Wait for last operation to be completed */
 230:C:/Users/vasil/STM32Cube/Repository/STM32Cube_FW_F1_V1.8.5/Drivers/STM32F1xx_HAL_Driver/Src\stm32f1xx_hal_flash.c ****         status = FLASH_WaitForLastOperationBank2(FLASH_TIMEOUT_VALUE);
 231:C:/Users/vasil/STM32Cube/Repository/STM32Cube_FW_F1_V1.8.5/Drivers/STM32F1xx_HAL_Driver/Src\stm32f1xx_hal_flash.c ****         
 232:C:/Users/vasil/STM32Cube/Repository/STM32Cube_FW_F1_V1.8.5/Drivers/STM32F1xx_HAL_Driver/Src\stm32f1xx_hal_flash.c ****         /* If the program operation is completed, disable the PG Bit */
 233:C:/Users/vasil/STM32Cube/Repository/STM32Cube_FW_F1_V1.8.5/Drivers/STM32F1xx_HAL_Driver/Src\stm32f1xx_hal_flash.c ****         CLEAR_BIT(FLASH->CR2, FLASH_CR2_PG);
 234:C:/Users/vasil/STM32Cube/Repository/STM32Cube_FW_F1_V1.8.5/Drivers/STM32F1xx_HAL_Driver/Src\stm32f1xx_hal_flash.c ****       }
 235:C:/Users/vasil/STM32Cube/Repository/STM32Cube_FW_F1_V1.8.5/Drivers/STM32F1xx_HAL_Driver/Src\stm32f1xx_hal_flash.c **** #endif /* FLASH_BANK2_END */
 236:C:/Users/vasil/STM32Cube/Repository/STM32Cube_FW_F1_V1.8.5/Drivers/STM32F1xx_HAL_Driver/Src\stm32f1xx_hal_flash.c ****       /* In case of error, stop programation procedure */
 237:C:/Users/vasil/STM32Cube/Repository/STM32Cube_FW_F1_V1.8.5/Drivers/STM32F1xx_HAL_Driver/Src\stm32f1xx_hal_flash.c ****       if (status != HAL_OK)
 238:C:/Users/vasil/STM32Cube/Repository/STM32Cube_FW_F1_V1.8.5/Drivers/STM32F1xx_HAL_Driver/Src\stm32f1xx_hal_flash.c ****       {
 239:C:/Users/vasil/STM32Cube/Repository/STM32Cube_FW_F1_V1.8.5/Drivers/STM32F1xx_HAL_Driver/Src\stm32f1xx_hal_flash.c ****         break;
 240:C:/Users/vasil/STM32Cube/Repository/STM32Cube_FW_F1_V1.8.5/Drivers/STM32F1xx_HAL_Driver/Src\stm32f1xx_hal_flash.c ****       }
 241:C:/Users/vasil/STM32Cube/Repository/STM32Cube_FW_F1_V1.8.5/Drivers/STM32F1xx_HAL_Driver/Src\stm32f1xx_hal_flash.c ****     }
 242:C:/Users/vasil/STM32Cube/Repository/STM32Cube_FW_F1_V1.8.5/Drivers/STM32F1xx_HAL_Driver/Src\stm32f1xx_hal_flash.c ****   }
 243:C:/Users/vasil/STM32Cube/Repository/STM32Cube_FW_F1_V1.8.5/Drivers/STM32F1xx_HAL_Driver/Src\stm32f1xx_hal_flash.c **** 
 244:C:/Users/vasil/STM32Cube/Repository/STM32Cube_FW_F1_V1.8.5/Drivers/STM32F1xx_HAL_Driver/Src\stm32f1xx_hal_flash.c ****   /* Process Unlocked */
 245:C:/Users/vasil/STM32Cube/Repository/STM32Cube_FW_F1_V1.8.5/Drivers/STM32F1xx_HAL_Driver/Src\stm32f1xx_hal_flash.c ****   __HAL_UNLOCK(&pFlash);
 246:C:/Users/vasil/STM32Cube/Repository/STM32Cube_FW_F1_V1.8.5/Drivers/STM32F1xx_HAL_Driver/Src\stm32f1xx_hal_flash.c **** 
 247:C:/Users/vasil/STM32Cube/Repository/STM32Cube_FW_F1_V1.8.5/Drivers/STM32F1xx_HAL_Driver/Src\stm32f1xx_hal_flash.c ****   return status;
 248:C:/Users/vasil/STM32Cube/Repository/STM32Cube_FW_F1_V1.8.5/Drivers/STM32F1xx_HAL_Driver/Src\stm32f1xx_hal_flash.c **** }
 249:C:/Users/vasil/STM32Cube/Repository/STM32Cube_FW_F1_V1.8.5/Drivers/STM32F1xx_HAL_Driver/Src\stm32f1xx_hal_flash.c **** 
 250:C:/Users/vasil/STM32Cube/Repository/STM32Cube_FW_F1_V1.8.5/Drivers/STM32F1xx_HAL_Driver/Src\stm32f1xx_hal_flash.c **** /**
 251:C:/Users/vasil/STM32Cube/Repository/STM32Cube_FW_F1_V1.8.5/Drivers/STM32F1xx_HAL_Driver/Src\stm32f1xx_hal_flash.c ****   * @brief  Program halfword, word or double word at a specified address  with interrupt enabled.
 252:C:/Users/vasil/STM32Cube/Repository/STM32Cube_FW_F1_V1.8.5/Drivers/STM32F1xx_HAL_Driver/Src\stm32f1xx_hal_flash.c ****   * @note   The function HAL_FLASH_Unlock() should be called before to unlock the FLASH interface
 253:C:/Users/vasil/STM32Cube/Repository/STM32Cube_FW_F1_V1.8.5/Drivers/STM32F1xx_HAL_Driver/Src\stm32f1xx_hal_flash.c ****   *         The function HAL_FLASH_Lock() should be called after to lock the FLASH interface
 254:C:/Users/vasil/STM32Cube/Repository/STM32Cube_FW_F1_V1.8.5/Drivers/STM32F1xx_HAL_Driver/Src\stm32f1xx_hal_flash.c ****   *
 255:C:/Users/vasil/STM32Cube/Repository/STM32Cube_FW_F1_V1.8.5/Drivers/STM32F1xx_HAL_Driver/Src\stm32f1xx_hal_flash.c ****   * @note   If an erase and a program operations are requested simultaneously,    
 256:C:/Users/vasil/STM32Cube/Repository/STM32Cube_FW_F1_V1.8.5/Drivers/STM32F1xx_HAL_Driver/Src\stm32f1xx_hal_flash.c ****   *         the erase operation is performed before the program one.
 257:C:/Users/vasil/STM32Cube/Repository/STM32Cube_FW_F1_V1.8.5/Drivers/STM32F1xx_HAL_Driver/Src\stm32f1xx_hal_flash.c ****   *
 258:C:/Users/vasil/STM32Cube/Repository/STM32Cube_FW_F1_V1.8.5/Drivers/STM32F1xx_HAL_Driver/Src\stm32f1xx_hal_flash.c ****   * @param  TypeProgram: Indicate the way to program at a specified address.
 259:C:/Users/vasil/STM32Cube/Repository/STM32Cube_FW_F1_V1.8.5/Drivers/STM32F1xx_HAL_Driver/Src\stm32f1xx_hal_flash.c ****   *                      This parameter can be a value of @ref FLASH_Type_Program
 260:C:/Users/vasil/STM32Cube/Repository/STM32Cube_FW_F1_V1.8.5/Drivers/STM32F1xx_HAL_Driver/Src\stm32f1xx_hal_flash.c ****   * @param  Address:     Specifies the address to be programmed.
ARM GAS  C:\Users\vasil\AppData\Local\Temp\ccvloAs2.s 			page 6


 261:C:/Users/vasil/STM32Cube/Repository/STM32Cube_FW_F1_V1.8.5/Drivers/STM32F1xx_HAL_Driver/Src\stm32f1xx_hal_flash.c ****   * @param  Data:        Specifies the data to be programmed
 262:C:/Users/vasil/STM32Cube/Repository/STM32Cube_FW_F1_V1.8.5/Drivers/STM32F1xx_HAL_Driver/Src\stm32f1xx_hal_flash.c ****   * 
 263:C:/Users/vasil/STM32Cube/Repository/STM32Cube_FW_F1_V1.8.5/Drivers/STM32F1xx_HAL_Driver/Src\stm32f1xx_hal_flash.c ****   * @retval HAL_StatusTypeDef HAL Status
 264:C:/Users/vasil/STM32Cube/Repository/STM32Cube_FW_F1_V1.8.5/Drivers/STM32F1xx_HAL_Driver/Src\stm32f1xx_hal_flash.c ****   */
 265:C:/Users/vasil/STM32Cube/Repository/STM32Cube_FW_F1_V1.8.5/Drivers/STM32F1xx_HAL_Driver/Src\stm32f1xx_hal_flash.c **** HAL_StatusTypeDef HAL_FLASH_Program_IT(uint32_t TypeProgram, uint32_t Address, uint64_t Data)
 266:C:/Users/vasil/STM32Cube/Repository/STM32Cube_FW_F1_V1.8.5/Drivers/STM32F1xx_HAL_Driver/Src\stm32f1xx_hal_flash.c **** {
 267:C:/Users/vasil/STM32Cube/Repository/STM32Cube_FW_F1_V1.8.5/Drivers/STM32F1xx_HAL_Driver/Src\stm32f1xx_hal_flash.c ****   HAL_StatusTypeDef status = HAL_OK;
 268:C:/Users/vasil/STM32Cube/Repository/STM32Cube_FW_F1_V1.8.5/Drivers/STM32F1xx_HAL_Driver/Src\stm32f1xx_hal_flash.c ****   
 269:C:/Users/vasil/STM32Cube/Repository/STM32Cube_FW_F1_V1.8.5/Drivers/STM32F1xx_HAL_Driver/Src\stm32f1xx_hal_flash.c ****   /* Process Locked */
 270:C:/Users/vasil/STM32Cube/Repository/STM32Cube_FW_F1_V1.8.5/Drivers/STM32F1xx_HAL_Driver/Src\stm32f1xx_hal_flash.c ****   __HAL_LOCK(&pFlash);
 271:C:/Users/vasil/STM32Cube/Repository/STM32Cube_FW_F1_V1.8.5/Drivers/STM32F1xx_HAL_Driver/Src\stm32f1xx_hal_flash.c **** 
 272:C:/Users/vasil/STM32Cube/Repository/STM32Cube_FW_F1_V1.8.5/Drivers/STM32F1xx_HAL_Driver/Src\stm32f1xx_hal_flash.c ****   /* Check the parameters */
 273:C:/Users/vasil/STM32Cube/Repository/STM32Cube_FW_F1_V1.8.5/Drivers/STM32F1xx_HAL_Driver/Src\stm32f1xx_hal_flash.c ****   assert_param(IS_FLASH_TYPEPROGRAM(TypeProgram));
 274:C:/Users/vasil/STM32Cube/Repository/STM32Cube_FW_F1_V1.8.5/Drivers/STM32F1xx_HAL_Driver/Src\stm32f1xx_hal_flash.c ****   assert_param(IS_FLASH_PROGRAM_ADDRESS(Address));
 275:C:/Users/vasil/STM32Cube/Repository/STM32Cube_FW_F1_V1.8.5/Drivers/STM32F1xx_HAL_Driver/Src\stm32f1xx_hal_flash.c **** 
 276:C:/Users/vasil/STM32Cube/Repository/STM32Cube_FW_F1_V1.8.5/Drivers/STM32F1xx_HAL_Driver/Src\stm32f1xx_hal_flash.c **** #if defined(FLASH_BANK2_END)
 277:C:/Users/vasil/STM32Cube/Repository/STM32Cube_FW_F1_V1.8.5/Drivers/STM32F1xx_HAL_Driver/Src\stm32f1xx_hal_flash.c ****   /* If procedure already ongoing, reject the next one */
 278:C:/Users/vasil/STM32Cube/Repository/STM32Cube_FW_F1_V1.8.5/Drivers/STM32F1xx_HAL_Driver/Src\stm32f1xx_hal_flash.c ****   if (pFlash.ProcedureOnGoing != FLASH_PROC_NONE)
 279:C:/Users/vasil/STM32Cube/Repository/STM32Cube_FW_F1_V1.8.5/Drivers/STM32F1xx_HAL_Driver/Src\stm32f1xx_hal_flash.c ****   {
 280:C:/Users/vasil/STM32Cube/Repository/STM32Cube_FW_F1_V1.8.5/Drivers/STM32F1xx_HAL_Driver/Src\stm32f1xx_hal_flash.c ****     return HAL_ERROR;
 281:C:/Users/vasil/STM32Cube/Repository/STM32Cube_FW_F1_V1.8.5/Drivers/STM32F1xx_HAL_Driver/Src\stm32f1xx_hal_flash.c ****   }
 282:C:/Users/vasil/STM32Cube/Repository/STM32Cube_FW_F1_V1.8.5/Drivers/STM32F1xx_HAL_Driver/Src\stm32f1xx_hal_flash.c ****   
 283:C:/Users/vasil/STM32Cube/Repository/STM32Cube_FW_F1_V1.8.5/Drivers/STM32F1xx_HAL_Driver/Src\stm32f1xx_hal_flash.c ****   if(Address <= FLASH_BANK1_END)
 284:C:/Users/vasil/STM32Cube/Repository/STM32Cube_FW_F1_V1.8.5/Drivers/STM32F1xx_HAL_Driver/Src\stm32f1xx_hal_flash.c ****   {
 285:C:/Users/vasil/STM32Cube/Repository/STM32Cube_FW_F1_V1.8.5/Drivers/STM32F1xx_HAL_Driver/Src\stm32f1xx_hal_flash.c ****     /* Enable End of FLASH Operation and Error source interrupts */
 286:C:/Users/vasil/STM32Cube/Repository/STM32Cube_FW_F1_V1.8.5/Drivers/STM32F1xx_HAL_Driver/Src\stm32f1xx_hal_flash.c ****     __HAL_FLASH_ENABLE_IT(FLASH_IT_EOP_BANK1 | FLASH_IT_ERR_BANK1);
 287:C:/Users/vasil/STM32Cube/Repository/STM32Cube_FW_F1_V1.8.5/Drivers/STM32F1xx_HAL_Driver/Src\stm32f1xx_hal_flash.c **** 
 288:C:/Users/vasil/STM32Cube/Repository/STM32Cube_FW_F1_V1.8.5/Drivers/STM32F1xx_HAL_Driver/Src\stm32f1xx_hal_flash.c ****   }else
 289:C:/Users/vasil/STM32Cube/Repository/STM32Cube_FW_F1_V1.8.5/Drivers/STM32F1xx_HAL_Driver/Src\stm32f1xx_hal_flash.c ****   {
 290:C:/Users/vasil/STM32Cube/Repository/STM32Cube_FW_F1_V1.8.5/Drivers/STM32F1xx_HAL_Driver/Src\stm32f1xx_hal_flash.c ****     /* Enable End of FLASH Operation and Error source interrupts */
 291:C:/Users/vasil/STM32Cube/Repository/STM32Cube_FW_F1_V1.8.5/Drivers/STM32F1xx_HAL_Driver/Src\stm32f1xx_hal_flash.c ****     __HAL_FLASH_ENABLE_IT(FLASH_IT_EOP_BANK2 | FLASH_IT_ERR_BANK2);
 292:C:/Users/vasil/STM32Cube/Repository/STM32Cube_FW_F1_V1.8.5/Drivers/STM32F1xx_HAL_Driver/Src\stm32f1xx_hal_flash.c ****   }
 293:C:/Users/vasil/STM32Cube/Repository/STM32Cube_FW_F1_V1.8.5/Drivers/STM32F1xx_HAL_Driver/Src\stm32f1xx_hal_flash.c **** #else
 294:C:/Users/vasil/STM32Cube/Repository/STM32Cube_FW_F1_V1.8.5/Drivers/STM32F1xx_HAL_Driver/Src\stm32f1xx_hal_flash.c ****   /* Enable End of FLASH Operation and Error source interrupts */
 295:C:/Users/vasil/STM32Cube/Repository/STM32Cube_FW_F1_V1.8.5/Drivers/STM32F1xx_HAL_Driver/Src\stm32f1xx_hal_flash.c ****   __HAL_FLASH_ENABLE_IT(FLASH_IT_EOP | FLASH_IT_ERR);
 296:C:/Users/vasil/STM32Cube/Repository/STM32Cube_FW_F1_V1.8.5/Drivers/STM32F1xx_HAL_Driver/Src\stm32f1xx_hal_flash.c **** #endif /* FLASH_BANK2_END */
 297:C:/Users/vasil/STM32Cube/Repository/STM32Cube_FW_F1_V1.8.5/Drivers/STM32F1xx_HAL_Driver/Src\stm32f1xx_hal_flash.c ****   
 298:C:/Users/vasil/STM32Cube/Repository/STM32Cube_FW_F1_V1.8.5/Drivers/STM32F1xx_HAL_Driver/Src\stm32f1xx_hal_flash.c ****   pFlash.Address = Address;
 299:C:/Users/vasil/STM32Cube/Repository/STM32Cube_FW_F1_V1.8.5/Drivers/STM32F1xx_HAL_Driver/Src\stm32f1xx_hal_flash.c ****   pFlash.Data = Data;
 300:C:/Users/vasil/STM32Cube/Repository/STM32Cube_FW_F1_V1.8.5/Drivers/STM32F1xx_HAL_Driver/Src\stm32f1xx_hal_flash.c **** 
 301:C:/Users/vasil/STM32Cube/Repository/STM32Cube_FW_F1_V1.8.5/Drivers/STM32F1xx_HAL_Driver/Src\stm32f1xx_hal_flash.c ****   if(TypeProgram == FLASH_TYPEPROGRAM_HALFWORD)
 302:C:/Users/vasil/STM32Cube/Repository/STM32Cube_FW_F1_V1.8.5/Drivers/STM32F1xx_HAL_Driver/Src\stm32f1xx_hal_flash.c ****   {
 303:C:/Users/vasil/STM32Cube/Repository/STM32Cube_FW_F1_V1.8.5/Drivers/STM32F1xx_HAL_Driver/Src\stm32f1xx_hal_flash.c ****     pFlash.ProcedureOnGoing = FLASH_PROC_PROGRAMHALFWORD;
 304:C:/Users/vasil/STM32Cube/Repository/STM32Cube_FW_F1_V1.8.5/Drivers/STM32F1xx_HAL_Driver/Src\stm32f1xx_hal_flash.c ****     /* Program halfword (16-bit) at a specified address. */
 305:C:/Users/vasil/STM32Cube/Repository/STM32Cube_FW_F1_V1.8.5/Drivers/STM32F1xx_HAL_Driver/Src\stm32f1xx_hal_flash.c ****     pFlash.DataRemaining = 1U;
 306:C:/Users/vasil/STM32Cube/Repository/STM32Cube_FW_F1_V1.8.5/Drivers/STM32F1xx_HAL_Driver/Src\stm32f1xx_hal_flash.c ****   }
 307:C:/Users/vasil/STM32Cube/Repository/STM32Cube_FW_F1_V1.8.5/Drivers/STM32F1xx_HAL_Driver/Src\stm32f1xx_hal_flash.c ****   else if(TypeProgram == FLASH_TYPEPROGRAM_WORD)
 308:C:/Users/vasil/STM32Cube/Repository/STM32Cube_FW_F1_V1.8.5/Drivers/STM32F1xx_HAL_Driver/Src\stm32f1xx_hal_flash.c ****   {
 309:C:/Users/vasil/STM32Cube/Repository/STM32Cube_FW_F1_V1.8.5/Drivers/STM32F1xx_HAL_Driver/Src\stm32f1xx_hal_flash.c ****     pFlash.ProcedureOnGoing = FLASH_PROC_PROGRAMWORD;
 310:C:/Users/vasil/STM32Cube/Repository/STM32Cube_FW_F1_V1.8.5/Drivers/STM32F1xx_HAL_Driver/Src\stm32f1xx_hal_flash.c ****     /* Program word (32-bit : 2*16-bit) at a specified address. */
 311:C:/Users/vasil/STM32Cube/Repository/STM32Cube_FW_F1_V1.8.5/Drivers/STM32F1xx_HAL_Driver/Src\stm32f1xx_hal_flash.c ****     pFlash.DataRemaining = 2U;
 312:C:/Users/vasil/STM32Cube/Repository/STM32Cube_FW_F1_V1.8.5/Drivers/STM32F1xx_HAL_Driver/Src\stm32f1xx_hal_flash.c ****   }
 313:C:/Users/vasil/STM32Cube/Repository/STM32Cube_FW_F1_V1.8.5/Drivers/STM32F1xx_HAL_Driver/Src\stm32f1xx_hal_flash.c ****   else
 314:C:/Users/vasil/STM32Cube/Repository/STM32Cube_FW_F1_V1.8.5/Drivers/STM32F1xx_HAL_Driver/Src\stm32f1xx_hal_flash.c ****   {
 315:C:/Users/vasil/STM32Cube/Repository/STM32Cube_FW_F1_V1.8.5/Drivers/STM32F1xx_HAL_Driver/Src\stm32f1xx_hal_flash.c ****     pFlash.ProcedureOnGoing = FLASH_PROC_PROGRAMDOUBLEWORD;
 316:C:/Users/vasil/STM32Cube/Repository/STM32Cube_FW_F1_V1.8.5/Drivers/STM32F1xx_HAL_Driver/Src\stm32f1xx_hal_flash.c ****     /* Program double word (64-bit : 4*16-bit) at a specified address. */
 317:C:/Users/vasil/STM32Cube/Repository/STM32Cube_FW_F1_V1.8.5/Drivers/STM32F1xx_HAL_Driver/Src\stm32f1xx_hal_flash.c ****     pFlash.DataRemaining = 4U;
ARM GAS  C:\Users\vasil\AppData\Local\Temp\ccvloAs2.s 			page 7


 318:C:/Users/vasil/STM32Cube/Repository/STM32Cube_FW_F1_V1.8.5/Drivers/STM32F1xx_HAL_Driver/Src\stm32f1xx_hal_flash.c ****   }
 319:C:/Users/vasil/STM32Cube/Repository/STM32Cube_FW_F1_V1.8.5/Drivers/STM32F1xx_HAL_Driver/Src\stm32f1xx_hal_flash.c **** 
 320:C:/Users/vasil/STM32Cube/Repository/STM32Cube_FW_F1_V1.8.5/Drivers/STM32F1xx_HAL_Driver/Src\stm32f1xx_hal_flash.c ****   /* Program halfword (16-bit) at a specified address. */
 321:C:/Users/vasil/STM32Cube/Repository/STM32Cube_FW_F1_V1.8.5/Drivers/STM32F1xx_HAL_Driver/Src\stm32f1xx_hal_flash.c ****   FLASH_Program_HalfWord(Address, (uint16_t)Data);
 322:C:/Users/vasil/STM32Cube/Repository/STM32Cube_FW_F1_V1.8.5/Drivers/STM32F1xx_HAL_Driver/Src\stm32f1xx_hal_flash.c **** 
 323:C:/Users/vasil/STM32Cube/Repository/STM32Cube_FW_F1_V1.8.5/Drivers/STM32F1xx_HAL_Driver/Src\stm32f1xx_hal_flash.c ****   return status;
 324:C:/Users/vasil/STM32Cube/Repository/STM32Cube_FW_F1_V1.8.5/Drivers/STM32F1xx_HAL_Driver/Src\stm32f1xx_hal_flash.c **** }
 325:C:/Users/vasil/STM32Cube/Repository/STM32Cube_FW_F1_V1.8.5/Drivers/STM32F1xx_HAL_Driver/Src\stm32f1xx_hal_flash.c **** 
 326:C:/Users/vasil/STM32Cube/Repository/STM32Cube_FW_F1_V1.8.5/Drivers/STM32F1xx_HAL_Driver/Src\stm32f1xx_hal_flash.c **** /**
 327:C:/Users/vasil/STM32Cube/Repository/STM32Cube_FW_F1_V1.8.5/Drivers/STM32F1xx_HAL_Driver/Src\stm32f1xx_hal_flash.c ****   * @brief This function handles FLASH interrupt request.
 328:C:/Users/vasil/STM32Cube/Repository/STM32Cube_FW_F1_V1.8.5/Drivers/STM32F1xx_HAL_Driver/Src\stm32f1xx_hal_flash.c ****   * @retval None
 329:C:/Users/vasil/STM32Cube/Repository/STM32Cube_FW_F1_V1.8.5/Drivers/STM32F1xx_HAL_Driver/Src\stm32f1xx_hal_flash.c ****   */
 330:C:/Users/vasil/STM32Cube/Repository/STM32Cube_FW_F1_V1.8.5/Drivers/STM32F1xx_HAL_Driver/Src\stm32f1xx_hal_flash.c **** void HAL_FLASH_IRQHandler(void)
 331:C:/Users/vasil/STM32Cube/Repository/STM32Cube_FW_F1_V1.8.5/Drivers/STM32F1xx_HAL_Driver/Src\stm32f1xx_hal_flash.c **** {
 332:C:/Users/vasil/STM32Cube/Repository/STM32Cube_FW_F1_V1.8.5/Drivers/STM32F1xx_HAL_Driver/Src\stm32f1xx_hal_flash.c ****   uint32_t addresstmp = 0U;
 333:C:/Users/vasil/STM32Cube/Repository/STM32Cube_FW_F1_V1.8.5/Drivers/STM32F1xx_HAL_Driver/Src\stm32f1xx_hal_flash.c ****   
 334:C:/Users/vasil/STM32Cube/Repository/STM32Cube_FW_F1_V1.8.5/Drivers/STM32F1xx_HAL_Driver/Src\stm32f1xx_hal_flash.c ****   /* Check FLASH operation error flags */
 335:C:/Users/vasil/STM32Cube/Repository/STM32Cube_FW_F1_V1.8.5/Drivers/STM32F1xx_HAL_Driver/Src\stm32f1xx_hal_flash.c **** #if defined(FLASH_BANK2_END)
 336:C:/Users/vasil/STM32Cube/Repository/STM32Cube_FW_F1_V1.8.5/Drivers/STM32F1xx_HAL_Driver/Src\stm32f1xx_hal_flash.c ****   if(__HAL_FLASH_GET_FLAG(FLASH_FLAG_WRPERR_BANK1) || __HAL_FLASH_GET_FLAG(FLASH_FLAG_PGERR_BANK1) 
 337:C:/Users/vasil/STM32Cube/Repository/STM32Cube_FW_F1_V1.8.5/Drivers/STM32F1xx_HAL_Driver/Src\stm32f1xx_hal_flash.c ****     (__HAL_FLASH_GET_FLAG(FLASH_FLAG_WRPERR_BANK2) || __HAL_FLASH_GET_FLAG(FLASH_FLAG_PGERR_BANK2))
 338:C:/Users/vasil/STM32Cube/Repository/STM32Cube_FW_F1_V1.8.5/Drivers/STM32F1xx_HAL_Driver/Src\stm32f1xx_hal_flash.c **** #else
 339:C:/Users/vasil/STM32Cube/Repository/STM32Cube_FW_F1_V1.8.5/Drivers/STM32F1xx_HAL_Driver/Src\stm32f1xx_hal_flash.c ****   if(__HAL_FLASH_GET_FLAG(FLASH_FLAG_WRPERR) ||__HAL_FLASH_GET_FLAG(FLASH_FLAG_PGERR))
 340:C:/Users/vasil/STM32Cube/Repository/STM32Cube_FW_F1_V1.8.5/Drivers/STM32F1xx_HAL_Driver/Src\stm32f1xx_hal_flash.c **** #endif /* FLASH_BANK2_END */
 341:C:/Users/vasil/STM32Cube/Repository/STM32Cube_FW_F1_V1.8.5/Drivers/STM32F1xx_HAL_Driver/Src\stm32f1xx_hal_flash.c ****   {
 342:C:/Users/vasil/STM32Cube/Repository/STM32Cube_FW_F1_V1.8.5/Drivers/STM32F1xx_HAL_Driver/Src\stm32f1xx_hal_flash.c ****     /* Return the faulty address */
 343:C:/Users/vasil/STM32Cube/Repository/STM32Cube_FW_F1_V1.8.5/Drivers/STM32F1xx_HAL_Driver/Src\stm32f1xx_hal_flash.c ****     addresstmp = pFlash.Address;
 344:C:/Users/vasil/STM32Cube/Repository/STM32Cube_FW_F1_V1.8.5/Drivers/STM32F1xx_HAL_Driver/Src\stm32f1xx_hal_flash.c ****     /* Reset address */
 345:C:/Users/vasil/STM32Cube/Repository/STM32Cube_FW_F1_V1.8.5/Drivers/STM32F1xx_HAL_Driver/Src\stm32f1xx_hal_flash.c ****     pFlash.Address = 0xFFFFFFFFU;
 346:C:/Users/vasil/STM32Cube/Repository/STM32Cube_FW_F1_V1.8.5/Drivers/STM32F1xx_HAL_Driver/Src\stm32f1xx_hal_flash.c ****   
 347:C:/Users/vasil/STM32Cube/Repository/STM32Cube_FW_F1_V1.8.5/Drivers/STM32F1xx_HAL_Driver/Src\stm32f1xx_hal_flash.c ****     /* Save the Error code */
 348:C:/Users/vasil/STM32Cube/Repository/STM32Cube_FW_F1_V1.8.5/Drivers/STM32F1xx_HAL_Driver/Src\stm32f1xx_hal_flash.c ****     FLASH_SetErrorCode();
 349:C:/Users/vasil/STM32Cube/Repository/STM32Cube_FW_F1_V1.8.5/Drivers/STM32F1xx_HAL_Driver/Src\stm32f1xx_hal_flash.c ****     
 350:C:/Users/vasil/STM32Cube/Repository/STM32Cube_FW_F1_V1.8.5/Drivers/STM32F1xx_HAL_Driver/Src\stm32f1xx_hal_flash.c ****     /* FLASH error interrupt user callback */
 351:C:/Users/vasil/STM32Cube/Repository/STM32Cube_FW_F1_V1.8.5/Drivers/STM32F1xx_HAL_Driver/Src\stm32f1xx_hal_flash.c ****     HAL_FLASH_OperationErrorCallback(addresstmp);
 352:C:/Users/vasil/STM32Cube/Repository/STM32Cube_FW_F1_V1.8.5/Drivers/STM32F1xx_HAL_Driver/Src\stm32f1xx_hal_flash.c **** 
 353:C:/Users/vasil/STM32Cube/Repository/STM32Cube_FW_F1_V1.8.5/Drivers/STM32F1xx_HAL_Driver/Src\stm32f1xx_hal_flash.c ****     /* Stop the procedure ongoing */
 354:C:/Users/vasil/STM32Cube/Repository/STM32Cube_FW_F1_V1.8.5/Drivers/STM32F1xx_HAL_Driver/Src\stm32f1xx_hal_flash.c ****     pFlash.ProcedureOnGoing = FLASH_PROC_NONE;
 355:C:/Users/vasil/STM32Cube/Repository/STM32Cube_FW_F1_V1.8.5/Drivers/STM32F1xx_HAL_Driver/Src\stm32f1xx_hal_flash.c ****   }
 356:C:/Users/vasil/STM32Cube/Repository/STM32Cube_FW_F1_V1.8.5/Drivers/STM32F1xx_HAL_Driver/Src\stm32f1xx_hal_flash.c **** 
 357:C:/Users/vasil/STM32Cube/Repository/STM32Cube_FW_F1_V1.8.5/Drivers/STM32F1xx_HAL_Driver/Src\stm32f1xx_hal_flash.c ****   /* Check FLASH End of Operation flag  */
 358:C:/Users/vasil/STM32Cube/Repository/STM32Cube_FW_F1_V1.8.5/Drivers/STM32F1xx_HAL_Driver/Src\stm32f1xx_hal_flash.c **** #if defined(FLASH_BANK2_END)
 359:C:/Users/vasil/STM32Cube/Repository/STM32Cube_FW_F1_V1.8.5/Drivers/STM32F1xx_HAL_Driver/Src\stm32f1xx_hal_flash.c ****   if(__HAL_FLASH_GET_FLAG(FLASH_FLAG_EOP_BANK1))
 360:C:/Users/vasil/STM32Cube/Repository/STM32Cube_FW_F1_V1.8.5/Drivers/STM32F1xx_HAL_Driver/Src\stm32f1xx_hal_flash.c ****   {
 361:C:/Users/vasil/STM32Cube/Repository/STM32Cube_FW_F1_V1.8.5/Drivers/STM32F1xx_HAL_Driver/Src\stm32f1xx_hal_flash.c ****     /* Clear FLASH End of Operation pending bit */
 362:C:/Users/vasil/STM32Cube/Repository/STM32Cube_FW_F1_V1.8.5/Drivers/STM32F1xx_HAL_Driver/Src\stm32f1xx_hal_flash.c ****     __HAL_FLASH_CLEAR_FLAG(FLASH_FLAG_EOP_BANK1);
 363:C:/Users/vasil/STM32Cube/Repository/STM32Cube_FW_F1_V1.8.5/Drivers/STM32F1xx_HAL_Driver/Src\stm32f1xx_hal_flash.c **** #else
 364:C:/Users/vasil/STM32Cube/Repository/STM32Cube_FW_F1_V1.8.5/Drivers/STM32F1xx_HAL_Driver/Src\stm32f1xx_hal_flash.c ****   if(__HAL_FLASH_GET_FLAG(FLASH_FLAG_EOP))
 365:C:/Users/vasil/STM32Cube/Repository/STM32Cube_FW_F1_V1.8.5/Drivers/STM32F1xx_HAL_Driver/Src\stm32f1xx_hal_flash.c ****   {
 366:C:/Users/vasil/STM32Cube/Repository/STM32Cube_FW_F1_V1.8.5/Drivers/STM32F1xx_HAL_Driver/Src\stm32f1xx_hal_flash.c ****     /* Clear FLASH End of Operation pending bit */
 367:C:/Users/vasil/STM32Cube/Repository/STM32Cube_FW_F1_V1.8.5/Drivers/STM32F1xx_HAL_Driver/Src\stm32f1xx_hal_flash.c ****     __HAL_FLASH_CLEAR_FLAG(FLASH_FLAG_EOP);
 368:C:/Users/vasil/STM32Cube/Repository/STM32Cube_FW_F1_V1.8.5/Drivers/STM32F1xx_HAL_Driver/Src\stm32f1xx_hal_flash.c **** #endif /* FLASH_BANK2_END */
 369:C:/Users/vasil/STM32Cube/Repository/STM32Cube_FW_F1_V1.8.5/Drivers/STM32F1xx_HAL_Driver/Src\stm32f1xx_hal_flash.c ****     
 370:C:/Users/vasil/STM32Cube/Repository/STM32Cube_FW_F1_V1.8.5/Drivers/STM32F1xx_HAL_Driver/Src\stm32f1xx_hal_flash.c ****     /* Process can continue only if no error detected */
 371:C:/Users/vasil/STM32Cube/Repository/STM32Cube_FW_F1_V1.8.5/Drivers/STM32F1xx_HAL_Driver/Src\stm32f1xx_hal_flash.c ****     if(pFlash.ProcedureOnGoing != FLASH_PROC_NONE)
 372:C:/Users/vasil/STM32Cube/Repository/STM32Cube_FW_F1_V1.8.5/Drivers/STM32F1xx_HAL_Driver/Src\stm32f1xx_hal_flash.c ****     {
 373:C:/Users/vasil/STM32Cube/Repository/STM32Cube_FW_F1_V1.8.5/Drivers/STM32F1xx_HAL_Driver/Src\stm32f1xx_hal_flash.c ****       if(pFlash.ProcedureOnGoing == FLASH_PROC_PAGEERASE)
 374:C:/Users/vasil/STM32Cube/Repository/STM32Cube_FW_F1_V1.8.5/Drivers/STM32F1xx_HAL_Driver/Src\stm32f1xx_hal_flash.c ****       {
ARM GAS  C:\Users\vasil\AppData\Local\Temp\ccvloAs2.s 			page 8


 375:C:/Users/vasil/STM32Cube/Repository/STM32Cube_FW_F1_V1.8.5/Drivers/STM32F1xx_HAL_Driver/Src\stm32f1xx_hal_flash.c ****         /* Nb of pages to erased can be decreased */
 376:C:/Users/vasil/STM32Cube/Repository/STM32Cube_FW_F1_V1.8.5/Drivers/STM32F1xx_HAL_Driver/Src\stm32f1xx_hal_flash.c ****         pFlash.DataRemaining--;
 377:C:/Users/vasil/STM32Cube/Repository/STM32Cube_FW_F1_V1.8.5/Drivers/STM32F1xx_HAL_Driver/Src\stm32f1xx_hal_flash.c **** 
 378:C:/Users/vasil/STM32Cube/Repository/STM32Cube_FW_F1_V1.8.5/Drivers/STM32F1xx_HAL_Driver/Src\stm32f1xx_hal_flash.c ****         /* Check if there are still pages to erase */
 379:C:/Users/vasil/STM32Cube/Repository/STM32Cube_FW_F1_V1.8.5/Drivers/STM32F1xx_HAL_Driver/Src\stm32f1xx_hal_flash.c ****         if(pFlash.DataRemaining != 0U)
 380:C:/Users/vasil/STM32Cube/Repository/STM32Cube_FW_F1_V1.8.5/Drivers/STM32F1xx_HAL_Driver/Src\stm32f1xx_hal_flash.c ****         {
 381:C:/Users/vasil/STM32Cube/Repository/STM32Cube_FW_F1_V1.8.5/Drivers/STM32F1xx_HAL_Driver/Src\stm32f1xx_hal_flash.c ****           addresstmp = pFlash.Address;
 382:C:/Users/vasil/STM32Cube/Repository/STM32Cube_FW_F1_V1.8.5/Drivers/STM32F1xx_HAL_Driver/Src\stm32f1xx_hal_flash.c ****           /*Indicate user which sector has been erased */
 383:C:/Users/vasil/STM32Cube/Repository/STM32Cube_FW_F1_V1.8.5/Drivers/STM32F1xx_HAL_Driver/Src\stm32f1xx_hal_flash.c ****           HAL_FLASH_EndOfOperationCallback(addresstmp);
 384:C:/Users/vasil/STM32Cube/Repository/STM32Cube_FW_F1_V1.8.5/Drivers/STM32F1xx_HAL_Driver/Src\stm32f1xx_hal_flash.c **** 
 385:C:/Users/vasil/STM32Cube/Repository/STM32Cube_FW_F1_V1.8.5/Drivers/STM32F1xx_HAL_Driver/Src\stm32f1xx_hal_flash.c ****           /*Increment sector number*/
 386:C:/Users/vasil/STM32Cube/Repository/STM32Cube_FW_F1_V1.8.5/Drivers/STM32F1xx_HAL_Driver/Src\stm32f1xx_hal_flash.c ****           addresstmp = pFlash.Address + FLASH_PAGE_SIZE;
 387:C:/Users/vasil/STM32Cube/Repository/STM32Cube_FW_F1_V1.8.5/Drivers/STM32F1xx_HAL_Driver/Src\stm32f1xx_hal_flash.c ****           pFlash.Address = addresstmp;
 388:C:/Users/vasil/STM32Cube/Repository/STM32Cube_FW_F1_V1.8.5/Drivers/STM32F1xx_HAL_Driver/Src\stm32f1xx_hal_flash.c **** 
 389:C:/Users/vasil/STM32Cube/Repository/STM32Cube_FW_F1_V1.8.5/Drivers/STM32F1xx_HAL_Driver/Src\stm32f1xx_hal_flash.c ****           /* If the erase operation is completed, disable the PER Bit */
 390:C:/Users/vasil/STM32Cube/Repository/STM32Cube_FW_F1_V1.8.5/Drivers/STM32F1xx_HAL_Driver/Src\stm32f1xx_hal_flash.c ****           CLEAR_BIT(FLASH->CR, FLASH_CR_PER);
 391:C:/Users/vasil/STM32Cube/Repository/STM32Cube_FW_F1_V1.8.5/Drivers/STM32F1xx_HAL_Driver/Src\stm32f1xx_hal_flash.c **** 
 392:C:/Users/vasil/STM32Cube/Repository/STM32Cube_FW_F1_V1.8.5/Drivers/STM32F1xx_HAL_Driver/Src\stm32f1xx_hal_flash.c ****           FLASH_PageErase(addresstmp);
 393:C:/Users/vasil/STM32Cube/Repository/STM32Cube_FW_F1_V1.8.5/Drivers/STM32F1xx_HAL_Driver/Src\stm32f1xx_hal_flash.c ****         }
 394:C:/Users/vasil/STM32Cube/Repository/STM32Cube_FW_F1_V1.8.5/Drivers/STM32F1xx_HAL_Driver/Src\stm32f1xx_hal_flash.c ****         else
 395:C:/Users/vasil/STM32Cube/Repository/STM32Cube_FW_F1_V1.8.5/Drivers/STM32F1xx_HAL_Driver/Src\stm32f1xx_hal_flash.c ****         {
 396:C:/Users/vasil/STM32Cube/Repository/STM32Cube_FW_F1_V1.8.5/Drivers/STM32F1xx_HAL_Driver/Src\stm32f1xx_hal_flash.c ****           /* No more pages to Erase, user callback can be called. */
 397:C:/Users/vasil/STM32Cube/Repository/STM32Cube_FW_F1_V1.8.5/Drivers/STM32F1xx_HAL_Driver/Src\stm32f1xx_hal_flash.c ****           /* Reset Sector and stop Erase pages procedure */
 398:C:/Users/vasil/STM32Cube/Repository/STM32Cube_FW_F1_V1.8.5/Drivers/STM32F1xx_HAL_Driver/Src\stm32f1xx_hal_flash.c ****           pFlash.Address = addresstmp = 0xFFFFFFFFU;
 399:C:/Users/vasil/STM32Cube/Repository/STM32Cube_FW_F1_V1.8.5/Drivers/STM32F1xx_HAL_Driver/Src\stm32f1xx_hal_flash.c ****           pFlash.ProcedureOnGoing = FLASH_PROC_NONE;
 400:C:/Users/vasil/STM32Cube/Repository/STM32Cube_FW_F1_V1.8.5/Drivers/STM32F1xx_HAL_Driver/Src\stm32f1xx_hal_flash.c ****           /* FLASH EOP interrupt user callback */
 401:C:/Users/vasil/STM32Cube/Repository/STM32Cube_FW_F1_V1.8.5/Drivers/STM32F1xx_HAL_Driver/Src\stm32f1xx_hal_flash.c ****           HAL_FLASH_EndOfOperationCallback(addresstmp);
 402:C:/Users/vasil/STM32Cube/Repository/STM32Cube_FW_F1_V1.8.5/Drivers/STM32F1xx_HAL_Driver/Src\stm32f1xx_hal_flash.c ****         }
 403:C:/Users/vasil/STM32Cube/Repository/STM32Cube_FW_F1_V1.8.5/Drivers/STM32F1xx_HAL_Driver/Src\stm32f1xx_hal_flash.c ****       }
 404:C:/Users/vasil/STM32Cube/Repository/STM32Cube_FW_F1_V1.8.5/Drivers/STM32F1xx_HAL_Driver/Src\stm32f1xx_hal_flash.c ****       else if(pFlash.ProcedureOnGoing == FLASH_PROC_MASSERASE)
 405:C:/Users/vasil/STM32Cube/Repository/STM32Cube_FW_F1_V1.8.5/Drivers/STM32F1xx_HAL_Driver/Src\stm32f1xx_hal_flash.c ****       {
 406:C:/Users/vasil/STM32Cube/Repository/STM32Cube_FW_F1_V1.8.5/Drivers/STM32F1xx_HAL_Driver/Src\stm32f1xx_hal_flash.c ****         /* Operation is completed, disable the MER Bit */
 407:C:/Users/vasil/STM32Cube/Repository/STM32Cube_FW_F1_V1.8.5/Drivers/STM32F1xx_HAL_Driver/Src\stm32f1xx_hal_flash.c ****         CLEAR_BIT(FLASH->CR, FLASH_CR_MER);
 408:C:/Users/vasil/STM32Cube/Repository/STM32Cube_FW_F1_V1.8.5/Drivers/STM32F1xx_HAL_Driver/Src\stm32f1xx_hal_flash.c **** 
 409:C:/Users/vasil/STM32Cube/Repository/STM32Cube_FW_F1_V1.8.5/Drivers/STM32F1xx_HAL_Driver/Src\stm32f1xx_hal_flash.c **** #if defined(FLASH_BANK2_END)
 410:C:/Users/vasil/STM32Cube/Repository/STM32Cube_FW_F1_V1.8.5/Drivers/STM32F1xx_HAL_Driver/Src\stm32f1xx_hal_flash.c ****         /* Stop Mass Erase procedure if no pending mass erase on other bank */
 411:C:/Users/vasil/STM32Cube/Repository/STM32Cube_FW_F1_V1.8.5/Drivers/STM32F1xx_HAL_Driver/Src\stm32f1xx_hal_flash.c ****         if (HAL_IS_BIT_CLR(FLASH->CR2, FLASH_CR2_MER))
 412:C:/Users/vasil/STM32Cube/Repository/STM32Cube_FW_F1_V1.8.5/Drivers/STM32F1xx_HAL_Driver/Src\stm32f1xx_hal_flash.c ****         {
 413:C:/Users/vasil/STM32Cube/Repository/STM32Cube_FW_F1_V1.8.5/Drivers/STM32F1xx_HAL_Driver/Src\stm32f1xx_hal_flash.c **** #endif /* FLASH_BANK2_END */
 414:C:/Users/vasil/STM32Cube/Repository/STM32Cube_FW_F1_V1.8.5/Drivers/STM32F1xx_HAL_Driver/Src\stm32f1xx_hal_flash.c ****           /* MassErase ended. Return the selected bank */
 415:C:/Users/vasil/STM32Cube/Repository/STM32Cube_FW_F1_V1.8.5/Drivers/STM32F1xx_HAL_Driver/Src\stm32f1xx_hal_flash.c ****           /* FLASH EOP interrupt user callback */
 416:C:/Users/vasil/STM32Cube/Repository/STM32Cube_FW_F1_V1.8.5/Drivers/STM32F1xx_HAL_Driver/Src\stm32f1xx_hal_flash.c ****           HAL_FLASH_EndOfOperationCallback(0U);
 417:C:/Users/vasil/STM32Cube/Repository/STM32Cube_FW_F1_V1.8.5/Drivers/STM32F1xx_HAL_Driver/Src\stm32f1xx_hal_flash.c **** 
 418:C:/Users/vasil/STM32Cube/Repository/STM32Cube_FW_F1_V1.8.5/Drivers/STM32F1xx_HAL_Driver/Src\stm32f1xx_hal_flash.c ****           /* Stop Mass Erase procedure*/
 419:C:/Users/vasil/STM32Cube/Repository/STM32Cube_FW_F1_V1.8.5/Drivers/STM32F1xx_HAL_Driver/Src\stm32f1xx_hal_flash.c ****           pFlash.ProcedureOnGoing = FLASH_PROC_NONE;
 420:C:/Users/vasil/STM32Cube/Repository/STM32Cube_FW_F1_V1.8.5/Drivers/STM32F1xx_HAL_Driver/Src\stm32f1xx_hal_flash.c ****         }
 421:C:/Users/vasil/STM32Cube/Repository/STM32Cube_FW_F1_V1.8.5/Drivers/STM32F1xx_HAL_Driver/Src\stm32f1xx_hal_flash.c **** #if defined(FLASH_BANK2_END)
 422:C:/Users/vasil/STM32Cube/Repository/STM32Cube_FW_F1_V1.8.5/Drivers/STM32F1xx_HAL_Driver/Src\stm32f1xx_hal_flash.c ****       }
 423:C:/Users/vasil/STM32Cube/Repository/STM32Cube_FW_F1_V1.8.5/Drivers/STM32F1xx_HAL_Driver/Src\stm32f1xx_hal_flash.c **** #endif /* FLASH_BANK2_END */
 424:C:/Users/vasil/STM32Cube/Repository/STM32Cube_FW_F1_V1.8.5/Drivers/STM32F1xx_HAL_Driver/Src\stm32f1xx_hal_flash.c ****       else
 425:C:/Users/vasil/STM32Cube/Repository/STM32Cube_FW_F1_V1.8.5/Drivers/STM32F1xx_HAL_Driver/Src\stm32f1xx_hal_flash.c ****       {
 426:C:/Users/vasil/STM32Cube/Repository/STM32Cube_FW_F1_V1.8.5/Drivers/STM32F1xx_HAL_Driver/Src\stm32f1xx_hal_flash.c ****         /* Nb of 16-bit data to program can be decreased */
 427:C:/Users/vasil/STM32Cube/Repository/STM32Cube_FW_F1_V1.8.5/Drivers/STM32F1xx_HAL_Driver/Src\stm32f1xx_hal_flash.c ****         pFlash.DataRemaining--;
 428:C:/Users/vasil/STM32Cube/Repository/STM32Cube_FW_F1_V1.8.5/Drivers/STM32F1xx_HAL_Driver/Src\stm32f1xx_hal_flash.c ****         
 429:C:/Users/vasil/STM32Cube/Repository/STM32Cube_FW_F1_V1.8.5/Drivers/STM32F1xx_HAL_Driver/Src\stm32f1xx_hal_flash.c ****         /* Check if there are still 16-bit data to program */
 430:C:/Users/vasil/STM32Cube/Repository/STM32Cube_FW_F1_V1.8.5/Drivers/STM32F1xx_HAL_Driver/Src\stm32f1xx_hal_flash.c ****         if(pFlash.DataRemaining != 0U)
 431:C:/Users/vasil/STM32Cube/Repository/STM32Cube_FW_F1_V1.8.5/Drivers/STM32F1xx_HAL_Driver/Src\stm32f1xx_hal_flash.c ****         {
ARM GAS  C:\Users\vasil\AppData\Local\Temp\ccvloAs2.s 			page 9


 432:C:/Users/vasil/STM32Cube/Repository/STM32Cube_FW_F1_V1.8.5/Drivers/STM32F1xx_HAL_Driver/Src\stm32f1xx_hal_flash.c ****           /* Increment address to 16-bit */
 433:C:/Users/vasil/STM32Cube/Repository/STM32Cube_FW_F1_V1.8.5/Drivers/STM32F1xx_HAL_Driver/Src\stm32f1xx_hal_flash.c ****           pFlash.Address += 2U;
 434:C:/Users/vasil/STM32Cube/Repository/STM32Cube_FW_F1_V1.8.5/Drivers/STM32F1xx_HAL_Driver/Src\stm32f1xx_hal_flash.c ****           addresstmp = pFlash.Address;
 435:C:/Users/vasil/STM32Cube/Repository/STM32Cube_FW_F1_V1.8.5/Drivers/STM32F1xx_HAL_Driver/Src\stm32f1xx_hal_flash.c ****           
 436:C:/Users/vasil/STM32Cube/Repository/STM32Cube_FW_F1_V1.8.5/Drivers/STM32F1xx_HAL_Driver/Src\stm32f1xx_hal_flash.c ****           /* Shift to have next 16-bit data */
 437:C:/Users/vasil/STM32Cube/Repository/STM32Cube_FW_F1_V1.8.5/Drivers/STM32F1xx_HAL_Driver/Src\stm32f1xx_hal_flash.c ****           pFlash.Data = (pFlash.Data >> 16U);
 438:C:/Users/vasil/STM32Cube/Repository/STM32Cube_FW_F1_V1.8.5/Drivers/STM32F1xx_HAL_Driver/Src\stm32f1xx_hal_flash.c ****           
 439:C:/Users/vasil/STM32Cube/Repository/STM32Cube_FW_F1_V1.8.5/Drivers/STM32F1xx_HAL_Driver/Src\stm32f1xx_hal_flash.c ****           /* Operation is completed, disable the PG Bit */
 440:C:/Users/vasil/STM32Cube/Repository/STM32Cube_FW_F1_V1.8.5/Drivers/STM32F1xx_HAL_Driver/Src\stm32f1xx_hal_flash.c ****           CLEAR_BIT(FLASH->CR, FLASH_CR_PG);
 441:C:/Users/vasil/STM32Cube/Repository/STM32Cube_FW_F1_V1.8.5/Drivers/STM32F1xx_HAL_Driver/Src\stm32f1xx_hal_flash.c **** 
 442:C:/Users/vasil/STM32Cube/Repository/STM32Cube_FW_F1_V1.8.5/Drivers/STM32F1xx_HAL_Driver/Src\stm32f1xx_hal_flash.c ****           /*Program halfword (16-bit) at a specified address.*/
 443:C:/Users/vasil/STM32Cube/Repository/STM32Cube_FW_F1_V1.8.5/Drivers/STM32F1xx_HAL_Driver/Src\stm32f1xx_hal_flash.c ****           FLASH_Program_HalfWord(addresstmp, (uint16_t)pFlash.Data);
 444:C:/Users/vasil/STM32Cube/Repository/STM32Cube_FW_F1_V1.8.5/Drivers/STM32F1xx_HAL_Driver/Src\stm32f1xx_hal_flash.c ****         }
 445:C:/Users/vasil/STM32Cube/Repository/STM32Cube_FW_F1_V1.8.5/Drivers/STM32F1xx_HAL_Driver/Src\stm32f1xx_hal_flash.c ****         else
 446:C:/Users/vasil/STM32Cube/Repository/STM32Cube_FW_F1_V1.8.5/Drivers/STM32F1xx_HAL_Driver/Src\stm32f1xx_hal_flash.c ****         {
 447:C:/Users/vasil/STM32Cube/Repository/STM32Cube_FW_F1_V1.8.5/Drivers/STM32F1xx_HAL_Driver/Src\stm32f1xx_hal_flash.c ****           /* Program ended. Return the selected address */
 448:C:/Users/vasil/STM32Cube/Repository/STM32Cube_FW_F1_V1.8.5/Drivers/STM32F1xx_HAL_Driver/Src\stm32f1xx_hal_flash.c ****           /* FLASH EOP interrupt user callback */
 449:C:/Users/vasil/STM32Cube/Repository/STM32Cube_FW_F1_V1.8.5/Drivers/STM32F1xx_HAL_Driver/Src\stm32f1xx_hal_flash.c ****           if (pFlash.ProcedureOnGoing == FLASH_PROC_PROGRAMHALFWORD)
 450:C:/Users/vasil/STM32Cube/Repository/STM32Cube_FW_F1_V1.8.5/Drivers/STM32F1xx_HAL_Driver/Src\stm32f1xx_hal_flash.c ****           {
 451:C:/Users/vasil/STM32Cube/Repository/STM32Cube_FW_F1_V1.8.5/Drivers/STM32F1xx_HAL_Driver/Src\stm32f1xx_hal_flash.c ****             HAL_FLASH_EndOfOperationCallback(pFlash.Address);
 452:C:/Users/vasil/STM32Cube/Repository/STM32Cube_FW_F1_V1.8.5/Drivers/STM32F1xx_HAL_Driver/Src\stm32f1xx_hal_flash.c ****           }
 453:C:/Users/vasil/STM32Cube/Repository/STM32Cube_FW_F1_V1.8.5/Drivers/STM32F1xx_HAL_Driver/Src\stm32f1xx_hal_flash.c ****           else if (pFlash.ProcedureOnGoing == FLASH_PROC_PROGRAMWORD)
 454:C:/Users/vasil/STM32Cube/Repository/STM32Cube_FW_F1_V1.8.5/Drivers/STM32F1xx_HAL_Driver/Src\stm32f1xx_hal_flash.c ****           {
 455:C:/Users/vasil/STM32Cube/Repository/STM32Cube_FW_F1_V1.8.5/Drivers/STM32F1xx_HAL_Driver/Src\stm32f1xx_hal_flash.c ****             HAL_FLASH_EndOfOperationCallback(pFlash.Address - 2U);
 456:C:/Users/vasil/STM32Cube/Repository/STM32Cube_FW_F1_V1.8.5/Drivers/STM32F1xx_HAL_Driver/Src\stm32f1xx_hal_flash.c ****           }
 457:C:/Users/vasil/STM32Cube/Repository/STM32Cube_FW_F1_V1.8.5/Drivers/STM32F1xx_HAL_Driver/Src\stm32f1xx_hal_flash.c ****           else 
 458:C:/Users/vasil/STM32Cube/Repository/STM32Cube_FW_F1_V1.8.5/Drivers/STM32F1xx_HAL_Driver/Src\stm32f1xx_hal_flash.c ****           {
 459:C:/Users/vasil/STM32Cube/Repository/STM32Cube_FW_F1_V1.8.5/Drivers/STM32F1xx_HAL_Driver/Src\stm32f1xx_hal_flash.c ****             HAL_FLASH_EndOfOperationCallback(pFlash.Address - 6U);
 460:C:/Users/vasil/STM32Cube/Repository/STM32Cube_FW_F1_V1.8.5/Drivers/STM32F1xx_HAL_Driver/Src\stm32f1xx_hal_flash.c ****           }
 461:C:/Users/vasil/STM32Cube/Repository/STM32Cube_FW_F1_V1.8.5/Drivers/STM32F1xx_HAL_Driver/Src\stm32f1xx_hal_flash.c ****         
 462:C:/Users/vasil/STM32Cube/Repository/STM32Cube_FW_F1_V1.8.5/Drivers/STM32F1xx_HAL_Driver/Src\stm32f1xx_hal_flash.c ****           /* Reset Address and stop Program procedure */
 463:C:/Users/vasil/STM32Cube/Repository/STM32Cube_FW_F1_V1.8.5/Drivers/STM32F1xx_HAL_Driver/Src\stm32f1xx_hal_flash.c ****           pFlash.Address = 0xFFFFFFFFU;
 464:C:/Users/vasil/STM32Cube/Repository/STM32Cube_FW_F1_V1.8.5/Drivers/STM32F1xx_HAL_Driver/Src\stm32f1xx_hal_flash.c ****           pFlash.ProcedureOnGoing = FLASH_PROC_NONE;
 465:C:/Users/vasil/STM32Cube/Repository/STM32Cube_FW_F1_V1.8.5/Drivers/STM32F1xx_HAL_Driver/Src\stm32f1xx_hal_flash.c ****         }
 466:C:/Users/vasil/STM32Cube/Repository/STM32Cube_FW_F1_V1.8.5/Drivers/STM32F1xx_HAL_Driver/Src\stm32f1xx_hal_flash.c ****       }
 467:C:/Users/vasil/STM32Cube/Repository/STM32Cube_FW_F1_V1.8.5/Drivers/STM32F1xx_HAL_Driver/Src\stm32f1xx_hal_flash.c ****     }
 468:C:/Users/vasil/STM32Cube/Repository/STM32Cube_FW_F1_V1.8.5/Drivers/STM32F1xx_HAL_Driver/Src\stm32f1xx_hal_flash.c ****   }
 469:C:/Users/vasil/STM32Cube/Repository/STM32Cube_FW_F1_V1.8.5/Drivers/STM32F1xx_HAL_Driver/Src\stm32f1xx_hal_flash.c ****   
 470:C:/Users/vasil/STM32Cube/Repository/STM32Cube_FW_F1_V1.8.5/Drivers/STM32F1xx_HAL_Driver/Src\stm32f1xx_hal_flash.c **** #if defined(FLASH_BANK2_END)
 471:C:/Users/vasil/STM32Cube/Repository/STM32Cube_FW_F1_V1.8.5/Drivers/STM32F1xx_HAL_Driver/Src\stm32f1xx_hal_flash.c ****   /* Check FLASH End of Operation flag  */
 472:C:/Users/vasil/STM32Cube/Repository/STM32Cube_FW_F1_V1.8.5/Drivers/STM32F1xx_HAL_Driver/Src\stm32f1xx_hal_flash.c ****   if(__HAL_FLASH_GET_FLAG( FLASH_FLAG_EOP_BANK2))
 473:C:/Users/vasil/STM32Cube/Repository/STM32Cube_FW_F1_V1.8.5/Drivers/STM32F1xx_HAL_Driver/Src\stm32f1xx_hal_flash.c ****   {
 474:C:/Users/vasil/STM32Cube/Repository/STM32Cube_FW_F1_V1.8.5/Drivers/STM32F1xx_HAL_Driver/Src\stm32f1xx_hal_flash.c ****     /* Clear FLASH End of Operation pending bit */
 475:C:/Users/vasil/STM32Cube/Repository/STM32Cube_FW_F1_V1.8.5/Drivers/STM32F1xx_HAL_Driver/Src\stm32f1xx_hal_flash.c ****     __HAL_FLASH_CLEAR_FLAG(FLASH_FLAG_EOP_BANK2);
 476:C:/Users/vasil/STM32Cube/Repository/STM32Cube_FW_F1_V1.8.5/Drivers/STM32F1xx_HAL_Driver/Src\stm32f1xx_hal_flash.c ****     
 477:C:/Users/vasil/STM32Cube/Repository/STM32Cube_FW_F1_V1.8.5/Drivers/STM32F1xx_HAL_Driver/Src\stm32f1xx_hal_flash.c ****     /* Process can continue only if no error detected */
 478:C:/Users/vasil/STM32Cube/Repository/STM32Cube_FW_F1_V1.8.5/Drivers/STM32F1xx_HAL_Driver/Src\stm32f1xx_hal_flash.c ****     if(pFlash.ProcedureOnGoing != FLASH_PROC_NONE)
 479:C:/Users/vasil/STM32Cube/Repository/STM32Cube_FW_F1_V1.8.5/Drivers/STM32F1xx_HAL_Driver/Src\stm32f1xx_hal_flash.c ****     {
 480:C:/Users/vasil/STM32Cube/Repository/STM32Cube_FW_F1_V1.8.5/Drivers/STM32F1xx_HAL_Driver/Src\stm32f1xx_hal_flash.c ****       if(pFlash.ProcedureOnGoing == FLASH_PROC_PAGEERASE)
 481:C:/Users/vasil/STM32Cube/Repository/STM32Cube_FW_F1_V1.8.5/Drivers/STM32F1xx_HAL_Driver/Src\stm32f1xx_hal_flash.c ****       {
 482:C:/Users/vasil/STM32Cube/Repository/STM32Cube_FW_F1_V1.8.5/Drivers/STM32F1xx_HAL_Driver/Src\stm32f1xx_hal_flash.c ****         /* Nb of pages to erased can be decreased */
 483:C:/Users/vasil/STM32Cube/Repository/STM32Cube_FW_F1_V1.8.5/Drivers/STM32F1xx_HAL_Driver/Src\stm32f1xx_hal_flash.c ****         pFlash.DataRemaining--;
 484:C:/Users/vasil/STM32Cube/Repository/STM32Cube_FW_F1_V1.8.5/Drivers/STM32F1xx_HAL_Driver/Src\stm32f1xx_hal_flash.c ****         
 485:C:/Users/vasil/STM32Cube/Repository/STM32Cube_FW_F1_V1.8.5/Drivers/STM32F1xx_HAL_Driver/Src\stm32f1xx_hal_flash.c ****         /* Check if there are still pages to erase*/
 486:C:/Users/vasil/STM32Cube/Repository/STM32Cube_FW_F1_V1.8.5/Drivers/STM32F1xx_HAL_Driver/Src\stm32f1xx_hal_flash.c ****         if(pFlash.DataRemaining != 0U)
 487:C:/Users/vasil/STM32Cube/Repository/STM32Cube_FW_F1_V1.8.5/Drivers/STM32F1xx_HAL_Driver/Src\stm32f1xx_hal_flash.c ****         {
 488:C:/Users/vasil/STM32Cube/Repository/STM32Cube_FW_F1_V1.8.5/Drivers/STM32F1xx_HAL_Driver/Src\stm32f1xx_hal_flash.c ****           /* Indicate user which page address has been erased*/
ARM GAS  C:\Users\vasil\AppData\Local\Temp\ccvloAs2.s 			page 10


 489:C:/Users/vasil/STM32Cube/Repository/STM32Cube_FW_F1_V1.8.5/Drivers/STM32F1xx_HAL_Driver/Src\stm32f1xx_hal_flash.c ****           HAL_FLASH_EndOfOperationCallback(pFlash.Address);
 490:C:/Users/vasil/STM32Cube/Repository/STM32Cube_FW_F1_V1.8.5/Drivers/STM32F1xx_HAL_Driver/Src\stm32f1xx_hal_flash.c ****         
 491:C:/Users/vasil/STM32Cube/Repository/STM32Cube_FW_F1_V1.8.5/Drivers/STM32F1xx_HAL_Driver/Src\stm32f1xx_hal_flash.c ****           /* Increment page address to next page */
 492:C:/Users/vasil/STM32Cube/Repository/STM32Cube_FW_F1_V1.8.5/Drivers/STM32F1xx_HAL_Driver/Src\stm32f1xx_hal_flash.c ****           pFlash.Address += FLASH_PAGE_SIZE;
 493:C:/Users/vasil/STM32Cube/Repository/STM32Cube_FW_F1_V1.8.5/Drivers/STM32F1xx_HAL_Driver/Src\stm32f1xx_hal_flash.c ****           addresstmp = pFlash.Address;
 494:C:/Users/vasil/STM32Cube/Repository/STM32Cube_FW_F1_V1.8.5/Drivers/STM32F1xx_HAL_Driver/Src\stm32f1xx_hal_flash.c **** 
 495:C:/Users/vasil/STM32Cube/Repository/STM32Cube_FW_F1_V1.8.5/Drivers/STM32F1xx_HAL_Driver/Src\stm32f1xx_hal_flash.c ****           /* Operation is completed, disable the PER Bit */
 496:C:/Users/vasil/STM32Cube/Repository/STM32Cube_FW_F1_V1.8.5/Drivers/STM32F1xx_HAL_Driver/Src\stm32f1xx_hal_flash.c ****           CLEAR_BIT(FLASH->CR2, FLASH_CR2_PER);
 497:C:/Users/vasil/STM32Cube/Repository/STM32Cube_FW_F1_V1.8.5/Drivers/STM32F1xx_HAL_Driver/Src\stm32f1xx_hal_flash.c **** 
 498:C:/Users/vasil/STM32Cube/Repository/STM32Cube_FW_F1_V1.8.5/Drivers/STM32F1xx_HAL_Driver/Src\stm32f1xx_hal_flash.c ****           FLASH_PageErase(addresstmp);
 499:C:/Users/vasil/STM32Cube/Repository/STM32Cube_FW_F1_V1.8.5/Drivers/STM32F1xx_HAL_Driver/Src\stm32f1xx_hal_flash.c ****         }
 500:C:/Users/vasil/STM32Cube/Repository/STM32Cube_FW_F1_V1.8.5/Drivers/STM32F1xx_HAL_Driver/Src\stm32f1xx_hal_flash.c ****         else
 501:C:/Users/vasil/STM32Cube/Repository/STM32Cube_FW_F1_V1.8.5/Drivers/STM32F1xx_HAL_Driver/Src\stm32f1xx_hal_flash.c ****         {
 502:C:/Users/vasil/STM32Cube/Repository/STM32Cube_FW_F1_V1.8.5/Drivers/STM32F1xx_HAL_Driver/Src\stm32f1xx_hal_flash.c ****           /*No more pages to Erase*/
 503:C:/Users/vasil/STM32Cube/Repository/STM32Cube_FW_F1_V1.8.5/Drivers/STM32F1xx_HAL_Driver/Src\stm32f1xx_hal_flash.c ****           
 504:C:/Users/vasil/STM32Cube/Repository/STM32Cube_FW_F1_V1.8.5/Drivers/STM32F1xx_HAL_Driver/Src\stm32f1xx_hal_flash.c ****           /*Reset Address and stop Erase pages procedure*/
 505:C:/Users/vasil/STM32Cube/Repository/STM32Cube_FW_F1_V1.8.5/Drivers/STM32F1xx_HAL_Driver/Src\stm32f1xx_hal_flash.c ****           pFlash.Address = 0xFFFFFFFFU;
 506:C:/Users/vasil/STM32Cube/Repository/STM32Cube_FW_F1_V1.8.5/Drivers/STM32F1xx_HAL_Driver/Src\stm32f1xx_hal_flash.c ****           pFlash.ProcedureOnGoing = FLASH_PROC_NONE;
 507:C:/Users/vasil/STM32Cube/Repository/STM32Cube_FW_F1_V1.8.5/Drivers/STM32F1xx_HAL_Driver/Src\stm32f1xx_hal_flash.c **** 
 508:C:/Users/vasil/STM32Cube/Repository/STM32Cube_FW_F1_V1.8.5/Drivers/STM32F1xx_HAL_Driver/Src\stm32f1xx_hal_flash.c ****           /* FLASH EOP interrupt user callback */
 509:C:/Users/vasil/STM32Cube/Repository/STM32Cube_FW_F1_V1.8.5/Drivers/STM32F1xx_HAL_Driver/Src\stm32f1xx_hal_flash.c ****           HAL_FLASH_EndOfOperationCallback(pFlash.Address);
 510:C:/Users/vasil/STM32Cube/Repository/STM32Cube_FW_F1_V1.8.5/Drivers/STM32F1xx_HAL_Driver/Src\stm32f1xx_hal_flash.c ****         }
 511:C:/Users/vasil/STM32Cube/Repository/STM32Cube_FW_F1_V1.8.5/Drivers/STM32F1xx_HAL_Driver/Src\stm32f1xx_hal_flash.c ****       }
 512:C:/Users/vasil/STM32Cube/Repository/STM32Cube_FW_F1_V1.8.5/Drivers/STM32F1xx_HAL_Driver/Src\stm32f1xx_hal_flash.c ****       else if(pFlash.ProcedureOnGoing == FLASH_PROC_MASSERASE)
 513:C:/Users/vasil/STM32Cube/Repository/STM32Cube_FW_F1_V1.8.5/Drivers/STM32F1xx_HAL_Driver/Src\stm32f1xx_hal_flash.c ****       {
 514:C:/Users/vasil/STM32Cube/Repository/STM32Cube_FW_F1_V1.8.5/Drivers/STM32F1xx_HAL_Driver/Src\stm32f1xx_hal_flash.c ****         /* Operation is completed, disable the MER Bit */
 515:C:/Users/vasil/STM32Cube/Repository/STM32Cube_FW_F1_V1.8.5/Drivers/STM32F1xx_HAL_Driver/Src\stm32f1xx_hal_flash.c ****         CLEAR_BIT(FLASH->CR2, FLASH_CR2_MER);
 516:C:/Users/vasil/STM32Cube/Repository/STM32Cube_FW_F1_V1.8.5/Drivers/STM32F1xx_HAL_Driver/Src\stm32f1xx_hal_flash.c **** 
 517:C:/Users/vasil/STM32Cube/Repository/STM32Cube_FW_F1_V1.8.5/Drivers/STM32F1xx_HAL_Driver/Src\stm32f1xx_hal_flash.c ****         if (HAL_IS_BIT_CLR(FLASH->CR, FLASH_CR_MER))
 518:C:/Users/vasil/STM32Cube/Repository/STM32Cube_FW_F1_V1.8.5/Drivers/STM32F1xx_HAL_Driver/Src\stm32f1xx_hal_flash.c ****         {
 519:C:/Users/vasil/STM32Cube/Repository/STM32Cube_FW_F1_V1.8.5/Drivers/STM32F1xx_HAL_Driver/Src\stm32f1xx_hal_flash.c ****           /* MassErase ended. Return the selected bank*/
 520:C:/Users/vasil/STM32Cube/Repository/STM32Cube_FW_F1_V1.8.5/Drivers/STM32F1xx_HAL_Driver/Src\stm32f1xx_hal_flash.c ****           /* FLASH EOP interrupt user callback */
 521:C:/Users/vasil/STM32Cube/Repository/STM32Cube_FW_F1_V1.8.5/Drivers/STM32F1xx_HAL_Driver/Src\stm32f1xx_hal_flash.c ****           HAL_FLASH_EndOfOperationCallback(0U);
 522:C:/Users/vasil/STM32Cube/Repository/STM32Cube_FW_F1_V1.8.5/Drivers/STM32F1xx_HAL_Driver/Src\stm32f1xx_hal_flash.c ****         
 523:C:/Users/vasil/STM32Cube/Repository/STM32Cube_FW_F1_V1.8.5/Drivers/STM32F1xx_HAL_Driver/Src\stm32f1xx_hal_flash.c ****           pFlash.ProcedureOnGoing = FLASH_PROC_NONE;
 524:C:/Users/vasil/STM32Cube/Repository/STM32Cube_FW_F1_V1.8.5/Drivers/STM32F1xx_HAL_Driver/Src\stm32f1xx_hal_flash.c ****         }
 525:C:/Users/vasil/STM32Cube/Repository/STM32Cube_FW_F1_V1.8.5/Drivers/STM32F1xx_HAL_Driver/Src\stm32f1xx_hal_flash.c ****       }
 526:C:/Users/vasil/STM32Cube/Repository/STM32Cube_FW_F1_V1.8.5/Drivers/STM32F1xx_HAL_Driver/Src\stm32f1xx_hal_flash.c ****       else
 527:C:/Users/vasil/STM32Cube/Repository/STM32Cube_FW_F1_V1.8.5/Drivers/STM32F1xx_HAL_Driver/Src\stm32f1xx_hal_flash.c ****       {
 528:C:/Users/vasil/STM32Cube/Repository/STM32Cube_FW_F1_V1.8.5/Drivers/STM32F1xx_HAL_Driver/Src\stm32f1xx_hal_flash.c ****         /* Nb of 16-bit data to program can be decreased */
 529:C:/Users/vasil/STM32Cube/Repository/STM32Cube_FW_F1_V1.8.5/Drivers/STM32F1xx_HAL_Driver/Src\stm32f1xx_hal_flash.c ****         pFlash.DataRemaining--;
 530:C:/Users/vasil/STM32Cube/Repository/STM32Cube_FW_F1_V1.8.5/Drivers/STM32F1xx_HAL_Driver/Src\stm32f1xx_hal_flash.c ****         
 531:C:/Users/vasil/STM32Cube/Repository/STM32Cube_FW_F1_V1.8.5/Drivers/STM32F1xx_HAL_Driver/Src\stm32f1xx_hal_flash.c ****         /* Check if there are still 16-bit data to program */
 532:C:/Users/vasil/STM32Cube/Repository/STM32Cube_FW_F1_V1.8.5/Drivers/STM32F1xx_HAL_Driver/Src\stm32f1xx_hal_flash.c ****         if(pFlash.DataRemaining != 0U)
 533:C:/Users/vasil/STM32Cube/Repository/STM32Cube_FW_F1_V1.8.5/Drivers/STM32F1xx_HAL_Driver/Src\stm32f1xx_hal_flash.c ****         {
 534:C:/Users/vasil/STM32Cube/Repository/STM32Cube_FW_F1_V1.8.5/Drivers/STM32F1xx_HAL_Driver/Src\stm32f1xx_hal_flash.c ****           /* Increment address to 16-bit */
 535:C:/Users/vasil/STM32Cube/Repository/STM32Cube_FW_F1_V1.8.5/Drivers/STM32F1xx_HAL_Driver/Src\stm32f1xx_hal_flash.c ****           pFlash.Address += 2U;
 536:C:/Users/vasil/STM32Cube/Repository/STM32Cube_FW_F1_V1.8.5/Drivers/STM32F1xx_HAL_Driver/Src\stm32f1xx_hal_flash.c ****           addresstmp = pFlash.Address;
 537:C:/Users/vasil/STM32Cube/Repository/STM32Cube_FW_F1_V1.8.5/Drivers/STM32F1xx_HAL_Driver/Src\stm32f1xx_hal_flash.c ****           
 538:C:/Users/vasil/STM32Cube/Repository/STM32Cube_FW_F1_V1.8.5/Drivers/STM32F1xx_HAL_Driver/Src\stm32f1xx_hal_flash.c ****           /* Shift to have next 16-bit data */
 539:C:/Users/vasil/STM32Cube/Repository/STM32Cube_FW_F1_V1.8.5/Drivers/STM32F1xx_HAL_Driver/Src\stm32f1xx_hal_flash.c ****           pFlash.Data = (pFlash.Data >> 16U);
 540:C:/Users/vasil/STM32Cube/Repository/STM32Cube_FW_F1_V1.8.5/Drivers/STM32F1xx_HAL_Driver/Src\stm32f1xx_hal_flash.c ****           
 541:C:/Users/vasil/STM32Cube/Repository/STM32Cube_FW_F1_V1.8.5/Drivers/STM32F1xx_HAL_Driver/Src\stm32f1xx_hal_flash.c ****           /* Operation is completed, disable the PG Bit */
 542:C:/Users/vasil/STM32Cube/Repository/STM32Cube_FW_F1_V1.8.5/Drivers/STM32F1xx_HAL_Driver/Src\stm32f1xx_hal_flash.c ****           CLEAR_BIT(FLASH->CR2, FLASH_CR2_PG);
 543:C:/Users/vasil/STM32Cube/Repository/STM32Cube_FW_F1_V1.8.5/Drivers/STM32F1xx_HAL_Driver/Src\stm32f1xx_hal_flash.c **** 
 544:C:/Users/vasil/STM32Cube/Repository/STM32Cube_FW_F1_V1.8.5/Drivers/STM32F1xx_HAL_Driver/Src\stm32f1xx_hal_flash.c ****           /*Program halfword (16-bit) at a specified address.*/
 545:C:/Users/vasil/STM32Cube/Repository/STM32Cube_FW_F1_V1.8.5/Drivers/STM32F1xx_HAL_Driver/Src\stm32f1xx_hal_flash.c ****           FLASH_Program_HalfWord(addresstmp, (uint16_t)pFlash.Data);
ARM GAS  C:\Users\vasil\AppData\Local\Temp\ccvloAs2.s 			page 11


 546:C:/Users/vasil/STM32Cube/Repository/STM32Cube_FW_F1_V1.8.5/Drivers/STM32F1xx_HAL_Driver/Src\stm32f1xx_hal_flash.c ****         }
 547:C:/Users/vasil/STM32Cube/Repository/STM32Cube_FW_F1_V1.8.5/Drivers/STM32F1xx_HAL_Driver/Src\stm32f1xx_hal_flash.c ****         else
 548:C:/Users/vasil/STM32Cube/Repository/STM32Cube_FW_F1_V1.8.5/Drivers/STM32F1xx_HAL_Driver/Src\stm32f1xx_hal_flash.c ****         {
 549:C:/Users/vasil/STM32Cube/Repository/STM32Cube_FW_F1_V1.8.5/Drivers/STM32F1xx_HAL_Driver/Src\stm32f1xx_hal_flash.c ****           /*Program ended. Return the selected address*/
 550:C:/Users/vasil/STM32Cube/Repository/STM32Cube_FW_F1_V1.8.5/Drivers/STM32F1xx_HAL_Driver/Src\stm32f1xx_hal_flash.c ****           /* FLASH EOP interrupt user callback */
 551:C:/Users/vasil/STM32Cube/Repository/STM32Cube_FW_F1_V1.8.5/Drivers/STM32F1xx_HAL_Driver/Src\stm32f1xx_hal_flash.c ****           if (pFlash.ProcedureOnGoing == FLASH_PROC_PROGRAMHALFWORD)
 552:C:/Users/vasil/STM32Cube/Repository/STM32Cube_FW_F1_V1.8.5/Drivers/STM32F1xx_HAL_Driver/Src\stm32f1xx_hal_flash.c ****           {
 553:C:/Users/vasil/STM32Cube/Repository/STM32Cube_FW_F1_V1.8.5/Drivers/STM32F1xx_HAL_Driver/Src\stm32f1xx_hal_flash.c ****             HAL_FLASH_EndOfOperationCallback(pFlash.Address);
 554:C:/Users/vasil/STM32Cube/Repository/STM32Cube_FW_F1_V1.8.5/Drivers/STM32F1xx_HAL_Driver/Src\stm32f1xx_hal_flash.c ****           }
 555:C:/Users/vasil/STM32Cube/Repository/STM32Cube_FW_F1_V1.8.5/Drivers/STM32F1xx_HAL_Driver/Src\stm32f1xx_hal_flash.c ****           else if (pFlash.ProcedureOnGoing == FLASH_PROC_PROGRAMWORD)
 556:C:/Users/vasil/STM32Cube/Repository/STM32Cube_FW_F1_V1.8.5/Drivers/STM32F1xx_HAL_Driver/Src\stm32f1xx_hal_flash.c ****           {
 557:C:/Users/vasil/STM32Cube/Repository/STM32Cube_FW_F1_V1.8.5/Drivers/STM32F1xx_HAL_Driver/Src\stm32f1xx_hal_flash.c ****             HAL_FLASH_EndOfOperationCallback(pFlash.Address-2U);
 558:C:/Users/vasil/STM32Cube/Repository/STM32Cube_FW_F1_V1.8.5/Drivers/STM32F1xx_HAL_Driver/Src\stm32f1xx_hal_flash.c ****           }
 559:C:/Users/vasil/STM32Cube/Repository/STM32Cube_FW_F1_V1.8.5/Drivers/STM32F1xx_HAL_Driver/Src\stm32f1xx_hal_flash.c ****           else 
 560:C:/Users/vasil/STM32Cube/Repository/STM32Cube_FW_F1_V1.8.5/Drivers/STM32F1xx_HAL_Driver/Src\stm32f1xx_hal_flash.c ****           {
 561:C:/Users/vasil/STM32Cube/Repository/STM32Cube_FW_F1_V1.8.5/Drivers/STM32F1xx_HAL_Driver/Src\stm32f1xx_hal_flash.c ****             HAL_FLASH_EndOfOperationCallback(pFlash.Address-6U);
 562:C:/Users/vasil/STM32Cube/Repository/STM32Cube_FW_F1_V1.8.5/Drivers/STM32F1xx_HAL_Driver/Src\stm32f1xx_hal_flash.c ****           }
 563:C:/Users/vasil/STM32Cube/Repository/STM32Cube_FW_F1_V1.8.5/Drivers/STM32F1xx_HAL_Driver/Src\stm32f1xx_hal_flash.c ****           
 564:C:/Users/vasil/STM32Cube/Repository/STM32Cube_FW_F1_V1.8.5/Drivers/STM32F1xx_HAL_Driver/Src\stm32f1xx_hal_flash.c ****           /* Reset Address and stop Program procedure*/
 565:C:/Users/vasil/STM32Cube/Repository/STM32Cube_FW_F1_V1.8.5/Drivers/STM32F1xx_HAL_Driver/Src\stm32f1xx_hal_flash.c ****           pFlash.Address = 0xFFFFFFFFU;
 566:C:/Users/vasil/STM32Cube/Repository/STM32Cube_FW_F1_V1.8.5/Drivers/STM32F1xx_HAL_Driver/Src\stm32f1xx_hal_flash.c ****           pFlash.ProcedureOnGoing = FLASH_PROC_NONE;
 567:C:/Users/vasil/STM32Cube/Repository/STM32Cube_FW_F1_V1.8.5/Drivers/STM32F1xx_HAL_Driver/Src\stm32f1xx_hal_flash.c ****         }
 568:C:/Users/vasil/STM32Cube/Repository/STM32Cube_FW_F1_V1.8.5/Drivers/STM32F1xx_HAL_Driver/Src\stm32f1xx_hal_flash.c ****       }
 569:C:/Users/vasil/STM32Cube/Repository/STM32Cube_FW_F1_V1.8.5/Drivers/STM32F1xx_HAL_Driver/Src\stm32f1xx_hal_flash.c ****     }
 570:C:/Users/vasil/STM32Cube/Repository/STM32Cube_FW_F1_V1.8.5/Drivers/STM32F1xx_HAL_Driver/Src\stm32f1xx_hal_flash.c ****   }
 571:C:/Users/vasil/STM32Cube/Repository/STM32Cube_FW_F1_V1.8.5/Drivers/STM32F1xx_HAL_Driver/Src\stm32f1xx_hal_flash.c **** #endif 
 572:C:/Users/vasil/STM32Cube/Repository/STM32Cube_FW_F1_V1.8.5/Drivers/STM32F1xx_HAL_Driver/Src\stm32f1xx_hal_flash.c **** 
 573:C:/Users/vasil/STM32Cube/Repository/STM32Cube_FW_F1_V1.8.5/Drivers/STM32F1xx_HAL_Driver/Src\stm32f1xx_hal_flash.c ****   if(pFlash.ProcedureOnGoing == FLASH_PROC_NONE)
 574:C:/Users/vasil/STM32Cube/Repository/STM32Cube_FW_F1_V1.8.5/Drivers/STM32F1xx_HAL_Driver/Src\stm32f1xx_hal_flash.c ****   {
 575:C:/Users/vasil/STM32Cube/Repository/STM32Cube_FW_F1_V1.8.5/Drivers/STM32F1xx_HAL_Driver/Src\stm32f1xx_hal_flash.c **** #if defined(FLASH_BANK2_END)
 576:C:/Users/vasil/STM32Cube/Repository/STM32Cube_FW_F1_V1.8.5/Drivers/STM32F1xx_HAL_Driver/Src\stm32f1xx_hal_flash.c ****     /* Operation is completed, disable the PG, PER and MER Bits for both bank */
 577:C:/Users/vasil/STM32Cube/Repository/STM32Cube_FW_F1_V1.8.5/Drivers/STM32F1xx_HAL_Driver/Src\stm32f1xx_hal_flash.c ****     CLEAR_BIT(FLASH->CR, (FLASH_CR_PG | FLASH_CR_PER | FLASH_CR_MER));
 578:C:/Users/vasil/STM32Cube/Repository/STM32Cube_FW_F1_V1.8.5/Drivers/STM32F1xx_HAL_Driver/Src\stm32f1xx_hal_flash.c ****     CLEAR_BIT(FLASH->CR2, (FLASH_CR2_PG | FLASH_CR2_PER | FLASH_CR2_MER));  
 579:C:/Users/vasil/STM32Cube/Repository/STM32Cube_FW_F1_V1.8.5/Drivers/STM32F1xx_HAL_Driver/Src\stm32f1xx_hal_flash.c ****   
 580:C:/Users/vasil/STM32Cube/Repository/STM32Cube_FW_F1_V1.8.5/Drivers/STM32F1xx_HAL_Driver/Src\stm32f1xx_hal_flash.c ****     /* Disable End of FLASH Operation and Error source interrupts for both banks */
 581:C:/Users/vasil/STM32Cube/Repository/STM32Cube_FW_F1_V1.8.5/Drivers/STM32F1xx_HAL_Driver/Src\stm32f1xx_hal_flash.c ****     __HAL_FLASH_DISABLE_IT(FLASH_IT_EOP_BANK1 | FLASH_IT_ERR_BANK1 | FLASH_IT_EOP_BANK2 | FLASH_IT_
 582:C:/Users/vasil/STM32Cube/Repository/STM32Cube_FW_F1_V1.8.5/Drivers/STM32F1xx_HAL_Driver/Src\stm32f1xx_hal_flash.c **** #else
 583:C:/Users/vasil/STM32Cube/Repository/STM32Cube_FW_F1_V1.8.5/Drivers/STM32F1xx_HAL_Driver/Src\stm32f1xx_hal_flash.c ****     /* Operation is completed, disable the PG, PER and MER Bits */
 584:C:/Users/vasil/STM32Cube/Repository/STM32Cube_FW_F1_V1.8.5/Drivers/STM32F1xx_HAL_Driver/Src\stm32f1xx_hal_flash.c ****     CLEAR_BIT(FLASH->CR, (FLASH_CR_PG | FLASH_CR_PER | FLASH_CR_MER));
 585:C:/Users/vasil/STM32Cube/Repository/STM32Cube_FW_F1_V1.8.5/Drivers/STM32F1xx_HAL_Driver/Src\stm32f1xx_hal_flash.c **** 
 586:C:/Users/vasil/STM32Cube/Repository/STM32Cube_FW_F1_V1.8.5/Drivers/STM32F1xx_HAL_Driver/Src\stm32f1xx_hal_flash.c ****     /* Disable End of FLASH Operation and Error source interrupts */
 587:C:/Users/vasil/STM32Cube/Repository/STM32Cube_FW_F1_V1.8.5/Drivers/STM32F1xx_HAL_Driver/Src\stm32f1xx_hal_flash.c ****     __HAL_FLASH_DISABLE_IT(FLASH_IT_EOP | FLASH_IT_ERR);
 588:C:/Users/vasil/STM32Cube/Repository/STM32Cube_FW_F1_V1.8.5/Drivers/STM32F1xx_HAL_Driver/Src\stm32f1xx_hal_flash.c **** #endif /* FLASH_BANK2_END */
 589:C:/Users/vasil/STM32Cube/Repository/STM32Cube_FW_F1_V1.8.5/Drivers/STM32F1xx_HAL_Driver/Src\stm32f1xx_hal_flash.c **** 
 590:C:/Users/vasil/STM32Cube/Repository/STM32Cube_FW_F1_V1.8.5/Drivers/STM32F1xx_HAL_Driver/Src\stm32f1xx_hal_flash.c ****     /* Process Unlocked */
 591:C:/Users/vasil/STM32Cube/Repository/STM32Cube_FW_F1_V1.8.5/Drivers/STM32F1xx_HAL_Driver/Src\stm32f1xx_hal_flash.c ****     __HAL_UNLOCK(&pFlash);
 592:C:/Users/vasil/STM32Cube/Repository/STM32Cube_FW_F1_V1.8.5/Drivers/STM32F1xx_HAL_Driver/Src\stm32f1xx_hal_flash.c ****   }
 593:C:/Users/vasil/STM32Cube/Repository/STM32Cube_FW_F1_V1.8.5/Drivers/STM32F1xx_HAL_Driver/Src\stm32f1xx_hal_flash.c **** }
 594:C:/Users/vasil/STM32Cube/Repository/STM32Cube_FW_F1_V1.8.5/Drivers/STM32F1xx_HAL_Driver/Src\stm32f1xx_hal_flash.c **** 
 595:C:/Users/vasil/STM32Cube/Repository/STM32Cube_FW_F1_V1.8.5/Drivers/STM32F1xx_HAL_Driver/Src\stm32f1xx_hal_flash.c **** /**
 596:C:/Users/vasil/STM32Cube/Repository/STM32Cube_FW_F1_V1.8.5/Drivers/STM32F1xx_HAL_Driver/Src\stm32f1xx_hal_flash.c ****   * @brief  FLASH end of operation interrupt callback
 597:C:/Users/vasil/STM32Cube/Repository/STM32Cube_FW_F1_V1.8.5/Drivers/STM32F1xx_HAL_Driver/Src\stm32f1xx_hal_flash.c ****   * @param  ReturnValue: The value saved in this parameter depends on the ongoing procedure
 598:C:/Users/vasil/STM32Cube/Repository/STM32Cube_FW_F1_V1.8.5/Drivers/STM32F1xx_HAL_Driver/Src\stm32f1xx_hal_flash.c ****   *                 - Mass Erase: No return value expected
 599:C:/Users/vasil/STM32Cube/Repository/STM32Cube_FW_F1_V1.8.5/Drivers/STM32F1xx_HAL_Driver/Src\stm32f1xx_hal_flash.c ****   *                 - Pages Erase: Address of the page which has been erased 
 600:C:/Users/vasil/STM32Cube/Repository/STM32Cube_FW_F1_V1.8.5/Drivers/STM32F1xx_HAL_Driver/Src\stm32f1xx_hal_flash.c ****   *                    (if 0xFFFFFFFF, it means that all the selected pages have been erased)
 601:C:/Users/vasil/STM32Cube/Repository/STM32Cube_FW_F1_V1.8.5/Drivers/STM32F1xx_HAL_Driver/Src\stm32f1xx_hal_flash.c ****   *                 - Program: Address which was selected for data program
 602:C:/Users/vasil/STM32Cube/Repository/STM32Cube_FW_F1_V1.8.5/Drivers/STM32F1xx_HAL_Driver/Src\stm32f1xx_hal_flash.c ****   * @retval none
ARM GAS  C:\Users\vasil\AppData\Local\Temp\ccvloAs2.s 			page 12


 603:C:/Users/vasil/STM32Cube/Repository/STM32Cube_FW_F1_V1.8.5/Drivers/STM32F1xx_HAL_Driver/Src\stm32f1xx_hal_flash.c ****   */
 604:C:/Users/vasil/STM32Cube/Repository/STM32Cube_FW_F1_V1.8.5/Drivers/STM32F1xx_HAL_Driver/Src\stm32f1xx_hal_flash.c **** __weak void HAL_FLASH_EndOfOperationCallback(uint32_t ReturnValue)
 605:C:/Users/vasil/STM32Cube/Repository/STM32Cube_FW_F1_V1.8.5/Drivers/STM32F1xx_HAL_Driver/Src\stm32f1xx_hal_flash.c **** {
 606:C:/Users/vasil/STM32Cube/Repository/STM32Cube_FW_F1_V1.8.5/Drivers/STM32F1xx_HAL_Driver/Src\stm32f1xx_hal_flash.c ****   /* Prevent unused argument(s) compilation warning */
 607:C:/Users/vasil/STM32Cube/Repository/STM32Cube_FW_F1_V1.8.5/Drivers/STM32F1xx_HAL_Driver/Src\stm32f1xx_hal_flash.c ****   UNUSED(ReturnValue);
 608:C:/Users/vasil/STM32Cube/Repository/STM32Cube_FW_F1_V1.8.5/Drivers/STM32F1xx_HAL_Driver/Src\stm32f1xx_hal_flash.c **** 
 609:C:/Users/vasil/STM32Cube/Repository/STM32Cube_FW_F1_V1.8.5/Drivers/STM32F1xx_HAL_Driver/Src\stm32f1xx_hal_flash.c ****   /* NOTE : This function Should not be modified, when the callback is needed,
 610:C:/Users/vasil/STM32Cube/Repository/STM32Cube_FW_F1_V1.8.5/Drivers/STM32F1xx_HAL_Driver/Src\stm32f1xx_hal_flash.c ****             the HAL_FLASH_EndOfOperationCallback could be implemented in the user file
 611:C:/Users/vasil/STM32Cube/Repository/STM32Cube_FW_F1_V1.8.5/Drivers/STM32F1xx_HAL_Driver/Src\stm32f1xx_hal_flash.c ****    */ 
 612:C:/Users/vasil/STM32Cube/Repository/STM32Cube_FW_F1_V1.8.5/Drivers/STM32F1xx_HAL_Driver/Src\stm32f1xx_hal_flash.c **** }
 613:C:/Users/vasil/STM32Cube/Repository/STM32Cube_FW_F1_V1.8.5/Drivers/STM32F1xx_HAL_Driver/Src\stm32f1xx_hal_flash.c **** 
 614:C:/Users/vasil/STM32Cube/Repository/STM32Cube_FW_F1_V1.8.5/Drivers/STM32F1xx_HAL_Driver/Src\stm32f1xx_hal_flash.c **** /**
 615:C:/Users/vasil/STM32Cube/Repository/STM32Cube_FW_F1_V1.8.5/Drivers/STM32F1xx_HAL_Driver/Src\stm32f1xx_hal_flash.c ****   * @brief  FLASH operation error interrupt callback
 616:C:/Users/vasil/STM32Cube/Repository/STM32Cube_FW_F1_V1.8.5/Drivers/STM32F1xx_HAL_Driver/Src\stm32f1xx_hal_flash.c ****   * @param  ReturnValue: The value saved in this parameter depends on the ongoing procedure
 617:C:/Users/vasil/STM32Cube/Repository/STM32Cube_FW_F1_V1.8.5/Drivers/STM32F1xx_HAL_Driver/Src\stm32f1xx_hal_flash.c ****   *                 - Mass Erase: No return value expected
 618:C:/Users/vasil/STM32Cube/Repository/STM32Cube_FW_F1_V1.8.5/Drivers/STM32F1xx_HAL_Driver/Src\stm32f1xx_hal_flash.c ****   *                 - Pages Erase: Address of the page which returned an error
 619:C:/Users/vasil/STM32Cube/Repository/STM32Cube_FW_F1_V1.8.5/Drivers/STM32F1xx_HAL_Driver/Src\stm32f1xx_hal_flash.c ****   *                 - Program: Address which was selected for data program
 620:C:/Users/vasil/STM32Cube/Repository/STM32Cube_FW_F1_V1.8.5/Drivers/STM32F1xx_HAL_Driver/Src\stm32f1xx_hal_flash.c ****   * @retval none
 621:C:/Users/vasil/STM32Cube/Repository/STM32Cube_FW_F1_V1.8.5/Drivers/STM32F1xx_HAL_Driver/Src\stm32f1xx_hal_flash.c ****   */
 622:C:/Users/vasil/STM32Cube/Repository/STM32Cube_FW_F1_V1.8.5/Drivers/STM32F1xx_HAL_Driver/Src\stm32f1xx_hal_flash.c **** __weak void HAL_FLASH_OperationErrorCallback(uint32_t ReturnValue)
 623:C:/Users/vasil/STM32Cube/Repository/STM32Cube_FW_F1_V1.8.5/Drivers/STM32F1xx_HAL_Driver/Src\stm32f1xx_hal_flash.c **** {
 624:C:/Users/vasil/STM32Cube/Repository/STM32Cube_FW_F1_V1.8.5/Drivers/STM32F1xx_HAL_Driver/Src\stm32f1xx_hal_flash.c ****   /* Prevent unused argument(s) compilation warning */
 625:C:/Users/vasil/STM32Cube/Repository/STM32Cube_FW_F1_V1.8.5/Drivers/STM32F1xx_HAL_Driver/Src\stm32f1xx_hal_flash.c ****   UNUSED(ReturnValue);
 626:C:/Users/vasil/STM32Cube/Repository/STM32Cube_FW_F1_V1.8.5/Drivers/STM32F1xx_HAL_Driver/Src\stm32f1xx_hal_flash.c **** 
 627:C:/Users/vasil/STM32Cube/Repository/STM32Cube_FW_F1_V1.8.5/Drivers/STM32F1xx_HAL_Driver/Src\stm32f1xx_hal_flash.c ****   /* NOTE : This function Should not be modified, when the callback is needed,
 628:C:/Users/vasil/STM32Cube/Repository/STM32Cube_FW_F1_V1.8.5/Drivers/STM32F1xx_HAL_Driver/Src\stm32f1xx_hal_flash.c ****             the HAL_FLASH_OperationErrorCallback could be implemented in the user file
 629:C:/Users/vasil/STM32Cube/Repository/STM32Cube_FW_F1_V1.8.5/Drivers/STM32F1xx_HAL_Driver/Src\stm32f1xx_hal_flash.c ****    */ 
 630:C:/Users/vasil/STM32Cube/Repository/STM32Cube_FW_F1_V1.8.5/Drivers/STM32F1xx_HAL_Driver/Src\stm32f1xx_hal_flash.c **** }
 631:C:/Users/vasil/STM32Cube/Repository/STM32Cube_FW_F1_V1.8.5/Drivers/STM32F1xx_HAL_Driver/Src\stm32f1xx_hal_flash.c **** 
 632:C:/Users/vasil/STM32Cube/Repository/STM32Cube_FW_F1_V1.8.5/Drivers/STM32F1xx_HAL_Driver/Src\stm32f1xx_hal_flash.c **** /**
 633:C:/Users/vasil/STM32Cube/Repository/STM32Cube_FW_F1_V1.8.5/Drivers/STM32F1xx_HAL_Driver/Src\stm32f1xx_hal_flash.c ****   * @}
 634:C:/Users/vasil/STM32Cube/Repository/STM32Cube_FW_F1_V1.8.5/Drivers/STM32F1xx_HAL_Driver/Src\stm32f1xx_hal_flash.c ****   */
 635:C:/Users/vasil/STM32Cube/Repository/STM32Cube_FW_F1_V1.8.5/Drivers/STM32F1xx_HAL_Driver/Src\stm32f1xx_hal_flash.c **** 
 636:C:/Users/vasil/STM32Cube/Repository/STM32Cube_FW_F1_V1.8.5/Drivers/STM32F1xx_HAL_Driver/Src\stm32f1xx_hal_flash.c **** /** @defgroup FLASH_Exported_Functions_Group2 Peripheral Control functions 
 637:C:/Users/vasil/STM32Cube/Repository/STM32Cube_FW_F1_V1.8.5/Drivers/STM32F1xx_HAL_Driver/Src\stm32f1xx_hal_flash.c ****  *  @brief   management functions 
 638:C:/Users/vasil/STM32Cube/Repository/STM32Cube_FW_F1_V1.8.5/Drivers/STM32F1xx_HAL_Driver/Src\stm32f1xx_hal_flash.c ****  *
 639:C:/Users/vasil/STM32Cube/Repository/STM32Cube_FW_F1_V1.8.5/Drivers/STM32F1xx_HAL_Driver/Src\stm32f1xx_hal_flash.c **** @verbatim   
 640:C:/Users/vasil/STM32Cube/Repository/STM32Cube_FW_F1_V1.8.5/Drivers/STM32F1xx_HAL_Driver/Src\stm32f1xx_hal_flash.c ****  ===============================================================================
 641:C:/Users/vasil/STM32Cube/Repository/STM32Cube_FW_F1_V1.8.5/Drivers/STM32F1xx_HAL_Driver/Src\stm32f1xx_hal_flash.c ****                       ##### Peripheral Control functions #####
 642:C:/Users/vasil/STM32Cube/Repository/STM32Cube_FW_F1_V1.8.5/Drivers/STM32F1xx_HAL_Driver/Src\stm32f1xx_hal_flash.c ****  ===============================================================================  
 643:C:/Users/vasil/STM32Cube/Repository/STM32Cube_FW_F1_V1.8.5/Drivers/STM32F1xx_HAL_Driver/Src\stm32f1xx_hal_flash.c ****     [..]
 644:C:/Users/vasil/STM32Cube/Repository/STM32Cube_FW_F1_V1.8.5/Drivers/STM32F1xx_HAL_Driver/Src\stm32f1xx_hal_flash.c ****     This subsection provides a set of functions allowing to control the FLASH 
 645:C:/Users/vasil/STM32Cube/Repository/STM32Cube_FW_F1_V1.8.5/Drivers/STM32F1xx_HAL_Driver/Src\stm32f1xx_hal_flash.c ****     memory operations.
 646:C:/Users/vasil/STM32Cube/Repository/STM32Cube_FW_F1_V1.8.5/Drivers/STM32F1xx_HAL_Driver/Src\stm32f1xx_hal_flash.c **** 
 647:C:/Users/vasil/STM32Cube/Repository/STM32Cube_FW_F1_V1.8.5/Drivers/STM32F1xx_HAL_Driver/Src\stm32f1xx_hal_flash.c **** @endverbatim
 648:C:/Users/vasil/STM32Cube/Repository/STM32Cube_FW_F1_V1.8.5/Drivers/STM32F1xx_HAL_Driver/Src\stm32f1xx_hal_flash.c ****   * @{
 649:C:/Users/vasil/STM32Cube/Repository/STM32Cube_FW_F1_V1.8.5/Drivers/STM32F1xx_HAL_Driver/Src\stm32f1xx_hal_flash.c ****   */
 650:C:/Users/vasil/STM32Cube/Repository/STM32Cube_FW_F1_V1.8.5/Drivers/STM32F1xx_HAL_Driver/Src\stm32f1xx_hal_flash.c **** 
 651:C:/Users/vasil/STM32Cube/Repository/STM32Cube_FW_F1_V1.8.5/Drivers/STM32F1xx_HAL_Driver/Src\stm32f1xx_hal_flash.c **** /**
 652:C:/Users/vasil/STM32Cube/Repository/STM32Cube_FW_F1_V1.8.5/Drivers/STM32F1xx_HAL_Driver/Src\stm32f1xx_hal_flash.c ****   * @brief  Unlock the FLASH control register access
 653:C:/Users/vasil/STM32Cube/Repository/STM32Cube_FW_F1_V1.8.5/Drivers/STM32F1xx_HAL_Driver/Src\stm32f1xx_hal_flash.c ****   * @retval HAL Status
 654:C:/Users/vasil/STM32Cube/Repository/STM32Cube_FW_F1_V1.8.5/Drivers/STM32F1xx_HAL_Driver/Src\stm32f1xx_hal_flash.c ****   */
 655:C:/Users/vasil/STM32Cube/Repository/STM32Cube_FW_F1_V1.8.5/Drivers/STM32F1xx_HAL_Driver/Src\stm32f1xx_hal_flash.c **** HAL_StatusTypeDef HAL_FLASH_Unlock(void)
 656:C:/Users/vasil/STM32Cube/Repository/STM32Cube_FW_F1_V1.8.5/Drivers/STM32F1xx_HAL_Driver/Src\stm32f1xx_hal_flash.c **** {
 657:C:/Users/vasil/STM32Cube/Repository/STM32Cube_FW_F1_V1.8.5/Drivers/STM32F1xx_HAL_Driver/Src\stm32f1xx_hal_flash.c ****   HAL_StatusTypeDef status = HAL_OK;
 658:C:/Users/vasil/STM32Cube/Repository/STM32Cube_FW_F1_V1.8.5/Drivers/STM32F1xx_HAL_Driver/Src\stm32f1xx_hal_flash.c **** 
 659:C:/Users/vasil/STM32Cube/Repository/STM32Cube_FW_F1_V1.8.5/Drivers/STM32F1xx_HAL_Driver/Src\stm32f1xx_hal_flash.c ****   if(READ_BIT(FLASH->CR, FLASH_CR_LOCK) != RESET)
ARM GAS  C:\Users\vasil\AppData\Local\Temp\ccvloAs2.s 			page 13


 660:C:/Users/vasil/STM32Cube/Repository/STM32Cube_FW_F1_V1.8.5/Drivers/STM32F1xx_HAL_Driver/Src\stm32f1xx_hal_flash.c ****   {
 661:C:/Users/vasil/STM32Cube/Repository/STM32Cube_FW_F1_V1.8.5/Drivers/STM32F1xx_HAL_Driver/Src\stm32f1xx_hal_flash.c ****     /* Authorize the FLASH Registers access */
 662:C:/Users/vasil/STM32Cube/Repository/STM32Cube_FW_F1_V1.8.5/Drivers/STM32F1xx_HAL_Driver/Src\stm32f1xx_hal_flash.c ****     WRITE_REG(FLASH->KEYR, FLASH_KEY1);
 663:C:/Users/vasil/STM32Cube/Repository/STM32Cube_FW_F1_V1.8.5/Drivers/STM32F1xx_HAL_Driver/Src\stm32f1xx_hal_flash.c ****     WRITE_REG(FLASH->KEYR, FLASH_KEY2);
 664:C:/Users/vasil/STM32Cube/Repository/STM32Cube_FW_F1_V1.8.5/Drivers/STM32F1xx_HAL_Driver/Src\stm32f1xx_hal_flash.c **** 
 665:C:/Users/vasil/STM32Cube/Repository/STM32Cube_FW_F1_V1.8.5/Drivers/STM32F1xx_HAL_Driver/Src\stm32f1xx_hal_flash.c ****     /* Verify Flash is unlocked */
 666:C:/Users/vasil/STM32Cube/Repository/STM32Cube_FW_F1_V1.8.5/Drivers/STM32F1xx_HAL_Driver/Src\stm32f1xx_hal_flash.c ****     if(READ_BIT(FLASH->CR, FLASH_CR_LOCK) != RESET)
 667:C:/Users/vasil/STM32Cube/Repository/STM32Cube_FW_F1_V1.8.5/Drivers/STM32F1xx_HAL_Driver/Src\stm32f1xx_hal_flash.c ****     {
 668:C:/Users/vasil/STM32Cube/Repository/STM32Cube_FW_F1_V1.8.5/Drivers/STM32F1xx_HAL_Driver/Src\stm32f1xx_hal_flash.c ****       status = HAL_ERROR;
 669:C:/Users/vasil/STM32Cube/Repository/STM32Cube_FW_F1_V1.8.5/Drivers/STM32F1xx_HAL_Driver/Src\stm32f1xx_hal_flash.c ****     }
 670:C:/Users/vasil/STM32Cube/Repository/STM32Cube_FW_F1_V1.8.5/Drivers/STM32F1xx_HAL_Driver/Src\stm32f1xx_hal_flash.c ****   }
 671:C:/Users/vasil/STM32Cube/Repository/STM32Cube_FW_F1_V1.8.5/Drivers/STM32F1xx_HAL_Driver/Src\stm32f1xx_hal_flash.c **** #if defined(FLASH_BANK2_END)
 672:C:/Users/vasil/STM32Cube/Repository/STM32Cube_FW_F1_V1.8.5/Drivers/STM32F1xx_HAL_Driver/Src\stm32f1xx_hal_flash.c ****   if(READ_BIT(FLASH->CR2, FLASH_CR2_LOCK) != RESET)
 673:C:/Users/vasil/STM32Cube/Repository/STM32Cube_FW_F1_V1.8.5/Drivers/STM32F1xx_HAL_Driver/Src\stm32f1xx_hal_flash.c ****   {
 674:C:/Users/vasil/STM32Cube/Repository/STM32Cube_FW_F1_V1.8.5/Drivers/STM32F1xx_HAL_Driver/Src\stm32f1xx_hal_flash.c ****     /* Authorize the FLASH BANK2 Registers access */
 675:C:/Users/vasil/STM32Cube/Repository/STM32Cube_FW_F1_V1.8.5/Drivers/STM32F1xx_HAL_Driver/Src\stm32f1xx_hal_flash.c ****     WRITE_REG(FLASH->KEYR2, FLASH_KEY1);
 676:C:/Users/vasil/STM32Cube/Repository/STM32Cube_FW_F1_V1.8.5/Drivers/STM32F1xx_HAL_Driver/Src\stm32f1xx_hal_flash.c ****     WRITE_REG(FLASH->KEYR2, FLASH_KEY2);
 677:C:/Users/vasil/STM32Cube/Repository/STM32Cube_FW_F1_V1.8.5/Drivers/STM32F1xx_HAL_Driver/Src\stm32f1xx_hal_flash.c ****     
 678:C:/Users/vasil/STM32Cube/Repository/STM32Cube_FW_F1_V1.8.5/Drivers/STM32F1xx_HAL_Driver/Src\stm32f1xx_hal_flash.c ****     /* Verify Flash BANK2 is unlocked */
 679:C:/Users/vasil/STM32Cube/Repository/STM32Cube_FW_F1_V1.8.5/Drivers/STM32F1xx_HAL_Driver/Src\stm32f1xx_hal_flash.c ****     if(READ_BIT(FLASH->CR2, FLASH_CR2_LOCK) != RESET)
 680:C:/Users/vasil/STM32Cube/Repository/STM32Cube_FW_F1_V1.8.5/Drivers/STM32F1xx_HAL_Driver/Src\stm32f1xx_hal_flash.c ****     {
 681:C:/Users/vasil/STM32Cube/Repository/STM32Cube_FW_F1_V1.8.5/Drivers/STM32F1xx_HAL_Driver/Src\stm32f1xx_hal_flash.c ****       status = HAL_ERROR;
 682:C:/Users/vasil/STM32Cube/Repository/STM32Cube_FW_F1_V1.8.5/Drivers/STM32F1xx_HAL_Driver/Src\stm32f1xx_hal_flash.c ****     }
 683:C:/Users/vasil/STM32Cube/Repository/STM32Cube_FW_F1_V1.8.5/Drivers/STM32F1xx_HAL_Driver/Src\stm32f1xx_hal_flash.c ****   }
 684:C:/Users/vasil/STM32Cube/Repository/STM32Cube_FW_F1_V1.8.5/Drivers/STM32F1xx_HAL_Driver/Src\stm32f1xx_hal_flash.c **** #endif /* FLASH_BANK2_END */
 685:C:/Users/vasil/STM32Cube/Repository/STM32Cube_FW_F1_V1.8.5/Drivers/STM32F1xx_HAL_Driver/Src\stm32f1xx_hal_flash.c **** 
 686:C:/Users/vasil/STM32Cube/Repository/STM32Cube_FW_F1_V1.8.5/Drivers/STM32F1xx_HAL_Driver/Src\stm32f1xx_hal_flash.c ****   return status;
 687:C:/Users/vasil/STM32Cube/Repository/STM32Cube_FW_F1_V1.8.5/Drivers/STM32F1xx_HAL_Driver/Src\stm32f1xx_hal_flash.c **** }
 688:C:/Users/vasil/STM32Cube/Repository/STM32Cube_FW_F1_V1.8.5/Drivers/STM32F1xx_HAL_Driver/Src\stm32f1xx_hal_flash.c **** 
 689:C:/Users/vasil/STM32Cube/Repository/STM32Cube_FW_F1_V1.8.5/Drivers/STM32F1xx_HAL_Driver/Src\stm32f1xx_hal_flash.c **** /**
 690:C:/Users/vasil/STM32Cube/Repository/STM32Cube_FW_F1_V1.8.5/Drivers/STM32F1xx_HAL_Driver/Src\stm32f1xx_hal_flash.c ****   * @brief  Locks the FLASH control register access
 691:C:/Users/vasil/STM32Cube/Repository/STM32Cube_FW_F1_V1.8.5/Drivers/STM32F1xx_HAL_Driver/Src\stm32f1xx_hal_flash.c ****   * @retval HAL Status
 692:C:/Users/vasil/STM32Cube/Repository/STM32Cube_FW_F1_V1.8.5/Drivers/STM32F1xx_HAL_Driver/Src\stm32f1xx_hal_flash.c ****   */
 693:C:/Users/vasil/STM32Cube/Repository/STM32Cube_FW_F1_V1.8.5/Drivers/STM32F1xx_HAL_Driver/Src\stm32f1xx_hal_flash.c **** HAL_StatusTypeDef HAL_FLASH_Lock(void)
 694:C:/Users/vasil/STM32Cube/Repository/STM32Cube_FW_F1_V1.8.5/Drivers/STM32F1xx_HAL_Driver/Src\stm32f1xx_hal_flash.c **** {
 695:C:/Users/vasil/STM32Cube/Repository/STM32Cube_FW_F1_V1.8.5/Drivers/STM32F1xx_HAL_Driver/Src\stm32f1xx_hal_flash.c ****   /* Set the LOCK Bit to lock the FLASH Registers access */
 696:C:/Users/vasil/STM32Cube/Repository/STM32Cube_FW_F1_V1.8.5/Drivers/STM32F1xx_HAL_Driver/Src\stm32f1xx_hal_flash.c ****   SET_BIT(FLASH->CR, FLASH_CR_LOCK);
 697:C:/Users/vasil/STM32Cube/Repository/STM32Cube_FW_F1_V1.8.5/Drivers/STM32F1xx_HAL_Driver/Src\stm32f1xx_hal_flash.c ****   
 698:C:/Users/vasil/STM32Cube/Repository/STM32Cube_FW_F1_V1.8.5/Drivers/STM32F1xx_HAL_Driver/Src\stm32f1xx_hal_flash.c **** #if defined(FLASH_BANK2_END)
 699:C:/Users/vasil/STM32Cube/Repository/STM32Cube_FW_F1_V1.8.5/Drivers/STM32F1xx_HAL_Driver/Src\stm32f1xx_hal_flash.c ****   /* Set the LOCK Bit to lock the FLASH BANK2 Registers access */
 700:C:/Users/vasil/STM32Cube/Repository/STM32Cube_FW_F1_V1.8.5/Drivers/STM32F1xx_HAL_Driver/Src\stm32f1xx_hal_flash.c ****   SET_BIT(FLASH->CR2, FLASH_CR2_LOCK);
 701:C:/Users/vasil/STM32Cube/Repository/STM32Cube_FW_F1_V1.8.5/Drivers/STM32F1xx_HAL_Driver/Src\stm32f1xx_hal_flash.c **** 
 702:C:/Users/vasil/STM32Cube/Repository/STM32Cube_FW_F1_V1.8.5/Drivers/STM32F1xx_HAL_Driver/Src\stm32f1xx_hal_flash.c **** #endif /* FLASH_BANK2_END */
 703:C:/Users/vasil/STM32Cube/Repository/STM32Cube_FW_F1_V1.8.5/Drivers/STM32F1xx_HAL_Driver/Src\stm32f1xx_hal_flash.c ****   return HAL_OK;  
 704:C:/Users/vasil/STM32Cube/Repository/STM32Cube_FW_F1_V1.8.5/Drivers/STM32F1xx_HAL_Driver/Src\stm32f1xx_hal_flash.c **** }
 705:C:/Users/vasil/STM32Cube/Repository/STM32Cube_FW_F1_V1.8.5/Drivers/STM32F1xx_HAL_Driver/Src\stm32f1xx_hal_flash.c **** 
 706:C:/Users/vasil/STM32Cube/Repository/STM32Cube_FW_F1_V1.8.5/Drivers/STM32F1xx_HAL_Driver/Src\stm32f1xx_hal_flash.c **** /**
 707:C:/Users/vasil/STM32Cube/Repository/STM32Cube_FW_F1_V1.8.5/Drivers/STM32F1xx_HAL_Driver/Src\stm32f1xx_hal_flash.c ****   * @brief  Unlock the FLASH Option Control Registers access.
 708:C:/Users/vasil/STM32Cube/Repository/STM32Cube_FW_F1_V1.8.5/Drivers/STM32F1xx_HAL_Driver/Src\stm32f1xx_hal_flash.c ****   * @retval HAL Status
 709:C:/Users/vasil/STM32Cube/Repository/STM32Cube_FW_F1_V1.8.5/Drivers/STM32F1xx_HAL_Driver/Src\stm32f1xx_hal_flash.c ****   */
 710:C:/Users/vasil/STM32Cube/Repository/STM32Cube_FW_F1_V1.8.5/Drivers/STM32F1xx_HAL_Driver/Src\stm32f1xx_hal_flash.c **** HAL_StatusTypeDef HAL_FLASH_OB_Unlock(void)
 711:C:/Users/vasil/STM32Cube/Repository/STM32Cube_FW_F1_V1.8.5/Drivers/STM32F1xx_HAL_Driver/Src\stm32f1xx_hal_flash.c **** {
 712:C:/Users/vasil/STM32Cube/Repository/STM32Cube_FW_F1_V1.8.5/Drivers/STM32F1xx_HAL_Driver/Src\stm32f1xx_hal_flash.c ****   if (HAL_IS_BIT_CLR(FLASH->CR, FLASH_CR_OPTWRE))
 713:C:/Users/vasil/STM32Cube/Repository/STM32Cube_FW_F1_V1.8.5/Drivers/STM32F1xx_HAL_Driver/Src\stm32f1xx_hal_flash.c ****   {
 714:C:/Users/vasil/STM32Cube/Repository/STM32Cube_FW_F1_V1.8.5/Drivers/STM32F1xx_HAL_Driver/Src\stm32f1xx_hal_flash.c ****     /* Authorizes the Option Byte register programming */
 715:C:/Users/vasil/STM32Cube/Repository/STM32Cube_FW_F1_V1.8.5/Drivers/STM32F1xx_HAL_Driver/Src\stm32f1xx_hal_flash.c ****     WRITE_REG(FLASH->OPTKEYR, FLASH_OPTKEY1);
 716:C:/Users/vasil/STM32Cube/Repository/STM32Cube_FW_F1_V1.8.5/Drivers/STM32F1xx_HAL_Driver/Src\stm32f1xx_hal_flash.c ****     WRITE_REG(FLASH->OPTKEYR, FLASH_OPTKEY2);
ARM GAS  C:\Users\vasil\AppData\Local\Temp\ccvloAs2.s 			page 14


 717:C:/Users/vasil/STM32Cube/Repository/STM32Cube_FW_F1_V1.8.5/Drivers/STM32F1xx_HAL_Driver/Src\stm32f1xx_hal_flash.c ****   }
 718:C:/Users/vasil/STM32Cube/Repository/STM32Cube_FW_F1_V1.8.5/Drivers/STM32F1xx_HAL_Driver/Src\stm32f1xx_hal_flash.c ****   else
 719:C:/Users/vasil/STM32Cube/Repository/STM32Cube_FW_F1_V1.8.5/Drivers/STM32F1xx_HAL_Driver/Src\stm32f1xx_hal_flash.c ****   {
 720:C:/Users/vasil/STM32Cube/Repository/STM32Cube_FW_F1_V1.8.5/Drivers/STM32F1xx_HAL_Driver/Src\stm32f1xx_hal_flash.c ****     return HAL_ERROR;
 721:C:/Users/vasil/STM32Cube/Repository/STM32Cube_FW_F1_V1.8.5/Drivers/STM32F1xx_HAL_Driver/Src\stm32f1xx_hal_flash.c ****   }  
 722:C:/Users/vasil/STM32Cube/Repository/STM32Cube_FW_F1_V1.8.5/Drivers/STM32F1xx_HAL_Driver/Src\stm32f1xx_hal_flash.c ****   
 723:C:/Users/vasil/STM32Cube/Repository/STM32Cube_FW_F1_V1.8.5/Drivers/STM32F1xx_HAL_Driver/Src\stm32f1xx_hal_flash.c ****   return HAL_OK;  
 724:C:/Users/vasil/STM32Cube/Repository/STM32Cube_FW_F1_V1.8.5/Drivers/STM32F1xx_HAL_Driver/Src\stm32f1xx_hal_flash.c **** }
 725:C:/Users/vasil/STM32Cube/Repository/STM32Cube_FW_F1_V1.8.5/Drivers/STM32F1xx_HAL_Driver/Src\stm32f1xx_hal_flash.c **** 
 726:C:/Users/vasil/STM32Cube/Repository/STM32Cube_FW_F1_V1.8.5/Drivers/STM32F1xx_HAL_Driver/Src\stm32f1xx_hal_flash.c **** /**
 727:C:/Users/vasil/STM32Cube/Repository/STM32Cube_FW_F1_V1.8.5/Drivers/STM32F1xx_HAL_Driver/Src\stm32f1xx_hal_flash.c ****   * @brief  Lock the FLASH Option Control Registers access.
 728:C:/Users/vasil/STM32Cube/Repository/STM32Cube_FW_F1_V1.8.5/Drivers/STM32F1xx_HAL_Driver/Src\stm32f1xx_hal_flash.c ****   * @retval HAL Status 
 729:C:/Users/vasil/STM32Cube/Repository/STM32Cube_FW_F1_V1.8.5/Drivers/STM32F1xx_HAL_Driver/Src\stm32f1xx_hal_flash.c ****   */
 730:C:/Users/vasil/STM32Cube/Repository/STM32Cube_FW_F1_V1.8.5/Drivers/STM32F1xx_HAL_Driver/Src\stm32f1xx_hal_flash.c **** HAL_StatusTypeDef HAL_FLASH_OB_Lock(void)
 731:C:/Users/vasil/STM32Cube/Repository/STM32Cube_FW_F1_V1.8.5/Drivers/STM32F1xx_HAL_Driver/Src\stm32f1xx_hal_flash.c **** {
 732:C:/Users/vasil/STM32Cube/Repository/STM32Cube_FW_F1_V1.8.5/Drivers/STM32F1xx_HAL_Driver/Src\stm32f1xx_hal_flash.c ****   /* Clear the OPTWRE Bit to lock the FLASH Option Byte Registers access */
 733:C:/Users/vasil/STM32Cube/Repository/STM32Cube_FW_F1_V1.8.5/Drivers/STM32F1xx_HAL_Driver/Src\stm32f1xx_hal_flash.c ****   CLEAR_BIT(FLASH->CR, FLASH_CR_OPTWRE);
 734:C:/Users/vasil/STM32Cube/Repository/STM32Cube_FW_F1_V1.8.5/Drivers/STM32F1xx_HAL_Driver/Src\stm32f1xx_hal_flash.c ****   
 735:C:/Users/vasil/STM32Cube/Repository/STM32Cube_FW_F1_V1.8.5/Drivers/STM32F1xx_HAL_Driver/Src\stm32f1xx_hal_flash.c ****   return HAL_OK;  
 736:C:/Users/vasil/STM32Cube/Repository/STM32Cube_FW_F1_V1.8.5/Drivers/STM32F1xx_HAL_Driver/Src\stm32f1xx_hal_flash.c **** }
 737:C:/Users/vasil/STM32Cube/Repository/STM32Cube_FW_F1_V1.8.5/Drivers/STM32F1xx_HAL_Driver/Src\stm32f1xx_hal_flash.c ****   
 738:C:/Users/vasil/STM32Cube/Repository/STM32Cube_FW_F1_V1.8.5/Drivers/STM32F1xx_HAL_Driver/Src\stm32f1xx_hal_flash.c **** /**
 739:C:/Users/vasil/STM32Cube/Repository/STM32Cube_FW_F1_V1.8.5/Drivers/STM32F1xx_HAL_Driver/Src\stm32f1xx_hal_flash.c ****   * @brief  Launch the option byte loading.
 740:C:/Users/vasil/STM32Cube/Repository/STM32Cube_FW_F1_V1.8.5/Drivers/STM32F1xx_HAL_Driver/Src\stm32f1xx_hal_flash.c ****   * @note   This function will reset automatically the MCU.
 741:C:/Users/vasil/STM32Cube/Repository/STM32Cube_FW_F1_V1.8.5/Drivers/STM32F1xx_HAL_Driver/Src\stm32f1xx_hal_flash.c ****   * @retval None
 742:C:/Users/vasil/STM32Cube/Repository/STM32Cube_FW_F1_V1.8.5/Drivers/STM32F1xx_HAL_Driver/Src\stm32f1xx_hal_flash.c ****   */
 743:C:/Users/vasil/STM32Cube/Repository/STM32Cube_FW_F1_V1.8.5/Drivers/STM32F1xx_HAL_Driver/Src\stm32f1xx_hal_flash.c **** void HAL_FLASH_OB_Launch(void)
 744:C:/Users/vasil/STM32Cube/Repository/STM32Cube_FW_F1_V1.8.5/Drivers/STM32F1xx_HAL_Driver/Src\stm32f1xx_hal_flash.c **** {
 745:C:/Users/vasil/STM32Cube/Repository/STM32Cube_FW_F1_V1.8.5/Drivers/STM32F1xx_HAL_Driver/Src\stm32f1xx_hal_flash.c ****   /* Initiates a system reset request to launch the option byte loading */
 746:C:/Users/vasil/STM32Cube/Repository/STM32Cube_FW_F1_V1.8.5/Drivers/STM32F1xx_HAL_Driver/Src\stm32f1xx_hal_flash.c ****   HAL_NVIC_SystemReset();
 747:C:/Users/vasil/STM32Cube/Repository/STM32Cube_FW_F1_V1.8.5/Drivers/STM32F1xx_HAL_Driver/Src\stm32f1xx_hal_flash.c **** }
 748:C:/Users/vasil/STM32Cube/Repository/STM32Cube_FW_F1_V1.8.5/Drivers/STM32F1xx_HAL_Driver/Src\stm32f1xx_hal_flash.c **** 
 749:C:/Users/vasil/STM32Cube/Repository/STM32Cube_FW_F1_V1.8.5/Drivers/STM32F1xx_HAL_Driver/Src\stm32f1xx_hal_flash.c **** /**
 750:C:/Users/vasil/STM32Cube/Repository/STM32Cube_FW_F1_V1.8.5/Drivers/STM32F1xx_HAL_Driver/Src\stm32f1xx_hal_flash.c ****   * @}
 751:C:/Users/vasil/STM32Cube/Repository/STM32Cube_FW_F1_V1.8.5/Drivers/STM32F1xx_HAL_Driver/Src\stm32f1xx_hal_flash.c ****   */  
 752:C:/Users/vasil/STM32Cube/Repository/STM32Cube_FW_F1_V1.8.5/Drivers/STM32F1xx_HAL_Driver/Src\stm32f1xx_hal_flash.c **** 
 753:C:/Users/vasil/STM32Cube/Repository/STM32Cube_FW_F1_V1.8.5/Drivers/STM32F1xx_HAL_Driver/Src\stm32f1xx_hal_flash.c **** /** @defgroup FLASH_Exported_Functions_Group3 Peripheral errors functions 
 754:C:/Users/vasil/STM32Cube/Repository/STM32Cube_FW_F1_V1.8.5/Drivers/STM32F1xx_HAL_Driver/Src\stm32f1xx_hal_flash.c ****  *  @brief    Peripheral errors functions 
 755:C:/Users/vasil/STM32Cube/Repository/STM32Cube_FW_F1_V1.8.5/Drivers/STM32F1xx_HAL_Driver/Src\stm32f1xx_hal_flash.c ****  *
 756:C:/Users/vasil/STM32Cube/Repository/STM32Cube_FW_F1_V1.8.5/Drivers/STM32F1xx_HAL_Driver/Src\stm32f1xx_hal_flash.c **** @verbatim   
 757:C:/Users/vasil/STM32Cube/Repository/STM32Cube_FW_F1_V1.8.5/Drivers/STM32F1xx_HAL_Driver/Src\stm32f1xx_hal_flash.c ****  ===============================================================================
 758:C:/Users/vasil/STM32Cube/Repository/STM32Cube_FW_F1_V1.8.5/Drivers/STM32F1xx_HAL_Driver/Src\stm32f1xx_hal_flash.c ****                       ##### Peripheral Errors functions #####
 759:C:/Users/vasil/STM32Cube/Repository/STM32Cube_FW_F1_V1.8.5/Drivers/STM32F1xx_HAL_Driver/Src\stm32f1xx_hal_flash.c ****  ===============================================================================  
 760:C:/Users/vasil/STM32Cube/Repository/STM32Cube_FW_F1_V1.8.5/Drivers/STM32F1xx_HAL_Driver/Src\stm32f1xx_hal_flash.c ****     [..]
 761:C:/Users/vasil/STM32Cube/Repository/STM32Cube_FW_F1_V1.8.5/Drivers/STM32F1xx_HAL_Driver/Src\stm32f1xx_hal_flash.c ****     This subsection permit to get in run-time errors of  the FLASH peripheral.
 762:C:/Users/vasil/STM32Cube/Repository/STM32Cube_FW_F1_V1.8.5/Drivers/STM32F1xx_HAL_Driver/Src\stm32f1xx_hal_flash.c **** 
 763:C:/Users/vasil/STM32Cube/Repository/STM32Cube_FW_F1_V1.8.5/Drivers/STM32F1xx_HAL_Driver/Src\stm32f1xx_hal_flash.c **** @endverbatim
 764:C:/Users/vasil/STM32Cube/Repository/STM32Cube_FW_F1_V1.8.5/Drivers/STM32F1xx_HAL_Driver/Src\stm32f1xx_hal_flash.c ****   * @{
 765:C:/Users/vasil/STM32Cube/Repository/STM32Cube_FW_F1_V1.8.5/Drivers/STM32F1xx_HAL_Driver/Src\stm32f1xx_hal_flash.c ****   */
 766:C:/Users/vasil/STM32Cube/Repository/STM32Cube_FW_F1_V1.8.5/Drivers/STM32F1xx_HAL_Driver/Src\stm32f1xx_hal_flash.c **** 
 767:C:/Users/vasil/STM32Cube/Repository/STM32Cube_FW_F1_V1.8.5/Drivers/STM32F1xx_HAL_Driver/Src\stm32f1xx_hal_flash.c **** /**
 768:C:/Users/vasil/STM32Cube/Repository/STM32Cube_FW_F1_V1.8.5/Drivers/STM32F1xx_HAL_Driver/Src\stm32f1xx_hal_flash.c ****   * @brief  Get the specific FLASH error flag.
 769:C:/Users/vasil/STM32Cube/Repository/STM32Cube_FW_F1_V1.8.5/Drivers/STM32F1xx_HAL_Driver/Src\stm32f1xx_hal_flash.c ****   * @retval FLASH_ErrorCode The returned value can be:
 770:C:/Users/vasil/STM32Cube/Repository/STM32Cube_FW_F1_V1.8.5/Drivers/STM32F1xx_HAL_Driver/Src\stm32f1xx_hal_flash.c ****   *            @ref FLASH_Error_Codes
 771:C:/Users/vasil/STM32Cube/Repository/STM32Cube_FW_F1_V1.8.5/Drivers/STM32F1xx_HAL_Driver/Src\stm32f1xx_hal_flash.c ****   */
 772:C:/Users/vasil/STM32Cube/Repository/STM32Cube_FW_F1_V1.8.5/Drivers/STM32F1xx_HAL_Driver/Src\stm32f1xx_hal_flash.c **** uint32_t HAL_FLASH_GetError(void)
 773:C:/Users/vasil/STM32Cube/Repository/STM32Cube_FW_F1_V1.8.5/Drivers/STM32F1xx_HAL_Driver/Src\stm32f1xx_hal_flash.c **** {
ARM GAS  C:\Users\vasil\AppData\Local\Temp\ccvloAs2.s 			page 15


 774:C:/Users/vasil/STM32Cube/Repository/STM32Cube_FW_F1_V1.8.5/Drivers/STM32F1xx_HAL_Driver/Src\stm32f1xx_hal_flash.c ****    return pFlash.ErrorCode;
 775:C:/Users/vasil/STM32Cube/Repository/STM32Cube_FW_F1_V1.8.5/Drivers/STM32F1xx_HAL_Driver/Src\stm32f1xx_hal_flash.c **** }
 776:C:/Users/vasil/STM32Cube/Repository/STM32Cube_FW_F1_V1.8.5/Drivers/STM32F1xx_HAL_Driver/Src\stm32f1xx_hal_flash.c **** 
 777:C:/Users/vasil/STM32Cube/Repository/STM32Cube_FW_F1_V1.8.5/Drivers/STM32F1xx_HAL_Driver/Src\stm32f1xx_hal_flash.c **** /**
 778:C:/Users/vasil/STM32Cube/Repository/STM32Cube_FW_F1_V1.8.5/Drivers/STM32F1xx_HAL_Driver/Src\stm32f1xx_hal_flash.c ****   * @}
 779:C:/Users/vasil/STM32Cube/Repository/STM32Cube_FW_F1_V1.8.5/Drivers/STM32F1xx_HAL_Driver/Src\stm32f1xx_hal_flash.c ****   */
 780:C:/Users/vasil/STM32Cube/Repository/STM32Cube_FW_F1_V1.8.5/Drivers/STM32F1xx_HAL_Driver/Src\stm32f1xx_hal_flash.c **** 
 781:C:/Users/vasil/STM32Cube/Repository/STM32Cube_FW_F1_V1.8.5/Drivers/STM32F1xx_HAL_Driver/Src\stm32f1xx_hal_flash.c **** /**
 782:C:/Users/vasil/STM32Cube/Repository/STM32Cube_FW_F1_V1.8.5/Drivers/STM32F1xx_HAL_Driver/Src\stm32f1xx_hal_flash.c ****   * @}
 783:C:/Users/vasil/STM32Cube/Repository/STM32Cube_FW_F1_V1.8.5/Drivers/STM32F1xx_HAL_Driver/Src\stm32f1xx_hal_flash.c ****   */
 784:C:/Users/vasil/STM32Cube/Repository/STM32Cube_FW_F1_V1.8.5/Drivers/STM32F1xx_HAL_Driver/Src\stm32f1xx_hal_flash.c **** 
 785:C:/Users/vasil/STM32Cube/Repository/STM32Cube_FW_F1_V1.8.5/Drivers/STM32F1xx_HAL_Driver/Src\stm32f1xx_hal_flash.c **** /** @addtogroup FLASH_Private_Functions
 786:C:/Users/vasil/STM32Cube/Repository/STM32Cube_FW_F1_V1.8.5/Drivers/STM32F1xx_HAL_Driver/Src\stm32f1xx_hal_flash.c ****  * @{
 787:C:/Users/vasil/STM32Cube/Repository/STM32Cube_FW_F1_V1.8.5/Drivers/STM32F1xx_HAL_Driver/Src\stm32f1xx_hal_flash.c ****  */
 788:C:/Users/vasil/STM32Cube/Repository/STM32Cube_FW_F1_V1.8.5/Drivers/STM32F1xx_HAL_Driver/Src\stm32f1xx_hal_flash.c **** 
 789:C:/Users/vasil/STM32Cube/Repository/STM32Cube_FW_F1_V1.8.5/Drivers/STM32F1xx_HAL_Driver/Src\stm32f1xx_hal_flash.c **** /**
 790:C:/Users/vasil/STM32Cube/Repository/STM32Cube_FW_F1_V1.8.5/Drivers/STM32F1xx_HAL_Driver/Src\stm32f1xx_hal_flash.c ****   * @brief  Program a half-word (16-bit) at a specified address.
 791:C:/Users/vasil/STM32Cube/Repository/STM32Cube_FW_F1_V1.8.5/Drivers/STM32F1xx_HAL_Driver/Src\stm32f1xx_hal_flash.c ****   * @param  Address specify the address to be programmed.
 792:C:/Users/vasil/STM32Cube/Repository/STM32Cube_FW_F1_V1.8.5/Drivers/STM32F1xx_HAL_Driver/Src\stm32f1xx_hal_flash.c ****   * @param  Data    specify the data to be programmed.
 793:C:/Users/vasil/STM32Cube/Repository/STM32Cube_FW_F1_V1.8.5/Drivers/STM32F1xx_HAL_Driver/Src\stm32f1xx_hal_flash.c ****   * @retval None
 794:C:/Users/vasil/STM32Cube/Repository/STM32Cube_FW_F1_V1.8.5/Drivers/STM32F1xx_HAL_Driver/Src\stm32f1xx_hal_flash.c ****   */
 795:C:/Users/vasil/STM32Cube/Repository/STM32Cube_FW_F1_V1.8.5/Drivers/STM32F1xx_HAL_Driver/Src\stm32f1xx_hal_flash.c **** static void FLASH_Program_HalfWord(uint32_t Address, uint16_t Data)
 796:C:/Users/vasil/STM32Cube/Repository/STM32Cube_FW_F1_V1.8.5/Drivers/STM32F1xx_HAL_Driver/Src\stm32f1xx_hal_flash.c **** {
  27              		.loc 1 796 1 view -0
  28              		.cfi_startproc
  29              		@ args = 0, pretend = 0, frame = 0
  30              		@ frame_needed = 0, uses_anonymous_args = 0
  31              		@ link register save eliminated.
 797:C:/Users/vasil/STM32Cube/Repository/STM32Cube_FW_F1_V1.8.5/Drivers/STM32F1xx_HAL_Driver/Src\stm32f1xx_hal_flash.c ****   /* Clean the error context */
 798:C:/Users/vasil/STM32Cube/Repository/STM32Cube_FW_F1_V1.8.5/Drivers/STM32F1xx_HAL_Driver/Src\stm32f1xx_hal_flash.c ****   pFlash.ErrorCode = HAL_FLASH_ERROR_NONE;
  32              		.loc 1 798 3 view .LVU1
  33              		.loc 1 798 20 is_stmt 0 view .LVU2
  34 0000 044B     		ldr	r3, .L2
  35 0002 0022     		movs	r2, #0
  36 0004 DA61     		str	r2, [r3, #28]
 799:C:/Users/vasil/STM32Cube/Repository/STM32Cube_FW_F1_V1.8.5/Drivers/STM32F1xx_HAL_Driver/Src\stm32f1xx_hal_flash.c ****   
 800:C:/Users/vasil/STM32Cube/Repository/STM32Cube_FW_F1_V1.8.5/Drivers/STM32F1xx_HAL_Driver/Src\stm32f1xx_hal_flash.c **** #if defined(FLASH_BANK2_END)
 801:C:/Users/vasil/STM32Cube/Repository/STM32Cube_FW_F1_V1.8.5/Drivers/STM32F1xx_HAL_Driver/Src\stm32f1xx_hal_flash.c ****   if(Address <= FLASH_BANK1_END)
 802:C:/Users/vasil/STM32Cube/Repository/STM32Cube_FW_F1_V1.8.5/Drivers/STM32F1xx_HAL_Driver/Src\stm32f1xx_hal_flash.c ****   {
 803:C:/Users/vasil/STM32Cube/Repository/STM32Cube_FW_F1_V1.8.5/Drivers/STM32F1xx_HAL_Driver/Src\stm32f1xx_hal_flash.c **** #endif /* FLASH_BANK2_END */
 804:C:/Users/vasil/STM32Cube/Repository/STM32Cube_FW_F1_V1.8.5/Drivers/STM32F1xx_HAL_Driver/Src\stm32f1xx_hal_flash.c ****     /* Proceed to program the new data */
 805:C:/Users/vasil/STM32Cube/Repository/STM32Cube_FW_F1_V1.8.5/Drivers/STM32F1xx_HAL_Driver/Src\stm32f1xx_hal_flash.c ****     SET_BIT(FLASH->CR, FLASH_CR_PG);
  37              		.loc 1 805 5 is_stmt 1 view .LVU3
  38 0006 044A     		ldr	r2, .L2+4
  39 0008 1369     		ldr	r3, [r2, #16]
  40 000a 43F00103 		orr	r3, r3, #1
  41 000e 1361     		str	r3, [r2, #16]
 806:C:/Users/vasil/STM32Cube/Repository/STM32Cube_FW_F1_V1.8.5/Drivers/STM32F1xx_HAL_Driver/Src\stm32f1xx_hal_flash.c **** #if defined(FLASH_BANK2_END)
 807:C:/Users/vasil/STM32Cube/Repository/STM32Cube_FW_F1_V1.8.5/Drivers/STM32F1xx_HAL_Driver/Src\stm32f1xx_hal_flash.c ****   }
 808:C:/Users/vasil/STM32Cube/Repository/STM32Cube_FW_F1_V1.8.5/Drivers/STM32F1xx_HAL_Driver/Src\stm32f1xx_hal_flash.c ****   else
 809:C:/Users/vasil/STM32Cube/Repository/STM32Cube_FW_F1_V1.8.5/Drivers/STM32F1xx_HAL_Driver/Src\stm32f1xx_hal_flash.c ****   {
 810:C:/Users/vasil/STM32Cube/Repository/STM32Cube_FW_F1_V1.8.5/Drivers/STM32F1xx_HAL_Driver/Src\stm32f1xx_hal_flash.c ****     /* Proceed to program the new data */
 811:C:/Users/vasil/STM32Cube/Repository/STM32Cube_FW_F1_V1.8.5/Drivers/STM32F1xx_HAL_Driver/Src\stm32f1xx_hal_flash.c ****     SET_BIT(FLASH->CR2, FLASH_CR2_PG);
 812:C:/Users/vasil/STM32Cube/Repository/STM32Cube_FW_F1_V1.8.5/Drivers/STM32F1xx_HAL_Driver/Src\stm32f1xx_hal_flash.c ****   }
 813:C:/Users/vasil/STM32Cube/Repository/STM32Cube_FW_F1_V1.8.5/Drivers/STM32F1xx_HAL_Driver/Src\stm32f1xx_hal_flash.c **** #endif /* FLASH_BANK2_END */
 814:C:/Users/vasil/STM32Cube/Repository/STM32Cube_FW_F1_V1.8.5/Drivers/STM32F1xx_HAL_Driver/Src\stm32f1xx_hal_flash.c **** 
 815:C:/Users/vasil/STM32Cube/Repository/STM32Cube_FW_F1_V1.8.5/Drivers/STM32F1xx_HAL_Driver/Src\stm32f1xx_hal_flash.c ****   /* Write data in the address */
ARM GAS  C:\Users\vasil\AppData\Local\Temp\ccvloAs2.s 			page 16


 816:C:/Users/vasil/STM32Cube/Repository/STM32Cube_FW_F1_V1.8.5/Drivers/STM32F1xx_HAL_Driver/Src\stm32f1xx_hal_flash.c ****   *(__IO uint16_t*)Address = Data;
  42              		.loc 1 816 3 view .LVU4
  43              		.loc 1 816 28 is_stmt 0 view .LVU5
  44 0010 0180     		strh	r1, [r0]	@ movhi
 817:C:/Users/vasil/STM32Cube/Repository/STM32Cube_FW_F1_V1.8.5/Drivers/STM32F1xx_HAL_Driver/Src\stm32f1xx_hal_flash.c **** }
  45              		.loc 1 817 1 view .LVU6
  46 0012 7047     		bx	lr
  47              	.L3:
  48              		.align	2
  49              	.L2:
  50 0014 00000000 		.word	.LANCHOR0
  51 0018 00200240 		.word	1073881088
  52              		.cfi_endproc
  53              	.LFE76:
  55              		.section	.text.FLASH_SetErrorCode,"ax",%progbits
  56              		.align	1
  57              		.syntax unified
  58              		.thumb
  59              		.thumb_func
  61              	FLASH_SetErrorCode:
  62              	.LFB78:
 818:C:/Users/vasil/STM32Cube/Repository/STM32Cube_FW_F1_V1.8.5/Drivers/STM32F1xx_HAL_Driver/Src\stm32f1xx_hal_flash.c **** 
 819:C:/Users/vasil/STM32Cube/Repository/STM32Cube_FW_F1_V1.8.5/Drivers/STM32F1xx_HAL_Driver/Src\stm32f1xx_hal_flash.c **** /**
 820:C:/Users/vasil/STM32Cube/Repository/STM32Cube_FW_F1_V1.8.5/Drivers/STM32F1xx_HAL_Driver/Src\stm32f1xx_hal_flash.c ****   * @brief  Wait for a FLASH operation to complete.
 821:C:/Users/vasil/STM32Cube/Repository/STM32Cube_FW_F1_V1.8.5/Drivers/STM32F1xx_HAL_Driver/Src\stm32f1xx_hal_flash.c ****   * @param  Timeout  maximum flash operation timeout
 822:C:/Users/vasil/STM32Cube/Repository/STM32Cube_FW_F1_V1.8.5/Drivers/STM32F1xx_HAL_Driver/Src\stm32f1xx_hal_flash.c ****   * @retval HAL Status
 823:C:/Users/vasil/STM32Cube/Repository/STM32Cube_FW_F1_V1.8.5/Drivers/STM32F1xx_HAL_Driver/Src\stm32f1xx_hal_flash.c ****   */
 824:C:/Users/vasil/STM32Cube/Repository/STM32Cube_FW_F1_V1.8.5/Drivers/STM32F1xx_HAL_Driver/Src\stm32f1xx_hal_flash.c **** HAL_StatusTypeDef FLASH_WaitForLastOperation(uint32_t Timeout)
 825:C:/Users/vasil/STM32Cube/Repository/STM32Cube_FW_F1_V1.8.5/Drivers/STM32F1xx_HAL_Driver/Src\stm32f1xx_hal_flash.c **** {
 826:C:/Users/vasil/STM32Cube/Repository/STM32Cube_FW_F1_V1.8.5/Drivers/STM32F1xx_HAL_Driver/Src\stm32f1xx_hal_flash.c ****   /* Wait for the FLASH operation to complete by polling on BUSY flag to be reset.
 827:C:/Users/vasil/STM32Cube/Repository/STM32Cube_FW_F1_V1.8.5/Drivers/STM32F1xx_HAL_Driver/Src\stm32f1xx_hal_flash.c ****      Even if the FLASH operation fails, the BUSY flag will be reset and an error
 828:C:/Users/vasil/STM32Cube/Repository/STM32Cube_FW_F1_V1.8.5/Drivers/STM32F1xx_HAL_Driver/Src\stm32f1xx_hal_flash.c ****      flag will be set */
 829:C:/Users/vasil/STM32Cube/Repository/STM32Cube_FW_F1_V1.8.5/Drivers/STM32F1xx_HAL_Driver/Src\stm32f1xx_hal_flash.c ****      
 830:C:/Users/vasil/STM32Cube/Repository/STM32Cube_FW_F1_V1.8.5/Drivers/STM32F1xx_HAL_Driver/Src\stm32f1xx_hal_flash.c ****   uint32_t tickstart = HAL_GetTick();
 831:C:/Users/vasil/STM32Cube/Repository/STM32Cube_FW_F1_V1.8.5/Drivers/STM32F1xx_HAL_Driver/Src\stm32f1xx_hal_flash.c ****      
 832:C:/Users/vasil/STM32Cube/Repository/STM32Cube_FW_F1_V1.8.5/Drivers/STM32F1xx_HAL_Driver/Src\stm32f1xx_hal_flash.c ****   while(__HAL_FLASH_GET_FLAG(FLASH_FLAG_BSY)) 
 833:C:/Users/vasil/STM32Cube/Repository/STM32Cube_FW_F1_V1.8.5/Drivers/STM32F1xx_HAL_Driver/Src\stm32f1xx_hal_flash.c ****   { 
 834:C:/Users/vasil/STM32Cube/Repository/STM32Cube_FW_F1_V1.8.5/Drivers/STM32F1xx_HAL_Driver/Src\stm32f1xx_hal_flash.c ****     if (Timeout != HAL_MAX_DELAY)
 835:C:/Users/vasil/STM32Cube/Repository/STM32Cube_FW_F1_V1.8.5/Drivers/STM32F1xx_HAL_Driver/Src\stm32f1xx_hal_flash.c ****     {
 836:C:/Users/vasil/STM32Cube/Repository/STM32Cube_FW_F1_V1.8.5/Drivers/STM32F1xx_HAL_Driver/Src\stm32f1xx_hal_flash.c ****       if((Timeout == 0U) || ((HAL_GetTick()-tickstart) > Timeout))
 837:C:/Users/vasil/STM32Cube/Repository/STM32Cube_FW_F1_V1.8.5/Drivers/STM32F1xx_HAL_Driver/Src\stm32f1xx_hal_flash.c ****       {
 838:C:/Users/vasil/STM32Cube/Repository/STM32Cube_FW_F1_V1.8.5/Drivers/STM32F1xx_HAL_Driver/Src\stm32f1xx_hal_flash.c ****         return HAL_TIMEOUT;
 839:C:/Users/vasil/STM32Cube/Repository/STM32Cube_FW_F1_V1.8.5/Drivers/STM32F1xx_HAL_Driver/Src\stm32f1xx_hal_flash.c ****       }
 840:C:/Users/vasil/STM32Cube/Repository/STM32Cube_FW_F1_V1.8.5/Drivers/STM32F1xx_HAL_Driver/Src\stm32f1xx_hal_flash.c ****     }
 841:C:/Users/vasil/STM32Cube/Repository/STM32Cube_FW_F1_V1.8.5/Drivers/STM32F1xx_HAL_Driver/Src\stm32f1xx_hal_flash.c ****   }
 842:C:/Users/vasil/STM32Cube/Repository/STM32Cube_FW_F1_V1.8.5/Drivers/STM32F1xx_HAL_Driver/Src\stm32f1xx_hal_flash.c ****   
 843:C:/Users/vasil/STM32Cube/Repository/STM32Cube_FW_F1_V1.8.5/Drivers/STM32F1xx_HAL_Driver/Src\stm32f1xx_hal_flash.c ****   /* Check FLASH End of Operation flag  */
 844:C:/Users/vasil/STM32Cube/Repository/STM32Cube_FW_F1_V1.8.5/Drivers/STM32F1xx_HAL_Driver/Src\stm32f1xx_hal_flash.c ****   if (__HAL_FLASH_GET_FLAG(FLASH_FLAG_EOP))
 845:C:/Users/vasil/STM32Cube/Repository/STM32Cube_FW_F1_V1.8.5/Drivers/STM32F1xx_HAL_Driver/Src\stm32f1xx_hal_flash.c ****   {
 846:C:/Users/vasil/STM32Cube/Repository/STM32Cube_FW_F1_V1.8.5/Drivers/STM32F1xx_HAL_Driver/Src\stm32f1xx_hal_flash.c ****     /* Clear FLASH End of Operation pending bit */
 847:C:/Users/vasil/STM32Cube/Repository/STM32Cube_FW_F1_V1.8.5/Drivers/STM32F1xx_HAL_Driver/Src\stm32f1xx_hal_flash.c ****     __HAL_FLASH_CLEAR_FLAG(FLASH_FLAG_EOP);
 848:C:/Users/vasil/STM32Cube/Repository/STM32Cube_FW_F1_V1.8.5/Drivers/STM32F1xx_HAL_Driver/Src\stm32f1xx_hal_flash.c ****   }
 849:C:/Users/vasil/STM32Cube/Repository/STM32Cube_FW_F1_V1.8.5/Drivers/STM32F1xx_HAL_Driver/Src\stm32f1xx_hal_flash.c ****   
 850:C:/Users/vasil/STM32Cube/Repository/STM32Cube_FW_F1_V1.8.5/Drivers/STM32F1xx_HAL_Driver/Src\stm32f1xx_hal_flash.c ****   if(__HAL_FLASH_GET_FLAG(FLASH_FLAG_WRPERR)  || 
 851:C:/Users/vasil/STM32Cube/Repository/STM32Cube_FW_F1_V1.8.5/Drivers/STM32F1xx_HAL_Driver/Src\stm32f1xx_hal_flash.c ****      __HAL_FLASH_GET_FLAG(FLASH_FLAG_OPTVERR) || 
 852:C:/Users/vasil/STM32Cube/Repository/STM32Cube_FW_F1_V1.8.5/Drivers/STM32F1xx_HAL_Driver/Src\stm32f1xx_hal_flash.c ****      __HAL_FLASH_GET_FLAG(FLASH_FLAG_PGERR))
 853:C:/Users/vasil/STM32Cube/Repository/STM32Cube_FW_F1_V1.8.5/Drivers/STM32F1xx_HAL_Driver/Src\stm32f1xx_hal_flash.c ****   {
ARM GAS  C:\Users\vasil\AppData\Local\Temp\ccvloAs2.s 			page 17


 854:C:/Users/vasil/STM32Cube/Repository/STM32Cube_FW_F1_V1.8.5/Drivers/STM32F1xx_HAL_Driver/Src\stm32f1xx_hal_flash.c ****     /*Save the error code*/
 855:C:/Users/vasil/STM32Cube/Repository/STM32Cube_FW_F1_V1.8.5/Drivers/STM32F1xx_HAL_Driver/Src\stm32f1xx_hal_flash.c ****     FLASH_SetErrorCode();
 856:C:/Users/vasil/STM32Cube/Repository/STM32Cube_FW_F1_V1.8.5/Drivers/STM32F1xx_HAL_Driver/Src\stm32f1xx_hal_flash.c ****     return HAL_ERROR;
 857:C:/Users/vasil/STM32Cube/Repository/STM32Cube_FW_F1_V1.8.5/Drivers/STM32F1xx_HAL_Driver/Src\stm32f1xx_hal_flash.c ****   }
 858:C:/Users/vasil/STM32Cube/Repository/STM32Cube_FW_F1_V1.8.5/Drivers/STM32F1xx_HAL_Driver/Src\stm32f1xx_hal_flash.c **** 
 859:C:/Users/vasil/STM32Cube/Repository/STM32Cube_FW_F1_V1.8.5/Drivers/STM32F1xx_HAL_Driver/Src\stm32f1xx_hal_flash.c ****   /* There is no error flag set */
 860:C:/Users/vasil/STM32Cube/Repository/STM32Cube_FW_F1_V1.8.5/Drivers/STM32F1xx_HAL_Driver/Src\stm32f1xx_hal_flash.c ****   return HAL_OK;
 861:C:/Users/vasil/STM32Cube/Repository/STM32Cube_FW_F1_V1.8.5/Drivers/STM32F1xx_HAL_Driver/Src\stm32f1xx_hal_flash.c **** }
 862:C:/Users/vasil/STM32Cube/Repository/STM32Cube_FW_F1_V1.8.5/Drivers/STM32F1xx_HAL_Driver/Src\stm32f1xx_hal_flash.c **** 
 863:C:/Users/vasil/STM32Cube/Repository/STM32Cube_FW_F1_V1.8.5/Drivers/STM32F1xx_HAL_Driver/Src\stm32f1xx_hal_flash.c **** #if defined(FLASH_BANK2_END)
 864:C:/Users/vasil/STM32Cube/Repository/STM32Cube_FW_F1_V1.8.5/Drivers/STM32F1xx_HAL_Driver/Src\stm32f1xx_hal_flash.c **** /**
 865:C:/Users/vasil/STM32Cube/Repository/STM32Cube_FW_F1_V1.8.5/Drivers/STM32F1xx_HAL_Driver/Src\stm32f1xx_hal_flash.c ****   * @brief  Wait for a FLASH BANK2 operation to complete.
 866:C:/Users/vasil/STM32Cube/Repository/STM32Cube_FW_F1_V1.8.5/Drivers/STM32F1xx_HAL_Driver/Src\stm32f1xx_hal_flash.c ****   * @param  Timeout maximum flash operation timeout
 867:C:/Users/vasil/STM32Cube/Repository/STM32Cube_FW_F1_V1.8.5/Drivers/STM32F1xx_HAL_Driver/Src\stm32f1xx_hal_flash.c ****   * @retval HAL_StatusTypeDef HAL Status
 868:C:/Users/vasil/STM32Cube/Repository/STM32Cube_FW_F1_V1.8.5/Drivers/STM32F1xx_HAL_Driver/Src\stm32f1xx_hal_flash.c ****   */
 869:C:/Users/vasil/STM32Cube/Repository/STM32Cube_FW_F1_V1.8.5/Drivers/STM32F1xx_HAL_Driver/Src\stm32f1xx_hal_flash.c **** HAL_StatusTypeDef FLASH_WaitForLastOperationBank2(uint32_t Timeout)
 870:C:/Users/vasil/STM32Cube/Repository/STM32Cube_FW_F1_V1.8.5/Drivers/STM32F1xx_HAL_Driver/Src\stm32f1xx_hal_flash.c **** { 
 871:C:/Users/vasil/STM32Cube/Repository/STM32Cube_FW_F1_V1.8.5/Drivers/STM32F1xx_HAL_Driver/Src\stm32f1xx_hal_flash.c ****   /* Wait for the FLASH BANK2 operation to complete by polling on BUSY flag to be reset.
 872:C:/Users/vasil/STM32Cube/Repository/STM32Cube_FW_F1_V1.8.5/Drivers/STM32F1xx_HAL_Driver/Src\stm32f1xx_hal_flash.c ****      Even if the FLASH BANK2 operation fails, the BUSY flag will be reset and an error
 873:C:/Users/vasil/STM32Cube/Repository/STM32Cube_FW_F1_V1.8.5/Drivers/STM32F1xx_HAL_Driver/Src\stm32f1xx_hal_flash.c ****      flag will be set */
 874:C:/Users/vasil/STM32Cube/Repository/STM32Cube_FW_F1_V1.8.5/Drivers/STM32F1xx_HAL_Driver/Src\stm32f1xx_hal_flash.c ****      
 875:C:/Users/vasil/STM32Cube/Repository/STM32Cube_FW_F1_V1.8.5/Drivers/STM32F1xx_HAL_Driver/Src\stm32f1xx_hal_flash.c ****   uint32_t tickstart = HAL_GetTick();
 876:C:/Users/vasil/STM32Cube/Repository/STM32Cube_FW_F1_V1.8.5/Drivers/STM32F1xx_HAL_Driver/Src\stm32f1xx_hal_flash.c ****      
 877:C:/Users/vasil/STM32Cube/Repository/STM32Cube_FW_F1_V1.8.5/Drivers/STM32F1xx_HAL_Driver/Src\stm32f1xx_hal_flash.c ****   while(__HAL_FLASH_GET_FLAG(FLASH_FLAG_BSY_BANK2)) 
 878:C:/Users/vasil/STM32Cube/Repository/STM32Cube_FW_F1_V1.8.5/Drivers/STM32F1xx_HAL_Driver/Src\stm32f1xx_hal_flash.c ****   { 
 879:C:/Users/vasil/STM32Cube/Repository/STM32Cube_FW_F1_V1.8.5/Drivers/STM32F1xx_HAL_Driver/Src\stm32f1xx_hal_flash.c ****     if (Timeout != HAL_MAX_DELAY)
 880:C:/Users/vasil/STM32Cube/Repository/STM32Cube_FW_F1_V1.8.5/Drivers/STM32F1xx_HAL_Driver/Src\stm32f1xx_hal_flash.c ****     {
 881:C:/Users/vasil/STM32Cube/Repository/STM32Cube_FW_F1_V1.8.5/Drivers/STM32F1xx_HAL_Driver/Src\stm32f1xx_hal_flash.c ****       if((Timeout == 0U) || ((HAL_GetTick()-tickstart) > Timeout))
 882:C:/Users/vasil/STM32Cube/Repository/STM32Cube_FW_F1_V1.8.5/Drivers/STM32F1xx_HAL_Driver/Src\stm32f1xx_hal_flash.c ****       {
 883:C:/Users/vasil/STM32Cube/Repository/STM32Cube_FW_F1_V1.8.5/Drivers/STM32F1xx_HAL_Driver/Src\stm32f1xx_hal_flash.c ****         return HAL_TIMEOUT;
 884:C:/Users/vasil/STM32Cube/Repository/STM32Cube_FW_F1_V1.8.5/Drivers/STM32F1xx_HAL_Driver/Src\stm32f1xx_hal_flash.c ****       }
 885:C:/Users/vasil/STM32Cube/Repository/STM32Cube_FW_F1_V1.8.5/Drivers/STM32F1xx_HAL_Driver/Src\stm32f1xx_hal_flash.c ****     }
 886:C:/Users/vasil/STM32Cube/Repository/STM32Cube_FW_F1_V1.8.5/Drivers/STM32F1xx_HAL_Driver/Src\stm32f1xx_hal_flash.c ****   }
 887:C:/Users/vasil/STM32Cube/Repository/STM32Cube_FW_F1_V1.8.5/Drivers/STM32F1xx_HAL_Driver/Src\stm32f1xx_hal_flash.c ****   
 888:C:/Users/vasil/STM32Cube/Repository/STM32Cube_FW_F1_V1.8.5/Drivers/STM32F1xx_HAL_Driver/Src\stm32f1xx_hal_flash.c ****   /* Check FLASH End of Operation flag  */
 889:C:/Users/vasil/STM32Cube/Repository/STM32Cube_FW_F1_V1.8.5/Drivers/STM32F1xx_HAL_Driver/Src\stm32f1xx_hal_flash.c ****   if (__HAL_FLASH_GET_FLAG(FLASH_FLAG_EOP_BANK2))
 890:C:/Users/vasil/STM32Cube/Repository/STM32Cube_FW_F1_V1.8.5/Drivers/STM32F1xx_HAL_Driver/Src\stm32f1xx_hal_flash.c ****   {
 891:C:/Users/vasil/STM32Cube/Repository/STM32Cube_FW_F1_V1.8.5/Drivers/STM32F1xx_HAL_Driver/Src\stm32f1xx_hal_flash.c ****     /* Clear FLASH End of Operation pending bit */
 892:C:/Users/vasil/STM32Cube/Repository/STM32Cube_FW_F1_V1.8.5/Drivers/STM32F1xx_HAL_Driver/Src\stm32f1xx_hal_flash.c ****     __HAL_FLASH_CLEAR_FLAG(FLASH_FLAG_EOP_BANK2);
 893:C:/Users/vasil/STM32Cube/Repository/STM32Cube_FW_F1_V1.8.5/Drivers/STM32F1xx_HAL_Driver/Src\stm32f1xx_hal_flash.c ****   }
 894:C:/Users/vasil/STM32Cube/Repository/STM32Cube_FW_F1_V1.8.5/Drivers/STM32F1xx_HAL_Driver/Src\stm32f1xx_hal_flash.c **** 
 895:C:/Users/vasil/STM32Cube/Repository/STM32Cube_FW_F1_V1.8.5/Drivers/STM32F1xx_HAL_Driver/Src\stm32f1xx_hal_flash.c ****   if(__HAL_FLASH_GET_FLAG(FLASH_FLAG_WRPERR_BANK2) || __HAL_FLASH_GET_FLAG(FLASH_FLAG_PGERR_BANK2))
 896:C:/Users/vasil/STM32Cube/Repository/STM32Cube_FW_F1_V1.8.5/Drivers/STM32F1xx_HAL_Driver/Src\stm32f1xx_hal_flash.c ****   {
 897:C:/Users/vasil/STM32Cube/Repository/STM32Cube_FW_F1_V1.8.5/Drivers/STM32F1xx_HAL_Driver/Src\stm32f1xx_hal_flash.c ****     /*Save the error code*/
 898:C:/Users/vasil/STM32Cube/Repository/STM32Cube_FW_F1_V1.8.5/Drivers/STM32F1xx_HAL_Driver/Src\stm32f1xx_hal_flash.c ****     FLASH_SetErrorCode();
 899:C:/Users/vasil/STM32Cube/Repository/STM32Cube_FW_F1_V1.8.5/Drivers/STM32F1xx_HAL_Driver/Src\stm32f1xx_hal_flash.c ****     return HAL_ERROR;
 900:C:/Users/vasil/STM32Cube/Repository/STM32Cube_FW_F1_V1.8.5/Drivers/STM32F1xx_HAL_Driver/Src\stm32f1xx_hal_flash.c ****   }
 901:C:/Users/vasil/STM32Cube/Repository/STM32Cube_FW_F1_V1.8.5/Drivers/STM32F1xx_HAL_Driver/Src\stm32f1xx_hal_flash.c **** 
 902:C:/Users/vasil/STM32Cube/Repository/STM32Cube_FW_F1_V1.8.5/Drivers/STM32F1xx_HAL_Driver/Src\stm32f1xx_hal_flash.c ****   /* If there is an error flag set */
 903:C:/Users/vasil/STM32Cube/Repository/STM32Cube_FW_F1_V1.8.5/Drivers/STM32F1xx_HAL_Driver/Src\stm32f1xx_hal_flash.c ****   return HAL_OK;
 904:C:/Users/vasil/STM32Cube/Repository/STM32Cube_FW_F1_V1.8.5/Drivers/STM32F1xx_HAL_Driver/Src\stm32f1xx_hal_flash.c ****   
 905:C:/Users/vasil/STM32Cube/Repository/STM32Cube_FW_F1_V1.8.5/Drivers/STM32F1xx_HAL_Driver/Src\stm32f1xx_hal_flash.c **** }
 906:C:/Users/vasil/STM32Cube/Repository/STM32Cube_FW_F1_V1.8.5/Drivers/STM32F1xx_HAL_Driver/Src\stm32f1xx_hal_flash.c **** #endif /* FLASH_BANK2_END */
 907:C:/Users/vasil/STM32Cube/Repository/STM32Cube_FW_F1_V1.8.5/Drivers/STM32F1xx_HAL_Driver/Src\stm32f1xx_hal_flash.c **** 
 908:C:/Users/vasil/STM32Cube/Repository/STM32Cube_FW_F1_V1.8.5/Drivers/STM32F1xx_HAL_Driver/Src\stm32f1xx_hal_flash.c **** /**
 909:C:/Users/vasil/STM32Cube/Repository/STM32Cube_FW_F1_V1.8.5/Drivers/STM32F1xx_HAL_Driver/Src\stm32f1xx_hal_flash.c ****   * @brief  Set the specific FLASH error flag.
 910:C:/Users/vasil/STM32Cube/Repository/STM32Cube_FW_F1_V1.8.5/Drivers/STM32F1xx_HAL_Driver/Src\stm32f1xx_hal_flash.c ****   * @retval None
ARM GAS  C:\Users\vasil\AppData\Local\Temp\ccvloAs2.s 			page 18


 911:C:/Users/vasil/STM32Cube/Repository/STM32Cube_FW_F1_V1.8.5/Drivers/STM32F1xx_HAL_Driver/Src\stm32f1xx_hal_flash.c ****   */
 912:C:/Users/vasil/STM32Cube/Repository/STM32Cube_FW_F1_V1.8.5/Drivers/STM32F1xx_HAL_Driver/Src\stm32f1xx_hal_flash.c **** static void FLASH_SetErrorCode(void)
 913:C:/Users/vasil/STM32Cube/Repository/STM32Cube_FW_F1_V1.8.5/Drivers/STM32F1xx_HAL_Driver/Src\stm32f1xx_hal_flash.c **** {
  63              		.loc 1 913 1 is_stmt 1 view -0
  64              		.cfi_startproc
  65              		@ args = 0, pretend = 0, frame = 0
  66              		@ frame_needed = 0, uses_anonymous_args = 0
  67              		@ link register save eliminated.
 914:C:/Users/vasil/STM32Cube/Repository/STM32Cube_FW_F1_V1.8.5/Drivers/STM32F1xx_HAL_Driver/Src\stm32f1xx_hal_flash.c ****   uint32_t flags = 0U;
  68              		.loc 1 914 3 view .LVU8
  69              	.LVL1:
 915:C:/Users/vasil/STM32Cube/Repository/STM32Cube_FW_F1_V1.8.5/Drivers/STM32F1xx_HAL_Driver/Src\stm32f1xx_hal_flash.c ****   
 916:C:/Users/vasil/STM32Cube/Repository/STM32Cube_FW_F1_V1.8.5/Drivers/STM32F1xx_HAL_Driver/Src\stm32f1xx_hal_flash.c **** #if defined(FLASH_BANK2_END)
 917:C:/Users/vasil/STM32Cube/Repository/STM32Cube_FW_F1_V1.8.5/Drivers/STM32F1xx_HAL_Driver/Src\stm32f1xx_hal_flash.c ****   if(__HAL_FLASH_GET_FLAG(FLASH_FLAG_WRPERR) || __HAL_FLASH_GET_FLAG(FLASH_FLAG_WRPERR_BANK2))
 918:C:/Users/vasil/STM32Cube/Repository/STM32Cube_FW_F1_V1.8.5/Drivers/STM32F1xx_HAL_Driver/Src\stm32f1xx_hal_flash.c **** #else
 919:C:/Users/vasil/STM32Cube/Repository/STM32Cube_FW_F1_V1.8.5/Drivers/STM32F1xx_HAL_Driver/Src\stm32f1xx_hal_flash.c ****   if(__HAL_FLASH_GET_FLAG(FLASH_FLAG_WRPERR))
  70              		.loc 1 919 3 view .LVU9
  71              		.loc 1 919 6 is_stmt 0 view .LVU10
  72 0000 194B     		ldr	r3, .L11
  73 0002 DB68     		ldr	r3, [r3, #12]
  74              		.loc 1 919 5 view .LVU11
  75 0004 13F01003 		ands	r3, r3, #16
  76 0008 05D0     		beq	.L5
 920:C:/Users/vasil/STM32Cube/Repository/STM32Cube_FW_F1_V1.8.5/Drivers/STM32F1xx_HAL_Driver/Src\stm32f1xx_hal_flash.c **** #endif /* FLASH_BANK2_END */
 921:C:/Users/vasil/STM32Cube/Repository/STM32Cube_FW_F1_V1.8.5/Drivers/STM32F1xx_HAL_Driver/Src\stm32f1xx_hal_flash.c ****   {
 922:C:/Users/vasil/STM32Cube/Repository/STM32Cube_FW_F1_V1.8.5/Drivers/STM32F1xx_HAL_Driver/Src\stm32f1xx_hal_flash.c ****     pFlash.ErrorCode |= HAL_FLASH_ERROR_WRP;
  77              		.loc 1 922 5 is_stmt 1 view .LVU12
  78              		.loc 1 922 22 is_stmt 0 view .LVU13
  79 000a 184A     		ldr	r2, .L11+4
  80 000c D369     		ldr	r3, [r2, #28]
  81 000e 43F00203 		orr	r3, r3, #2
  82 0012 D361     		str	r3, [r2, #28]
 923:C:/Users/vasil/STM32Cube/Repository/STM32Cube_FW_F1_V1.8.5/Drivers/STM32F1xx_HAL_Driver/Src\stm32f1xx_hal_flash.c **** #if defined(FLASH_BANK2_END)
 924:C:/Users/vasil/STM32Cube/Repository/STM32Cube_FW_F1_V1.8.5/Drivers/STM32F1xx_HAL_Driver/Src\stm32f1xx_hal_flash.c ****     flags |= FLASH_FLAG_WRPERR | FLASH_FLAG_WRPERR_BANK2;
 925:C:/Users/vasil/STM32Cube/Repository/STM32Cube_FW_F1_V1.8.5/Drivers/STM32F1xx_HAL_Driver/Src\stm32f1xx_hal_flash.c **** #else
 926:C:/Users/vasil/STM32Cube/Repository/STM32Cube_FW_F1_V1.8.5/Drivers/STM32F1xx_HAL_Driver/Src\stm32f1xx_hal_flash.c ****     flags |= FLASH_FLAG_WRPERR;
  83              		.loc 1 926 5 is_stmt 1 view .LVU14
  84              	.LVL2:
  85              		.loc 1 926 11 is_stmt 0 view .LVU15
  86 0014 1023     		movs	r3, #16
  87              	.LVL3:
  88              	.L5:
 927:C:/Users/vasil/STM32Cube/Repository/STM32Cube_FW_F1_V1.8.5/Drivers/STM32F1xx_HAL_Driver/Src\stm32f1xx_hal_flash.c **** #endif /* FLASH_BANK2_END */
 928:C:/Users/vasil/STM32Cube/Repository/STM32Cube_FW_F1_V1.8.5/Drivers/STM32F1xx_HAL_Driver/Src\stm32f1xx_hal_flash.c ****   }
 929:C:/Users/vasil/STM32Cube/Repository/STM32Cube_FW_F1_V1.8.5/Drivers/STM32F1xx_HAL_Driver/Src\stm32f1xx_hal_flash.c **** #if defined(FLASH_BANK2_END)
 930:C:/Users/vasil/STM32Cube/Repository/STM32Cube_FW_F1_V1.8.5/Drivers/STM32F1xx_HAL_Driver/Src\stm32f1xx_hal_flash.c ****   if(__HAL_FLASH_GET_FLAG(FLASH_FLAG_PGERR) || __HAL_FLASH_GET_FLAG(FLASH_FLAG_PGERR_BANK2))
 931:C:/Users/vasil/STM32Cube/Repository/STM32Cube_FW_F1_V1.8.5/Drivers/STM32F1xx_HAL_Driver/Src\stm32f1xx_hal_flash.c **** #else
 932:C:/Users/vasil/STM32Cube/Repository/STM32Cube_FW_F1_V1.8.5/Drivers/STM32F1xx_HAL_Driver/Src\stm32f1xx_hal_flash.c ****   if(__HAL_FLASH_GET_FLAG(FLASH_FLAG_PGERR))
  89              		.loc 1 932 3 is_stmt 1 view .LVU16
  90              		.loc 1 932 6 is_stmt 0 view .LVU17
  91 0016 144A     		ldr	r2, .L11
  92 0018 D268     		ldr	r2, [r2, #12]
  93              		.loc 1 932 5 view .LVU18
  94 001a 12F0040F 		tst	r2, #4
  95 001e 06D0     		beq	.L6
 933:C:/Users/vasil/STM32Cube/Repository/STM32Cube_FW_F1_V1.8.5/Drivers/STM32F1xx_HAL_Driver/Src\stm32f1xx_hal_flash.c **** #endif /* FLASH_BANK2_END */
 934:C:/Users/vasil/STM32Cube/Repository/STM32Cube_FW_F1_V1.8.5/Drivers/STM32F1xx_HAL_Driver/Src\stm32f1xx_hal_flash.c ****   {
ARM GAS  C:\Users\vasil\AppData\Local\Temp\ccvloAs2.s 			page 19


 935:C:/Users/vasil/STM32Cube/Repository/STM32Cube_FW_F1_V1.8.5/Drivers/STM32F1xx_HAL_Driver/Src\stm32f1xx_hal_flash.c ****     pFlash.ErrorCode |= HAL_FLASH_ERROR_PROG;
  96              		.loc 1 935 5 is_stmt 1 view .LVU19
  97              		.loc 1 935 22 is_stmt 0 view .LVU20
  98 0020 1249     		ldr	r1, .L11+4
  99 0022 CA69     		ldr	r2, [r1, #28]
 100 0024 42F00102 		orr	r2, r2, #1
 101 0028 CA61     		str	r2, [r1, #28]
 936:C:/Users/vasil/STM32Cube/Repository/STM32Cube_FW_F1_V1.8.5/Drivers/STM32F1xx_HAL_Driver/Src\stm32f1xx_hal_flash.c **** #if defined(FLASH_BANK2_END)
 937:C:/Users/vasil/STM32Cube/Repository/STM32Cube_FW_F1_V1.8.5/Drivers/STM32F1xx_HAL_Driver/Src\stm32f1xx_hal_flash.c ****     flags |= FLASH_FLAG_PGERR | FLASH_FLAG_PGERR_BANK2;
 938:C:/Users/vasil/STM32Cube/Repository/STM32Cube_FW_F1_V1.8.5/Drivers/STM32F1xx_HAL_Driver/Src\stm32f1xx_hal_flash.c **** #else
 939:C:/Users/vasil/STM32Cube/Repository/STM32Cube_FW_F1_V1.8.5/Drivers/STM32F1xx_HAL_Driver/Src\stm32f1xx_hal_flash.c ****     flags |= FLASH_FLAG_PGERR;
 102              		.loc 1 939 5 is_stmt 1 view .LVU21
 103              		.loc 1 939 11 is_stmt 0 view .LVU22
 104 002a 43F00403 		orr	r3, r3, #4
 105              	.LVL4:
 106              	.L6:
 940:C:/Users/vasil/STM32Cube/Repository/STM32Cube_FW_F1_V1.8.5/Drivers/STM32F1xx_HAL_Driver/Src\stm32f1xx_hal_flash.c **** #endif /* FLASH_BANK2_END */
 941:C:/Users/vasil/STM32Cube/Repository/STM32Cube_FW_F1_V1.8.5/Drivers/STM32F1xx_HAL_Driver/Src\stm32f1xx_hal_flash.c ****   }
 942:C:/Users/vasil/STM32Cube/Repository/STM32Cube_FW_F1_V1.8.5/Drivers/STM32F1xx_HAL_Driver/Src\stm32f1xx_hal_flash.c ****   if(__HAL_FLASH_GET_FLAG(FLASH_FLAG_OPTVERR))
 107              		.loc 1 942 3 is_stmt 1 view .LVU23
 108              		.loc 1 942 6 is_stmt 0 view .LVU24
 109 002e 0E4A     		ldr	r2, .L11
 110 0030 D269     		ldr	r2, [r2, #28]
 111              		.loc 1 942 5 view .LVU25
 112 0032 12F0010F 		tst	r2, #1
 113 0036 09D0     		beq	.L7
 943:C:/Users/vasil/STM32Cube/Repository/STM32Cube_FW_F1_V1.8.5/Drivers/STM32F1xx_HAL_Driver/Src\stm32f1xx_hal_flash.c ****   {
 944:C:/Users/vasil/STM32Cube/Repository/STM32Cube_FW_F1_V1.8.5/Drivers/STM32F1xx_HAL_Driver/Src\stm32f1xx_hal_flash.c ****     pFlash.ErrorCode |= HAL_FLASH_ERROR_OPTV;
 114              		.loc 1 944 5 is_stmt 1 view .LVU26
 115              		.loc 1 944 22 is_stmt 0 view .LVU27
 116 0038 0C49     		ldr	r1, .L11+4
 117 003a CA69     		ldr	r2, [r1, #28]
 118 003c 42F00402 		orr	r2, r2, #4
 119 0040 CA61     		str	r2, [r1, #28]
 945:C:/Users/vasil/STM32Cube/Repository/STM32Cube_FW_F1_V1.8.5/Drivers/STM32F1xx_HAL_Driver/Src\stm32f1xx_hal_flash.c ****   __HAL_FLASH_CLEAR_FLAG(FLASH_FLAG_OPTVERR);
 120              		.loc 1 945 3 is_stmt 1 view .LVU28
 121              		.loc 1 945 3 view .LVU29
 122              		.loc 1 945 3 view .LVU30
 123 0042 0949     		ldr	r1, .L11
 124 0044 CA69     		ldr	r2, [r1, #28]
 125 0046 22F00102 		bic	r2, r2, #1
 126 004a CA61     		str	r2, [r1, #28]
 127              	.L7:
 128              		.loc 1 945 3 discriminator 4 view .LVU31
 946:C:/Users/vasil/STM32Cube/Repository/STM32Cube_FW_F1_V1.8.5/Drivers/STM32F1xx_HAL_Driver/Src\stm32f1xx_hal_flash.c ****   }
 947:C:/Users/vasil/STM32Cube/Repository/STM32Cube_FW_F1_V1.8.5/Drivers/STM32F1xx_HAL_Driver/Src\stm32f1xx_hal_flash.c **** 
 948:C:/Users/vasil/STM32Cube/Repository/STM32Cube_FW_F1_V1.8.5/Drivers/STM32F1xx_HAL_Driver/Src\stm32f1xx_hal_flash.c ****   /* Clear FLASH error pending bits */
 949:C:/Users/vasil/STM32Cube/Repository/STM32Cube_FW_F1_V1.8.5/Drivers/STM32F1xx_HAL_Driver/Src\stm32f1xx_hal_flash.c ****   __HAL_FLASH_CLEAR_FLAG(flags);
 129              		.loc 1 949 3 discriminator 4 view .LVU32
 130              		.loc 1 949 3 discriminator 4 view .LVU33
 131 004c 40F20112 		movw	r2, #257
 132 0050 9342     		cmp	r3, r2
 133 0052 02D0     		beq	.L10
 134              		.loc 1 949 3 discriminator 2 view .LVU34
 135 0054 044A     		ldr	r2, .L11
 136 0056 D360     		str	r3, [r2, #12]
 137              		.loc 1 949 3 discriminator 2 view .LVU35
ARM GAS  C:\Users\vasil\AppData\Local\Temp\ccvloAs2.s 			page 20


 950:C:/Users/vasil/STM32Cube/Repository/STM32Cube_FW_F1_V1.8.5/Drivers/STM32F1xx_HAL_Driver/Src\stm32f1xx_hal_flash.c **** }  
 138              		.loc 1 950 1 is_stmt 0 discriminator 2 view .LVU36
 139 0058 7047     		bx	lr
 140              	.L10:
 949:C:/Users/vasil/STM32Cube/Repository/STM32Cube_FW_F1_V1.8.5/Drivers/STM32F1xx_HAL_Driver/Src\stm32f1xx_hal_flash.c **** }  
 141              		.loc 1 949 3 is_stmt 1 discriminator 1 view .LVU37
 142 005a 034A     		ldr	r2, .L11
 143 005c D369     		ldr	r3, [r2, #28]
 144              	.LVL5:
 949:C:/Users/vasil/STM32Cube/Repository/STM32Cube_FW_F1_V1.8.5/Drivers/STM32F1xx_HAL_Driver/Src\stm32f1xx_hal_flash.c **** }  
 145              		.loc 1 949 3 is_stmt 0 discriminator 1 view .LVU38
 146 005e 23F00103 		bic	r3, r3, #1
 147 0062 D361     		str	r3, [r2, #28]
 148 0064 7047     		bx	lr
 149              	.L12:
 150 0066 00BF     		.align	2
 151              	.L11:
 152 0068 00200240 		.word	1073881088
 153 006c 00000000 		.word	.LANCHOR0
 154              		.cfi_endproc
 155              	.LFE78:
 157              		.section	.text.HAL_FLASH_Program_IT,"ax",%progbits
 158              		.align	1
 159              		.global	HAL_FLASH_Program_IT
 160              		.syntax unified
 161              		.thumb
 162              		.thumb_func
 164              	HAL_FLASH_Program_IT:
 165              	.LVL6:
 166              	.LFB66:
 266:C:/Users/vasil/STM32Cube/Repository/STM32Cube_FW_F1_V1.8.5/Drivers/STM32F1xx_HAL_Driver/Src\stm32f1xx_hal_flash.c ****   HAL_StatusTypeDef status = HAL_OK;
 167              		.loc 1 266 1 is_stmt 1 view -0
 168              		.cfi_startproc
 169              		@ args = 0, pretend = 0, frame = 0
 170              		@ frame_needed = 0, uses_anonymous_args = 0
 266:C:/Users/vasil/STM32Cube/Repository/STM32Cube_FW_F1_V1.8.5/Drivers/STM32F1xx_HAL_Driver/Src\stm32f1xx_hal_flash.c ****   HAL_StatusTypeDef status = HAL_OK;
 171              		.loc 1 266 1 is_stmt 0 view .LVU40
 172 0000 38B5     		push	{r3, r4, r5, lr}
 173              		.cfi_def_cfa_offset 16
 174              		.cfi_offset 3, -16
 175              		.cfi_offset 4, -12
 176              		.cfi_offset 5, -8
 177              		.cfi_offset 14, -4
 178 0002 1D46     		mov	r5, r3
 267:C:/Users/vasil/STM32Cube/Repository/STM32Cube_FW_F1_V1.8.5/Drivers/STM32F1xx_HAL_Driver/Src\stm32f1xx_hal_flash.c ****   
 179              		.loc 1 267 3 is_stmt 1 view .LVU41
 180              	.LVL7:
 270:C:/Users/vasil/STM32Cube/Repository/STM32Cube_FW_F1_V1.8.5/Drivers/STM32F1xx_HAL_Driver/Src\stm32f1xx_hal_flash.c **** 
 181              		.loc 1 270 3 view .LVU42
 270:C:/Users/vasil/STM32Cube/Repository/STM32Cube_FW_F1_V1.8.5/Drivers/STM32F1xx_HAL_Driver/Src\stm32f1xx_hal_flash.c **** 
 182              		.loc 1 270 3 view .LVU43
 183 0004 174B     		ldr	r3, .L22
 184 0006 1B7E     		ldrb	r3, [r3, #24]	@ zero_extendqisi2
 185 0008 012B     		cmp	r3, #1
 186 000a 28D0     		beq	.L18
 187 000c 8446     		mov	ip, r0
 188 000e 0846     		mov	r0, r1
ARM GAS  C:\Users\vasil\AppData\Local\Temp\ccvloAs2.s 			page 21


 189              	.LVL8:
 270:C:/Users/vasil/STM32Cube/Repository/STM32Cube_FW_F1_V1.8.5/Drivers/STM32F1xx_HAL_Driver/Src\stm32f1xx_hal_flash.c **** 
 190              		.loc 1 270 3 is_stmt 0 view .LVU44
 191 0010 1446     		mov	r4, r2
 270:C:/Users/vasil/STM32Cube/Repository/STM32Cube_FW_F1_V1.8.5/Drivers/STM32F1xx_HAL_Driver/Src\stm32f1xx_hal_flash.c **** 
 192              		.loc 1 270 3 is_stmt 1 discriminator 2 view .LVU45
 193 0012 144B     		ldr	r3, .L22
 194 0014 0122     		movs	r2, #1
 195              	.LVL9:
 270:C:/Users/vasil/STM32Cube/Repository/STM32Cube_FW_F1_V1.8.5/Drivers/STM32F1xx_HAL_Driver/Src\stm32f1xx_hal_flash.c **** 
 196              		.loc 1 270 3 is_stmt 0 discriminator 2 view .LVU46
 197 0016 1A76     		strb	r2, [r3, #24]
 270:C:/Users/vasil/STM32Cube/Repository/STM32Cube_FW_F1_V1.8.5/Drivers/STM32F1xx_HAL_Driver/Src\stm32f1xx_hal_flash.c **** 
 198              		.loc 1 270 3 is_stmt 1 discriminator 2 view .LVU47
 273:C:/Users/vasil/STM32Cube/Repository/STM32Cube_FW_F1_V1.8.5/Drivers/STM32F1xx_HAL_Driver/Src\stm32f1xx_hal_flash.c ****   assert_param(IS_FLASH_PROGRAM_ADDRESS(Address));
 199              		.loc 1 273 3 discriminator 2 view .LVU48
 274:C:/Users/vasil/STM32Cube/Repository/STM32Cube_FW_F1_V1.8.5/Drivers/STM32F1xx_HAL_Driver/Src\stm32f1xx_hal_flash.c **** 
 200              		.loc 1 274 3 discriminator 2 view .LVU49
 295:C:/Users/vasil/STM32Cube/Repository/STM32Cube_FW_F1_V1.8.5/Drivers/STM32F1xx_HAL_Driver/Src\stm32f1xx_hal_flash.c **** #endif /* FLASH_BANK2_END */
 201              		.loc 1 295 3 discriminator 2 view .LVU50
 202 0018 1349     		ldr	r1, .L22+4
 203              	.LVL10:
 295:C:/Users/vasil/STM32Cube/Repository/STM32Cube_FW_F1_V1.8.5/Drivers/STM32F1xx_HAL_Driver/Src\stm32f1xx_hal_flash.c **** #endif /* FLASH_BANK2_END */
 204              		.loc 1 295 3 is_stmt 0 discriminator 2 view .LVU51
 205 001a 0A69     		ldr	r2, [r1, #16]
 206 001c 42F4A052 		orr	r2, r2, #5120
 207 0020 0A61     		str	r2, [r1, #16]
 298:C:/Users/vasil/STM32Cube/Repository/STM32Cube_FW_F1_V1.8.5/Drivers/STM32F1xx_HAL_Driver/Src\stm32f1xx_hal_flash.c ****   pFlash.Data = Data;
 208              		.loc 1 298 3 is_stmt 1 discriminator 2 view .LVU52
 298:C:/Users/vasil/STM32Cube/Repository/STM32Cube_FW_F1_V1.8.5/Drivers/STM32F1xx_HAL_Driver/Src\stm32f1xx_hal_flash.c ****   pFlash.Data = Data;
 209              		.loc 1 298 18 is_stmt 0 discriminator 2 view .LVU53
 210 0022 9860     		str	r0, [r3, #8]
 299:C:/Users/vasil/STM32Cube/Repository/STM32Cube_FW_F1_V1.8.5/Drivers/STM32F1xx_HAL_Driver/Src\stm32f1xx_hal_flash.c **** 
 211              		.loc 1 299 3 is_stmt 1 discriminator 2 view .LVU54
 299:C:/Users/vasil/STM32Cube/Repository/STM32Cube_FW_F1_V1.8.5/Drivers/STM32F1xx_HAL_Driver/Src\stm32f1xx_hal_flash.c **** 
 212              		.loc 1 299 15 is_stmt 0 discriminator 2 view .LVU55
 213 0024 C3E90445 		strd	r4, [r3, #16]
 301:C:/Users/vasil/STM32Cube/Repository/STM32Cube_FW_F1_V1.8.5/Drivers/STM32F1xx_HAL_Driver/Src\stm32f1xx_hal_flash.c ****   {
 214              		.loc 1 301 3 is_stmt 1 discriminator 2 view .LVU56
 301:C:/Users/vasil/STM32Cube/Repository/STM32Cube_FW_F1_V1.8.5/Drivers/STM32F1xx_HAL_Driver/Src\stm32f1xx_hal_flash.c ****   {
 215              		.loc 1 301 5 is_stmt 0 discriminator 2 view .LVU57
 216 0028 BCF1010F 		cmp	ip, #1
 217 002c 0CD0     		beq	.L20
 307:C:/Users/vasil/STM32Cube/Repository/STM32Cube_FW_F1_V1.8.5/Drivers/STM32F1xx_HAL_Driver/Src\stm32f1xx_hal_flash.c ****   {
 218              		.loc 1 307 8 is_stmt 1 view .LVU58
 307:C:/Users/vasil/STM32Cube/Repository/STM32Cube_FW_F1_V1.8.5/Drivers/STM32F1xx_HAL_Driver/Src\stm32f1xx_hal_flash.c ****   {
 219              		.loc 1 307 10 is_stmt 0 view .LVU59
 220 002e BCF1020F 		cmp	ip, #2
 221 0032 0ED0     		beq	.L21
 315:C:/Users/vasil/STM32Cube/Repository/STM32Cube_FW_F1_V1.8.5/Drivers/STM32F1xx_HAL_Driver/Src\stm32f1xx_hal_flash.c ****     /* Program double word (64-bit : 4*16-bit) at a specified address. */
 222              		.loc 1 315 5 is_stmt 1 view .LVU60
 315:C:/Users/vasil/STM32Cube/Repository/STM32Cube_FW_F1_V1.8.5/Drivers/STM32F1xx_HAL_Driver/Src\stm32f1xx_hal_flash.c ****     /* Program double word (64-bit : 4*16-bit) at a specified address. */
 223              		.loc 1 315 29 is_stmt 0 view .LVU61
 224 0034 0B4B     		ldr	r3, .L22
 225 0036 0522     		movs	r2, #5
 226 0038 1A70     		strb	r2, [r3]
 317:C:/Users/vasil/STM32Cube/Repository/STM32Cube_FW_F1_V1.8.5/Drivers/STM32F1xx_HAL_Driver/Src\stm32f1xx_hal_flash.c ****   }
ARM GAS  C:\Users\vasil\AppData\Local\Temp\ccvloAs2.s 			page 22


 227              		.loc 1 317 5 is_stmt 1 view .LVU62
 317:C:/Users/vasil/STM32Cube/Repository/STM32Cube_FW_F1_V1.8.5/Drivers/STM32F1xx_HAL_Driver/Src\stm32f1xx_hal_flash.c ****   }
 228              		.loc 1 317 26 is_stmt 0 view .LVU63
 229 003a 0422     		movs	r2, #4
 230 003c 5A60     		str	r2, [r3, #4]
 231              	.L16:
 321:C:/Users/vasil/STM32Cube/Repository/STM32Cube_FW_F1_V1.8.5/Drivers/STM32F1xx_HAL_Driver/Src\stm32f1xx_hal_flash.c **** 
 232              		.loc 1 321 3 is_stmt 1 view .LVU64
 233 003e A1B2     		uxth	r1, r4
 234 0040 FFF7FEFF 		bl	FLASH_Program_HalfWord
 235              	.LVL11:
 323:C:/Users/vasil/STM32Cube/Repository/STM32Cube_FW_F1_V1.8.5/Drivers/STM32F1xx_HAL_Driver/Src\stm32f1xx_hal_flash.c **** }
 236              		.loc 1 323 3 view .LVU65
 323:C:/Users/vasil/STM32Cube/Repository/STM32Cube_FW_F1_V1.8.5/Drivers/STM32F1xx_HAL_Driver/Src\stm32f1xx_hal_flash.c **** }
 237              		.loc 1 323 10 is_stmt 0 view .LVU66
 238 0044 0020     		movs	r0, #0
 239              	.L14:
 324:C:/Users/vasil/STM32Cube/Repository/STM32Cube_FW_F1_V1.8.5/Drivers/STM32F1xx_HAL_Driver/Src\stm32f1xx_hal_flash.c **** 
 240              		.loc 1 324 1 view .LVU67
 241 0046 38BD     		pop	{r3, r4, r5, pc}
 242              	.LVL12:
 243              	.L20:
 303:C:/Users/vasil/STM32Cube/Repository/STM32Cube_FW_F1_V1.8.5/Drivers/STM32F1xx_HAL_Driver/Src\stm32f1xx_hal_flash.c ****     /* Program halfword (16-bit) at a specified address. */
 244              		.loc 1 303 5 is_stmt 1 view .LVU68
 303:C:/Users/vasil/STM32Cube/Repository/STM32Cube_FW_F1_V1.8.5/Drivers/STM32F1xx_HAL_Driver/Src\stm32f1xx_hal_flash.c ****     /* Program halfword (16-bit) at a specified address. */
 245              		.loc 1 303 29 is_stmt 0 view .LVU69
 246 0048 0322     		movs	r2, #3
 247 004a 1A70     		strb	r2, [r3]
 305:C:/Users/vasil/STM32Cube/Repository/STM32Cube_FW_F1_V1.8.5/Drivers/STM32F1xx_HAL_Driver/Src\stm32f1xx_hal_flash.c ****   }
 248              		.loc 1 305 5 is_stmt 1 view .LVU70
 305:C:/Users/vasil/STM32Cube/Repository/STM32Cube_FW_F1_V1.8.5/Drivers/STM32F1xx_HAL_Driver/Src\stm32f1xx_hal_flash.c ****   }
 249              		.loc 1 305 26 is_stmt 0 view .LVU71
 250 004c 0122     		movs	r2, #1
 251 004e 5A60     		str	r2, [r3, #4]
 252 0050 F5E7     		b	.L16
 253              	.L21:
 309:C:/Users/vasil/STM32Cube/Repository/STM32Cube_FW_F1_V1.8.5/Drivers/STM32F1xx_HAL_Driver/Src\stm32f1xx_hal_flash.c ****     /* Program word (32-bit : 2*16-bit) at a specified address. */
 254              		.loc 1 309 5 is_stmt 1 view .LVU72
 309:C:/Users/vasil/STM32Cube/Repository/STM32Cube_FW_F1_V1.8.5/Drivers/STM32F1xx_HAL_Driver/Src\stm32f1xx_hal_flash.c ****     /* Program word (32-bit : 2*16-bit) at a specified address. */
 255              		.loc 1 309 29 is_stmt 0 view .LVU73
 256 0052 044B     		ldr	r3, .L22
 257 0054 0422     		movs	r2, #4
 258 0056 1A70     		strb	r2, [r3]
 311:C:/Users/vasil/STM32Cube/Repository/STM32Cube_FW_F1_V1.8.5/Drivers/STM32F1xx_HAL_Driver/Src\stm32f1xx_hal_flash.c ****   }
 259              		.loc 1 311 5 is_stmt 1 view .LVU74
 311:C:/Users/vasil/STM32Cube/Repository/STM32Cube_FW_F1_V1.8.5/Drivers/STM32F1xx_HAL_Driver/Src\stm32f1xx_hal_flash.c ****   }
 260              		.loc 1 311 26 is_stmt 0 view .LVU75
 261 0058 0222     		movs	r2, #2
 262 005a 5A60     		str	r2, [r3, #4]
 263 005c EFE7     		b	.L16
 264              	.LVL13:
 265              	.L18:
 270:C:/Users/vasil/STM32Cube/Repository/STM32Cube_FW_F1_V1.8.5/Drivers/STM32F1xx_HAL_Driver/Src\stm32f1xx_hal_flash.c **** 
 266              		.loc 1 270 3 view .LVU76
 267 005e 0220     		movs	r0, #2
 268              	.LVL14:
 270:C:/Users/vasil/STM32Cube/Repository/STM32Cube_FW_F1_V1.8.5/Drivers/STM32F1xx_HAL_Driver/Src\stm32f1xx_hal_flash.c **** 
ARM GAS  C:\Users\vasil\AppData\Local\Temp\ccvloAs2.s 			page 23


 269              		.loc 1 270 3 view .LVU77
 270 0060 F1E7     		b	.L14
 271              	.L23:
 272 0062 00BF     		.align	2
 273              	.L22:
 274 0064 00000000 		.word	.LANCHOR0
 275 0068 00200240 		.word	1073881088
 276              		.cfi_endproc
 277              	.LFE66:
 279              		.section	.text.HAL_FLASH_EndOfOperationCallback,"ax",%progbits
 280              		.align	1
 281              		.weak	HAL_FLASH_EndOfOperationCallback
 282              		.syntax unified
 283              		.thumb
 284              		.thumb_func
 286              	HAL_FLASH_EndOfOperationCallback:
 287              	.LVL15:
 288              	.LFB68:
 605:C:/Users/vasil/STM32Cube/Repository/STM32Cube_FW_F1_V1.8.5/Drivers/STM32F1xx_HAL_Driver/Src\stm32f1xx_hal_flash.c ****   /* Prevent unused argument(s) compilation warning */
 289              		.loc 1 605 1 is_stmt 1 view -0
 290              		.cfi_startproc
 291              		@ args = 0, pretend = 0, frame = 0
 292              		@ frame_needed = 0, uses_anonymous_args = 0
 293              		@ link register save eliminated.
 607:C:/Users/vasil/STM32Cube/Repository/STM32Cube_FW_F1_V1.8.5/Drivers/STM32F1xx_HAL_Driver/Src\stm32f1xx_hal_flash.c **** 
 294              		.loc 1 607 3 view .LVU79
 612:C:/Users/vasil/STM32Cube/Repository/STM32Cube_FW_F1_V1.8.5/Drivers/STM32F1xx_HAL_Driver/Src\stm32f1xx_hal_flash.c **** 
 295              		.loc 1 612 1 is_stmt 0 view .LVU80
 296 0000 7047     		bx	lr
 297              		.cfi_endproc
 298              	.LFE68:
 300              		.section	.text.HAL_FLASH_OperationErrorCallback,"ax",%progbits
 301              		.align	1
 302              		.weak	HAL_FLASH_OperationErrorCallback
 303              		.syntax unified
 304              		.thumb
 305              		.thumb_func
 307              	HAL_FLASH_OperationErrorCallback:
 308              	.LVL16:
 309              	.LFB69:
 623:C:/Users/vasil/STM32Cube/Repository/STM32Cube_FW_F1_V1.8.5/Drivers/STM32F1xx_HAL_Driver/Src\stm32f1xx_hal_flash.c ****   /* Prevent unused argument(s) compilation warning */
 310              		.loc 1 623 1 is_stmt 1 view -0
 311              		.cfi_startproc
 312              		@ args = 0, pretend = 0, frame = 0
 313              		@ frame_needed = 0, uses_anonymous_args = 0
 314              		@ link register save eliminated.
 625:C:/Users/vasil/STM32Cube/Repository/STM32Cube_FW_F1_V1.8.5/Drivers/STM32F1xx_HAL_Driver/Src\stm32f1xx_hal_flash.c **** 
 315              		.loc 1 625 3 view .LVU82
 630:C:/Users/vasil/STM32Cube/Repository/STM32Cube_FW_F1_V1.8.5/Drivers/STM32F1xx_HAL_Driver/Src\stm32f1xx_hal_flash.c **** 
 316              		.loc 1 630 1 is_stmt 0 view .LVU83
 317 0000 7047     		bx	lr
 318              		.cfi_endproc
 319              	.LFE69:
 321              		.section	.text.HAL_FLASH_IRQHandler,"ax",%progbits
 322              		.align	1
 323              		.global	HAL_FLASH_IRQHandler
 324              		.syntax unified
ARM GAS  C:\Users\vasil\AppData\Local\Temp\ccvloAs2.s 			page 24


 325              		.thumb
 326              		.thumb_func
 328              	HAL_FLASH_IRQHandler:
 329              	.LFB67:
 331:C:/Users/vasil/STM32Cube/Repository/STM32Cube_FW_F1_V1.8.5/Drivers/STM32F1xx_HAL_Driver/Src\stm32f1xx_hal_flash.c ****   uint32_t addresstmp = 0U;
 330              		.loc 1 331 1 is_stmt 1 view -0
 331              		.cfi_startproc
 332              		@ args = 0, pretend = 0, frame = 0
 333              		@ frame_needed = 0, uses_anonymous_args = 0
 334 0000 F8B5     		push	{r3, r4, r5, r6, r7, lr}
 335              		.cfi_def_cfa_offset 24
 336              		.cfi_offset 3, -24
 337              		.cfi_offset 4, -20
 338              		.cfi_offset 5, -16
 339              		.cfi_offset 6, -12
 340              		.cfi_offset 7, -8
 341              		.cfi_offset 14, -4
 332:C:/Users/vasil/STM32Cube/Repository/STM32Cube_FW_F1_V1.8.5/Drivers/STM32F1xx_HAL_Driver/Src\stm32f1xx_hal_flash.c ****   
 342              		.loc 1 332 3 view .LVU85
 343              	.LVL17:
 339:C:/Users/vasil/STM32Cube/Repository/STM32Cube_FW_F1_V1.8.5/Drivers/STM32F1xx_HAL_Driver/Src\stm32f1xx_hal_flash.c **** #endif /* FLASH_BANK2_END */
 344              		.loc 1 339 3 view .LVU86
 339:C:/Users/vasil/STM32Cube/Repository/STM32Cube_FW_F1_V1.8.5/Drivers/STM32F1xx_HAL_Driver/Src\stm32f1xx_hal_flash.c **** #endif /* FLASH_BANK2_END */
 345              		.loc 1 339 6 is_stmt 0 view .LVU87
 346 0002 524B     		ldr	r3, .L44
 347 0004 DB68     		ldr	r3, [r3, #12]
 339:C:/Users/vasil/STM32Cube/Repository/STM32Cube_FW_F1_V1.8.5/Drivers/STM32F1xx_HAL_Driver/Src\stm32f1xx_hal_flash.c **** #endif /* FLASH_BANK2_END */
 348              		.loc 1 339 5 view .LVU88
 349 0006 13F0100F 		tst	r3, #16
 350 000a 04D1     		bne	.L27
 339:C:/Users/vasil/STM32Cube/Repository/STM32Cube_FW_F1_V1.8.5/Drivers/STM32F1xx_HAL_Driver/Src\stm32f1xx_hal_flash.c **** #endif /* FLASH_BANK2_END */
 351              		.loc 1 339 48 discriminator 1 view .LVU89
 352 000c 4F4B     		ldr	r3, .L44
 353 000e DB68     		ldr	r3, [r3, #12]
 339:C:/Users/vasil/STM32Cube/Repository/STM32Cube_FW_F1_V1.8.5/Drivers/STM32F1xx_HAL_Driver/Src\stm32f1xx_hal_flash.c **** #endif /* FLASH_BANK2_END */
 354              		.loc 1 339 46 discriminator 1 view .LVU90
 355 0010 13F0040F 		tst	r3, #4
 356 0014 0BD0     		beq	.L28
 357              	.L27:
 343:C:/Users/vasil/STM32Cube/Repository/STM32Cube_FW_F1_V1.8.5/Drivers/STM32F1xx_HAL_Driver/Src\stm32f1xx_hal_flash.c ****     /* Reset address */
 358              		.loc 1 343 5 is_stmt 1 view .LVU91
 343:C:/Users/vasil/STM32Cube/Repository/STM32Cube_FW_F1_V1.8.5/Drivers/STM32F1xx_HAL_Driver/Src\stm32f1xx_hal_flash.c ****     /* Reset address */
 359              		.loc 1 343 16 is_stmt 0 view .LVU92
 360 0016 4E4C     		ldr	r4, .L44+4
 361 0018 A568     		ldr	r5, [r4, #8]
 362              	.LVL18:
 345:C:/Users/vasil/STM32Cube/Repository/STM32Cube_FW_F1_V1.8.5/Drivers/STM32F1xx_HAL_Driver/Src\stm32f1xx_hal_flash.c ****   
 363              		.loc 1 345 5 is_stmt 1 view .LVU93
 345:C:/Users/vasil/STM32Cube/Repository/STM32Cube_FW_F1_V1.8.5/Drivers/STM32F1xx_HAL_Driver/Src\stm32f1xx_hal_flash.c ****   
 364              		.loc 1 345 20 is_stmt 0 view .LVU94
 365 001a 4FF0FF33 		mov	r3, #-1
 366 001e A360     		str	r3, [r4, #8]
 348:C:/Users/vasil/STM32Cube/Repository/STM32Cube_FW_F1_V1.8.5/Drivers/STM32F1xx_HAL_Driver/Src\stm32f1xx_hal_flash.c ****     
 367              		.loc 1 348 5 is_stmt 1 view .LVU95
 368 0020 FFF7FEFF 		bl	FLASH_SetErrorCode
 369              	.LVL19:
 351:C:/Users/vasil/STM32Cube/Repository/STM32Cube_FW_F1_V1.8.5/Drivers/STM32F1xx_HAL_Driver/Src\stm32f1xx_hal_flash.c **** 
ARM GAS  C:\Users\vasil\AppData\Local\Temp\ccvloAs2.s 			page 25


 370              		.loc 1 351 5 view .LVU96
 371 0024 2846     		mov	r0, r5
 372 0026 FFF7FEFF 		bl	HAL_FLASH_OperationErrorCallback
 373              	.LVL20:
 354:C:/Users/vasil/STM32Cube/Repository/STM32Cube_FW_F1_V1.8.5/Drivers/STM32F1xx_HAL_Driver/Src\stm32f1xx_hal_flash.c ****   }
 374              		.loc 1 354 5 view .LVU97
 354:C:/Users/vasil/STM32Cube/Repository/STM32Cube_FW_F1_V1.8.5/Drivers/STM32F1xx_HAL_Driver/Src\stm32f1xx_hal_flash.c ****   }
 375              		.loc 1 354 29 is_stmt 0 view .LVU98
 376 002a 0023     		movs	r3, #0
 377 002c 2370     		strb	r3, [r4]
 378              	.LVL21:
 379              	.L28:
 364:C:/Users/vasil/STM32Cube/Repository/STM32Cube_FW_F1_V1.8.5/Drivers/STM32F1xx_HAL_Driver/Src\stm32f1xx_hal_flash.c ****   {
 380              		.loc 1 364 3 is_stmt 1 view .LVU99
 364:C:/Users/vasil/STM32Cube/Repository/STM32Cube_FW_F1_V1.8.5/Drivers/STM32F1xx_HAL_Driver/Src\stm32f1xx_hal_flash.c ****   {
 381              		.loc 1 364 6 is_stmt 0 view .LVU100
 382 002e 474B     		ldr	r3, .L44
 383 0030 DB68     		ldr	r3, [r3, #12]
 364:C:/Users/vasil/STM32Cube/Repository/STM32Cube_FW_F1_V1.8.5/Drivers/STM32F1xx_HAL_Driver/Src\stm32f1xx_hal_flash.c ****   {
 384              		.loc 1 364 5 view .LVU101
 385 0032 13F0200F 		tst	r3, #32
 386 0036 2BD0     		beq	.L29
 367:C:/Users/vasil/STM32Cube/Repository/STM32Cube_FW_F1_V1.8.5/Drivers/STM32F1xx_HAL_Driver/Src\stm32f1xx_hal_flash.c **** #endif /* FLASH_BANK2_END */
 387              		.loc 1 367 5 is_stmt 1 discriminator 2 view .LVU102
 367:C:/Users/vasil/STM32Cube/Repository/STM32Cube_FW_F1_V1.8.5/Drivers/STM32F1xx_HAL_Driver/Src\stm32f1xx_hal_flash.c **** #endif /* FLASH_BANK2_END */
 388              		.loc 1 367 5 discriminator 2 view .LVU103
 367:C:/Users/vasil/STM32Cube/Repository/STM32Cube_FW_F1_V1.8.5/Drivers/STM32F1xx_HAL_Driver/Src\stm32f1xx_hal_flash.c **** #endif /* FLASH_BANK2_END */
 389              		.loc 1 367 5 discriminator 2 view .LVU104
 390 0038 444B     		ldr	r3, .L44
 391 003a 2022     		movs	r2, #32
 392 003c DA60     		str	r2, [r3, #12]
 367:C:/Users/vasil/STM32Cube/Repository/STM32Cube_FW_F1_V1.8.5/Drivers/STM32F1xx_HAL_Driver/Src\stm32f1xx_hal_flash.c **** #endif /* FLASH_BANK2_END */
 393              		.loc 1 367 5 discriminator 2 view .LVU105
 371:C:/Users/vasil/STM32Cube/Repository/STM32Cube_FW_F1_V1.8.5/Drivers/STM32F1xx_HAL_Driver/Src\stm32f1xx_hal_flash.c ****     {
 394              		.loc 1 371 5 discriminator 2 view .LVU106
 371:C:/Users/vasil/STM32Cube/Repository/STM32Cube_FW_F1_V1.8.5/Drivers/STM32F1xx_HAL_Driver/Src\stm32f1xx_hal_flash.c ****     {
 395              		.loc 1 371 14 is_stmt 0 discriminator 2 view .LVU107
 396 003e 444B     		ldr	r3, .L44+4
 397 0040 1B78     		ldrb	r3, [r3]	@ zero_extendqisi2
 371:C:/Users/vasil/STM32Cube/Repository/STM32Cube_FW_F1_V1.8.5/Drivers/STM32F1xx_HAL_Driver/Src\stm32f1xx_hal_flash.c ****     {
 398              		.loc 1 371 7 discriminator 2 view .LVU108
 399 0042 2BB3     		cbz	r3, .L29
 373:C:/Users/vasil/STM32Cube/Repository/STM32Cube_FW_F1_V1.8.5/Drivers/STM32F1xx_HAL_Driver/Src\stm32f1xx_hal_flash.c ****       {
 400              		.loc 1 373 7 is_stmt 1 view .LVU109
 373:C:/Users/vasil/STM32Cube/Repository/STM32Cube_FW_F1_V1.8.5/Drivers/STM32F1xx_HAL_Driver/Src\stm32f1xx_hal_flash.c ****       {
 401              		.loc 1 373 16 is_stmt 0 view .LVU110
 402 0044 424B     		ldr	r3, .L44+4
 403 0046 1B78     		ldrb	r3, [r3]	@ zero_extendqisi2
 404 0048 DBB2     		uxtb	r3, r3
 373:C:/Users/vasil/STM32Cube/Repository/STM32Cube_FW_F1_V1.8.5/Drivers/STM32F1xx_HAL_Driver/Src\stm32f1xx_hal_flash.c ****       {
 405              		.loc 1 373 9 view .LVU111
 406 004a 012B     		cmp	r3, #1
 407 004c 30D0     		beq	.L39
 404:C:/Users/vasil/STM32Cube/Repository/STM32Cube_FW_F1_V1.8.5/Drivers/STM32F1xx_HAL_Driver/Src\stm32f1xx_hal_flash.c ****       {
 408              		.loc 1 404 12 is_stmt 1 view .LVU112
 404:C:/Users/vasil/STM32Cube/Repository/STM32Cube_FW_F1_V1.8.5/Drivers/STM32F1xx_HAL_Driver/Src\stm32f1xx_hal_flash.c ****       {
 409              		.loc 1 404 21 is_stmt 0 view .LVU113
ARM GAS  C:\Users\vasil\AppData\Local\Temp\ccvloAs2.s 			page 26


 410 004e 404B     		ldr	r3, .L44+4
 411 0050 1B78     		ldrb	r3, [r3]	@ zero_extendqisi2
 412 0052 DBB2     		uxtb	r3, r3
 404:C:/Users/vasil/STM32Cube/Repository/STM32Cube_FW_F1_V1.8.5/Drivers/STM32F1xx_HAL_Driver/Src\stm32f1xx_hal_flash.c ****       {
 413              		.loc 1 404 14 view .LVU114
 414 0054 022B     		cmp	r3, #2
 415 0056 4AD0     		beq	.L40
 427:C:/Users/vasil/STM32Cube/Repository/STM32Cube_FW_F1_V1.8.5/Drivers/STM32F1xx_HAL_Driver/Src\stm32f1xx_hal_flash.c ****         
 416              		.loc 1 427 9 is_stmt 1 view .LVU115
 427:C:/Users/vasil/STM32Cube/Repository/STM32Cube_FW_F1_V1.8.5/Drivers/STM32F1xx_HAL_Driver/Src\stm32f1xx_hal_flash.c ****         
 417              		.loc 1 427 15 is_stmt 0 view .LVU116
 418 0058 3D4B     		ldr	r3, .L44+4
 419 005a 5A68     		ldr	r2, [r3, #4]
 427:C:/Users/vasil/STM32Cube/Repository/STM32Cube_FW_F1_V1.8.5/Drivers/STM32F1xx_HAL_Driver/Src\stm32f1xx_hal_flash.c ****         
 420              		.loc 1 427 29 view .LVU117
 421 005c 013A     		subs	r2, r2, #1
 422 005e 5A60     		str	r2, [r3, #4]
 430:C:/Users/vasil/STM32Cube/Repository/STM32Cube_FW_F1_V1.8.5/Drivers/STM32F1xx_HAL_Driver/Src\stm32f1xx_hal_flash.c ****         {
 423              		.loc 1 430 9 is_stmt 1 view .LVU118
 430:C:/Users/vasil/STM32Cube/Repository/STM32Cube_FW_F1_V1.8.5/Drivers/STM32F1xx_HAL_Driver/Src\stm32f1xx_hal_flash.c ****         {
 424              		.loc 1 430 18 is_stmt 0 view .LVU119
 425 0060 5B68     		ldr	r3, [r3, #4]
 430:C:/Users/vasil/STM32Cube/Repository/STM32Cube_FW_F1_V1.8.5/Drivers/STM32F1xx_HAL_Driver/Src\stm32f1xx_hal_flash.c ****         {
 426              		.loc 1 430 11 view .LVU120
 427 0062 002B     		cmp	r3, #0
 428 0064 4FD1     		bne	.L41
 449:C:/Users/vasil/STM32Cube/Repository/STM32Cube_FW_F1_V1.8.5/Drivers/STM32F1xx_HAL_Driver/Src\stm32f1xx_hal_flash.c ****           {
 429              		.loc 1 449 11 is_stmt 1 view .LVU121
 449:C:/Users/vasil/STM32Cube/Repository/STM32Cube_FW_F1_V1.8.5/Drivers/STM32F1xx_HAL_Driver/Src\stm32f1xx_hal_flash.c ****           {
 430              		.loc 1 449 21 is_stmt 0 view .LVU122
 431 0066 3A4B     		ldr	r3, .L44+4
 432 0068 1B78     		ldrb	r3, [r3]	@ zero_extendqisi2
 433 006a DBB2     		uxtb	r3, r3
 449:C:/Users/vasil/STM32Cube/Repository/STM32Cube_FW_F1_V1.8.5/Drivers/STM32F1xx_HAL_Driver/Src\stm32f1xx_hal_flash.c ****           {
 434              		.loc 1 449 14 view .LVU123
 435 006c 032B     		cmp	r3, #3
 436 006e 62D0     		beq	.L42
 453:C:/Users/vasil/STM32Cube/Repository/STM32Cube_FW_F1_V1.8.5/Drivers/STM32F1xx_HAL_Driver/Src\stm32f1xx_hal_flash.c ****           {
 437              		.loc 1 453 16 is_stmt 1 view .LVU124
 453:C:/Users/vasil/STM32Cube/Repository/STM32Cube_FW_F1_V1.8.5/Drivers/STM32F1xx_HAL_Driver/Src\stm32f1xx_hal_flash.c ****           {
 438              		.loc 1 453 26 is_stmt 0 view .LVU125
 439 0070 374B     		ldr	r3, .L44+4
 440 0072 1B78     		ldrb	r3, [r3]	@ zero_extendqisi2
 441 0074 DBB2     		uxtb	r3, r3
 453:C:/Users/vasil/STM32Cube/Repository/STM32Cube_FW_F1_V1.8.5/Drivers/STM32F1xx_HAL_Driver/Src\stm32f1xx_hal_flash.c ****           {
 442              		.loc 1 453 19 view .LVU126
 443 0076 042B     		cmp	r3, #4
 444 0078 62D0     		beq	.L43
 459:C:/Users/vasil/STM32Cube/Repository/STM32Cube_FW_F1_V1.8.5/Drivers/STM32F1xx_HAL_Driver/Src\stm32f1xx_hal_flash.c ****           }
 445              		.loc 1 459 13 is_stmt 1 view .LVU127
 459:C:/Users/vasil/STM32Cube/Repository/STM32Cube_FW_F1_V1.8.5/Drivers/STM32F1xx_HAL_Driver/Src\stm32f1xx_hal_flash.c ****           }
 446              		.loc 1 459 52 is_stmt 0 view .LVU128
 447 007a 354B     		ldr	r3, .L44+4
 448 007c 9868     		ldr	r0, [r3, #8]
 459:C:/Users/vasil/STM32Cube/Repository/STM32Cube_FW_F1_V1.8.5/Drivers/STM32F1xx_HAL_Driver/Src\stm32f1xx_hal_flash.c ****           }
 449              		.loc 1 459 13 view .LVU129
 450 007e 0638     		subs	r0, r0, #6
ARM GAS  C:\Users\vasil\AppData\Local\Temp\ccvloAs2.s 			page 27


 451 0080 FFF7FEFF 		bl	HAL_FLASH_EndOfOperationCallback
 452              	.LVL22:
 453              	.L35:
 463:C:/Users/vasil/STM32Cube/Repository/STM32Cube_FW_F1_V1.8.5/Drivers/STM32F1xx_HAL_Driver/Src\stm32f1xx_hal_flash.c ****           pFlash.ProcedureOnGoing = FLASH_PROC_NONE;
 454              		.loc 1 463 11 is_stmt 1 view .LVU130
 463:C:/Users/vasil/STM32Cube/Repository/STM32Cube_FW_F1_V1.8.5/Drivers/STM32F1xx_HAL_Driver/Src\stm32f1xx_hal_flash.c ****           pFlash.ProcedureOnGoing = FLASH_PROC_NONE;
 455              		.loc 1 463 26 is_stmt 0 view .LVU131
 456 0084 324B     		ldr	r3, .L44+4
 457 0086 4FF0FF32 		mov	r2, #-1
 458 008a 9A60     		str	r2, [r3, #8]
 464:C:/Users/vasil/STM32Cube/Repository/STM32Cube_FW_F1_V1.8.5/Drivers/STM32F1xx_HAL_Driver/Src\stm32f1xx_hal_flash.c ****         }
 459              		.loc 1 464 11 is_stmt 1 view .LVU132
 464:C:/Users/vasil/STM32Cube/Repository/STM32Cube_FW_F1_V1.8.5/Drivers/STM32F1xx_HAL_Driver/Src\stm32f1xx_hal_flash.c ****         }
 460              		.loc 1 464 35 is_stmt 0 view .LVU133
 461 008c 0022     		movs	r2, #0
 462 008e 1A70     		strb	r2, [r3]
 463              	.L29:
 573:C:/Users/vasil/STM32Cube/Repository/STM32Cube_FW_F1_V1.8.5/Drivers/STM32F1xx_HAL_Driver/Src\stm32f1xx_hal_flash.c ****   {
 464              		.loc 1 573 3 is_stmt 1 view .LVU134
 573:C:/Users/vasil/STM32Cube/Repository/STM32Cube_FW_F1_V1.8.5/Drivers/STM32F1xx_HAL_Driver/Src\stm32f1xx_hal_flash.c ****   {
 465              		.loc 1 573 12 is_stmt 0 view .LVU135
 466 0090 2F4B     		ldr	r3, .L44+4
 467 0092 1B78     		ldrb	r3, [r3]	@ zero_extendqisi2
 573:C:/Users/vasil/STM32Cube/Repository/STM32Cube_FW_F1_V1.8.5/Drivers/STM32F1xx_HAL_Driver/Src\stm32f1xx_hal_flash.c ****   {
 468              		.loc 1 573 5 view .LVU136
 469 0094 5BB9     		cbnz	r3, .L26
 584:C:/Users/vasil/STM32Cube/Repository/STM32Cube_FW_F1_V1.8.5/Drivers/STM32F1xx_HAL_Driver/Src\stm32f1xx_hal_flash.c **** 
 470              		.loc 1 584 5 is_stmt 1 view .LVU137
 471 0096 2D4B     		ldr	r3, .L44
 472 0098 1A69     		ldr	r2, [r3, #16]
 473 009a 22F00702 		bic	r2, r2, #7
 474 009e 1A61     		str	r2, [r3, #16]
 587:C:/Users/vasil/STM32Cube/Repository/STM32Cube_FW_F1_V1.8.5/Drivers/STM32F1xx_HAL_Driver/Src\stm32f1xx_hal_flash.c **** #endif /* FLASH_BANK2_END */
 475              		.loc 1 587 5 view .LVU138
 476 00a0 1A69     		ldr	r2, [r3, #16]
 477 00a2 22F4A052 		bic	r2, r2, #5120
 478 00a6 1A61     		str	r2, [r3, #16]
 591:C:/Users/vasil/STM32Cube/Repository/STM32Cube_FW_F1_V1.8.5/Drivers/STM32F1xx_HAL_Driver/Src\stm32f1xx_hal_flash.c ****   }
 479              		.loc 1 591 5 view .LVU139
 591:C:/Users/vasil/STM32Cube/Repository/STM32Cube_FW_F1_V1.8.5/Drivers/STM32F1xx_HAL_Driver/Src\stm32f1xx_hal_flash.c ****   }
 480              		.loc 1 591 5 view .LVU140
 481 00a8 294B     		ldr	r3, .L44+4
 482 00aa 0022     		movs	r2, #0
 483 00ac 1A76     		strb	r2, [r3, #24]
 591:C:/Users/vasil/STM32Cube/Repository/STM32Cube_FW_F1_V1.8.5/Drivers/STM32F1xx_HAL_Driver/Src\stm32f1xx_hal_flash.c ****   }
 484              		.loc 1 591 5 view .LVU141
 485              	.L26:
 593:C:/Users/vasil/STM32Cube/Repository/STM32Cube_FW_F1_V1.8.5/Drivers/STM32F1xx_HAL_Driver/Src\stm32f1xx_hal_flash.c **** 
 486              		.loc 1 593 1 is_stmt 0 view .LVU142
 487 00ae F8BD     		pop	{r3, r4, r5, r6, r7, pc}
 488              	.L39:
 376:C:/Users/vasil/STM32Cube/Repository/STM32Cube_FW_F1_V1.8.5/Drivers/STM32F1xx_HAL_Driver/Src\stm32f1xx_hal_flash.c **** 
 489              		.loc 1 376 9 is_stmt 1 view .LVU143
 376:C:/Users/vasil/STM32Cube/Repository/STM32Cube_FW_F1_V1.8.5/Drivers/STM32F1xx_HAL_Driver/Src\stm32f1xx_hal_flash.c **** 
 490              		.loc 1 376 15 is_stmt 0 view .LVU144
 491 00b0 274B     		ldr	r3, .L44+4
 492 00b2 5A68     		ldr	r2, [r3, #4]
ARM GAS  C:\Users\vasil\AppData\Local\Temp\ccvloAs2.s 			page 28


 376:C:/Users/vasil/STM32Cube/Repository/STM32Cube_FW_F1_V1.8.5/Drivers/STM32F1xx_HAL_Driver/Src\stm32f1xx_hal_flash.c **** 
 493              		.loc 1 376 29 view .LVU145
 494 00b4 013A     		subs	r2, r2, #1
 495 00b6 5A60     		str	r2, [r3, #4]
 379:C:/Users/vasil/STM32Cube/Repository/STM32Cube_FW_F1_V1.8.5/Drivers/STM32F1xx_HAL_Driver/Src\stm32f1xx_hal_flash.c ****         {
 496              		.loc 1 379 9 is_stmt 1 view .LVU146
 379:C:/Users/vasil/STM32Cube/Repository/STM32Cube_FW_F1_V1.8.5/Drivers/STM32F1xx_HAL_Driver/Src\stm32f1xx_hal_flash.c ****         {
 497              		.loc 1 379 18 is_stmt 0 view .LVU147
 498 00b8 5B68     		ldr	r3, [r3, #4]
 379:C:/Users/vasil/STM32Cube/Repository/STM32Cube_FW_F1_V1.8.5/Drivers/STM32F1xx_HAL_Driver/Src\stm32f1xx_hal_flash.c ****         {
 499              		.loc 1 379 11 view .LVU148
 500 00ba 7BB1     		cbz	r3, .L31
 381:C:/Users/vasil/STM32Cube/Repository/STM32Cube_FW_F1_V1.8.5/Drivers/STM32F1xx_HAL_Driver/Src\stm32f1xx_hal_flash.c ****           /*Indicate user which sector has been erased */
 501              		.loc 1 381 11 is_stmt 1 view .LVU149
 381:C:/Users/vasil/STM32Cube/Repository/STM32Cube_FW_F1_V1.8.5/Drivers/STM32F1xx_HAL_Driver/Src\stm32f1xx_hal_flash.c ****           /*Indicate user which sector has been erased */
 502              		.loc 1 381 22 is_stmt 0 view .LVU150
 503 00bc 244C     		ldr	r4, .L44+4
 504 00be A068     		ldr	r0, [r4, #8]
 505              	.LVL23:
 383:C:/Users/vasil/STM32Cube/Repository/STM32Cube_FW_F1_V1.8.5/Drivers/STM32F1xx_HAL_Driver/Src\stm32f1xx_hal_flash.c **** 
 506              		.loc 1 383 11 is_stmt 1 view .LVU151
 507 00c0 FFF7FEFF 		bl	HAL_FLASH_EndOfOperationCallback
 508              	.LVL24:
 386:C:/Users/vasil/STM32Cube/Repository/STM32Cube_FW_F1_V1.8.5/Drivers/STM32F1xx_HAL_Driver/Src\stm32f1xx_hal_flash.c ****           pFlash.Address = addresstmp;
 509              		.loc 1 386 11 view .LVU152
 386:C:/Users/vasil/STM32Cube/Repository/STM32Cube_FW_F1_V1.8.5/Drivers/STM32F1xx_HAL_Driver/Src\stm32f1xx_hal_flash.c ****           pFlash.Address = addresstmp;
 510              		.loc 1 386 30 is_stmt 0 view .LVU153
 511 00c4 A068     		ldr	r0, [r4, #8]
 386:C:/Users/vasil/STM32Cube/Repository/STM32Cube_FW_F1_V1.8.5/Drivers/STM32F1xx_HAL_Driver/Src\stm32f1xx_hal_flash.c ****           pFlash.Address = addresstmp;
 512              		.loc 1 386 22 view .LVU154
 513 00c6 00F58060 		add	r0, r0, #1024
 514              	.LVL25:
 387:C:/Users/vasil/STM32Cube/Repository/STM32Cube_FW_F1_V1.8.5/Drivers/STM32F1xx_HAL_Driver/Src\stm32f1xx_hal_flash.c **** 
 515              		.loc 1 387 11 is_stmt 1 view .LVU155
 387:C:/Users/vasil/STM32Cube/Repository/STM32Cube_FW_F1_V1.8.5/Drivers/STM32F1xx_HAL_Driver/Src\stm32f1xx_hal_flash.c **** 
 516              		.loc 1 387 26 is_stmt 0 view .LVU156
 517 00ca A060     		str	r0, [r4, #8]
 390:C:/Users/vasil/STM32Cube/Repository/STM32Cube_FW_F1_V1.8.5/Drivers/STM32F1xx_HAL_Driver/Src\stm32f1xx_hal_flash.c **** 
 518              		.loc 1 390 11 is_stmt 1 view .LVU157
 519 00cc 1F4A     		ldr	r2, .L44
 520 00ce 1369     		ldr	r3, [r2, #16]
 521 00d0 23F00203 		bic	r3, r3, #2
 522 00d4 1361     		str	r3, [r2, #16]
 392:C:/Users/vasil/STM32Cube/Repository/STM32Cube_FW_F1_V1.8.5/Drivers/STM32F1xx_HAL_Driver/Src\stm32f1xx_hal_flash.c ****         }
 523              		.loc 1 392 11 view .LVU158
 524 00d6 FFF7FEFF 		bl	FLASH_PageErase
 525              	.LVL26:
 392:C:/Users/vasil/STM32Cube/Repository/STM32Cube_FW_F1_V1.8.5/Drivers/STM32F1xx_HAL_Driver/Src\stm32f1xx_hal_flash.c ****         }
 526              		.loc 1 392 11 is_stmt 0 view .LVU159
 527 00da D9E7     		b	.L29
 528              	.L31:
 398:C:/Users/vasil/STM32Cube/Repository/STM32Cube_FW_F1_V1.8.5/Drivers/STM32F1xx_HAL_Driver/Src\stm32f1xx_hal_flash.c ****           pFlash.ProcedureOnGoing = FLASH_PROC_NONE;
 529              		.loc 1 398 11 is_stmt 1 view .LVU160
 530              	.LVL27:
 398:C:/Users/vasil/STM32Cube/Repository/STM32Cube_FW_F1_V1.8.5/Drivers/STM32F1xx_HAL_Driver/Src\stm32f1xx_hal_flash.c ****           pFlash.ProcedureOnGoing = FLASH_PROC_NONE;
 531              		.loc 1 398 26 is_stmt 0 view .LVU161
 532 00dc 1C4B     		ldr	r3, .L44+4
ARM GAS  C:\Users\vasil\AppData\Local\Temp\ccvloAs2.s 			page 29


 533 00de 4FF0FF30 		mov	r0, #-1
 534 00e2 9860     		str	r0, [r3, #8]
 399:C:/Users/vasil/STM32Cube/Repository/STM32Cube_FW_F1_V1.8.5/Drivers/STM32F1xx_HAL_Driver/Src\stm32f1xx_hal_flash.c ****           /* FLASH EOP interrupt user callback */
 535              		.loc 1 399 11 is_stmt 1 view .LVU162
 399:C:/Users/vasil/STM32Cube/Repository/STM32Cube_FW_F1_V1.8.5/Drivers/STM32F1xx_HAL_Driver/Src\stm32f1xx_hal_flash.c ****           /* FLASH EOP interrupt user callback */
 536              		.loc 1 399 35 is_stmt 0 view .LVU163
 537 00e4 0022     		movs	r2, #0
 538 00e6 1A70     		strb	r2, [r3]
 401:C:/Users/vasil/STM32Cube/Repository/STM32Cube_FW_F1_V1.8.5/Drivers/STM32F1xx_HAL_Driver/Src\stm32f1xx_hal_flash.c ****         }
 539              		.loc 1 401 11 is_stmt 1 view .LVU164
 540 00e8 FFF7FEFF 		bl	HAL_FLASH_EndOfOperationCallback
 541              	.LVL28:
 542 00ec D0E7     		b	.L29
 543              	.LVL29:
 544              	.L40:
 407:C:/Users/vasil/STM32Cube/Repository/STM32Cube_FW_F1_V1.8.5/Drivers/STM32F1xx_HAL_Driver/Src\stm32f1xx_hal_flash.c **** 
 545              		.loc 1 407 9 view .LVU165
 546 00ee 174A     		ldr	r2, .L44
 547 00f0 1369     		ldr	r3, [r2, #16]
 548 00f2 23F00403 		bic	r3, r3, #4
 549 00f6 1361     		str	r3, [r2, #16]
 416:C:/Users/vasil/STM32Cube/Repository/STM32Cube_FW_F1_V1.8.5/Drivers/STM32F1xx_HAL_Driver/Src\stm32f1xx_hal_flash.c **** 
 550              		.loc 1 416 11 view .LVU166
 551 00f8 0020     		movs	r0, #0
 552 00fa FFF7FEFF 		bl	HAL_FLASH_EndOfOperationCallback
 553              	.LVL30:
 419:C:/Users/vasil/STM32Cube/Repository/STM32Cube_FW_F1_V1.8.5/Drivers/STM32F1xx_HAL_Driver/Src\stm32f1xx_hal_flash.c ****         }
 554              		.loc 1 419 11 view .LVU167
 419:C:/Users/vasil/STM32Cube/Repository/STM32Cube_FW_F1_V1.8.5/Drivers/STM32F1xx_HAL_Driver/Src\stm32f1xx_hal_flash.c ****         }
 555              		.loc 1 419 35 is_stmt 0 view .LVU168
 556 00fe 144B     		ldr	r3, .L44+4
 557 0100 0022     		movs	r2, #0
 558 0102 1A70     		strb	r2, [r3]
 559 0104 C4E7     		b	.L29
 560              	.L41:
 433:C:/Users/vasil/STM32Cube/Repository/STM32Cube_FW_F1_V1.8.5/Drivers/STM32F1xx_HAL_Driver/Src\stm32f1xx_hal_flash.c ****           addresstmp = pFlash.Address;
 561              		.loc 1 433 11 is_stmt 1 view .LVU169
 433:C:/Users/vasil/STM32Cube/Repository/STM32Cube_FW_F1_V1.8.5/Drivers/STM32F1xx_HAL_Driver/Src\stm32f1xx_hal_flash.c ****           addresstmp = pFlash.Address;
 562              		.loc 1 433 26 is_stmt 0 view .LVU170
 563 0106 124B     		ldr	r3, .L44+4
 564 0108 9A68     		ldr	r2, [r3, #8]
 565 010a 0232     		adds	r2, r2, #2
 566 010c 9A60     		str	r2, [r3, #8]
 434:C:/Users/vasil/STM32Cube/Repository/STM32Cube_FW_F1_V1.8.5/Drivers/STM32F1xx_HAL_Driver/Src\stm32f1xx_hal_flash.c ****           
 567              		.loc 1 434 11 is_stmt 1 view .LVU171
 434:C:/Users/vasil/STM32Cube/Repository/STM32Cube_FW_F1_V1.8.5/Drivers/STM32F1xx_HAL_Driver/Src\stm32f1xx_hal_flash.c ****           
 568              		.loc 1 434 22 is_stmt 0 view .LVU172
 569 010e 9868     		ldr	r0, [r3, #8]
 570              	.LVL31:
 437:C:/Users/vasil/STM32Cube/Repository/STM32Cube_FW_F1_V1.8.5/Drivers/STM32F1xx_HAL_Driver/Src\stm32f1xx_hal_flash.c ****           
 571              		.loc 1 437 11 is_stmt 1 view .LVU173
 437:C:/Users/vasil/STM32Cube/Repository/STM32Cube_FW_F1_V1.8.5/Drivers/STM32F1xx_HAL_Driver/Src\stm32f1xx_hal_flash.c ****           
 572              		.loc 1 437 32 is_stmt 0 view .LVU174
 573 0110 D3E90467 		ldrd	r6, [r3, #16]
 437:C:/Users/vasil/STM32Cube/Repository/STM32Cube_FW_F1_V1.8.5/Drivers/STM32F1xx_HAL_Driver/Src\stm32f1xx_hal_flash.c ****           
 574              		.loc 1 437 38 view .LVU175
 575 0114 340C     		lsrs	r4, r6, #16
ARM GAS  C:\Users\vasil\AppData\Local\Temp\ccvloAs2.s 			page 30


 576 0116 44EA0744 		orr	r4, r4, r7, lsl #16
 577 011a 3D0C     		lsrs	r5, r7, #16
 437:C:/Users/vasil/STM32Cube/Repository/STM32Cube_FW_F1_V1.8.5/Drivers/STM32F1xx_HAL_Driver/Src\stm32f1xx_hal_flash.c ****           
 578              		.loc 1 437 23 view .LVU176
 579 011c C3E90445 		strd	r4, [r3, #16]
 440:C:/Users/vasil/STM32Cube/Repository/STM32Cube_FW_F1_V1.8.5/Drivers/STM32F1xx_HAL_Driver/Src\stm32f1xx_hal_flash.c **** 
 580              		.loc 1 440 11 is_stmt 1 view .LVU177
 581 0120 0A49     		ldr	r1, .L44
 582 0122 0A69     		ldr	r2, [r1, #16]
 583 0124 22F00102 		bic	r2, r2, #1
 584 0128 0A61     		str	r2, [r1, #16]
 443:C:/Users/vasil/STM32Cube/Repository/STM32Cube_FW_F1_V1.8.5/Drivers/STM32F1xx_HAL_Driver/Src\stm32f1xx_hal_flash.c ****         }
 585              		.loc 1 443 11 view .LVU178
 443:C:/Users/vasil/STM32Cube/Repository/STM32Cube_FW_F1_V1.8.5/Drivers/STM32F1xx_HAL_Driver/Src\stm32f1xx_hal_flash.c ****         }
 586              		.loc 1 443 62 is_stmt 0 view .LVU179
 587 012a D3E90423 		ldrd	r2, [r3, #16]
 443:C:/Users/vasil/STM32Cube/Repository/STM32Cube_FW_F1_V1.8.5/Drivers/STM32F1xx_HAL_Driver/Src\stm32f1xx_hal_flash.c ****         }
 588              		.loc 1 443 11 view .LVU180
 589 012e 91B2     		uxth	r1, r2
 590 0130 FFF7FEFF 		bl	FLASH_Program_HalfWord
 591              	.LVL32:
 443:C:/Users/vasil/STM32Cube/Repository/STM32Cube_FW_F1_V1.8.5/Drivers/STM32F1xx_HAL_Driver/Src\stm32f1xx_hal_flash.c ****         }
 592              		.loc 1 443 11 view .LVU181
 593 0134 ACE7     		b	.L29
 594              	.L42:
 451:C:/Users/vasil/STM32Cube/Repository/STM32Cube_FW_F1_V1.8.5/Drivers/STM32F1xx_HAL_Driver/Src\stm32f1xx_hal_flash.c ****           }
 595              		.loc 1 451 13 is_stmt 1 view .LVU182
 451:C:/Users/vasil/STM32Cube/Repository/STM32Cube_FW_F1_V1.8.5/Drivers/STM32F1xx_HAL_Driver/Src\stm32f1xx_hal_flash.c ****           }
 596              		.loc 1 451 52 is_stmt 0 view .LVU183
 597 0136 064B     		ldr	r3, .L44+4
 598 0138 9868     		ldr	r0, [r3, #8]
 451:C:/Users/vasil/STM32Cube/Repository/STM32Cube_FW_F1_V1.8.5/Drivers/STM32F1xx_HAL_Driver/Src\stm32f1xx_hal_flash.c ****           }
 599              		.loc 1 451 13 view .LVU184
 600 013a FFF7FEFF 		bl	HAL_FLASH_EndOfOperationCallback
 601              	.LVL33:
 602 013e A1E7     		b	.L35
 603              	.L43:
 455:C:/Users/vasil/STM32Cube/Repository/STM32Cube_FW_F1_V1.8.5/Drivers/STM32F1xx_HAL_Driver/Src\stm32f1xx_hal_flash.c ****           }
 604              		.loc 1 455 13 is_stmt 1 view .LVU185
 455:C:/Users/vasil/STM32Cube/Repository/STM32Cube_FW_F1_V1.8.5/Drivers/STM32F1xx_HAL_Driver/Src\stm32f1xx_hal_flash.c ****           }
 605              		.loc 1 455 52 is_stmt 0 view .LVU186
 606 0140 034B     		ldr	r3, .L44+4
 607 0142 9868     		ldr	r0, [r3, #8]
 455:C:/Users/vasil/STM32Cube/Repository/STM32Cube_FW_F1_V1.8.5/Drivers/STM32F1xx_HAL_Driver/Src\stm32f1xx_hal_flash.c ****           }
 608              		.loc 1 455 13 view .LVU187
 609 0144 0238     		subs	r0, r0, #2
 610 0146 FFF7FEFF 		bl	HAL_FLASH_EndOfOperationCallback
 611              	.LVL34:
 612 014a 9BE7     		b	.L35
 613              	.L45:
 614              		.align	2
 615              	.L44:
 616 014c 00200240 		.word	1073881088
 617 0150 00000000 		.word	.LANCHOR0
 618              		.cfi_endproc
 619              	.LFE67:
 621              		.section	.text.HAL_FLASH_Unlock,"ax",%progbits
ARM GAS  C:\Users\vasil\AppData\Local\Temp\ccvloAs2.s 			page 31


 622              		.align	1
 623              		.global	HAL_FLASH_Unlock
 624              		.syntax unified
 625              		.thumb
 626              		.thumb_func
 628              	HAL_FLASH_Unlock:
 629              	.LFB70:
 656:C:/Users/vasil/STM32Cube/Repository/STM32Cube_FW_F1_V1.8.5/Drivers/STM32F1xx_HAL_Driver/Src\stm32f1xx_hal_flash.c ****   HAL_StatusTypeDef status = HAL_OK;
 630              		.loc 1 656 1 is_stmt 1 view -0
 631              		.cfi_startproc
 632              		@ args = 0, pretend = 0, frame = 0
 633              		@ frame_needed = 0, uses_anonymous_args = 0
 634              		@ link register save eliminated.
 657:C:/Users/vasil/STM32Cube/Repository/STM32Cube_FW_F1_V1.8.5/Drivers/STM32F1xx_HAL_Driver/Src\stm32f1xx_hal_flash.c **** 
 635              		.loc 1 657 3 view .LVU189
 636              	.LVL35:
 659:C:/Users/vasil/STM32Cube/Repository/STM32Cube_FW_F1_V1.8.5/Drivers/STM32F1xx_HAL_Driver/Src\stm32f1xx_hal_flash.c ****   {
 637              		.loc 1 659 3 view .LVU190
 659:C:/Users/vasil/STM32Cube/Repository/STM32Cube_FW_F1_V1.8.5/Drivers/STM32F1xx_HAL_Driver/Src\stm32f1xx_hal_flash.c ****   {
 638              		.loc 1 659 6 is_stmt 0 view .LVU191
 639 0000 0A4B     		ldr	r3, .L50
 640 0002 1B69     		ldr	r3, [r3, #16]
 659:C:/Users/vasil/STM32Cube/Repository/STM32Cube_FW_F1_V1.8.5/Drivers/STM32F1xx_HAL_Driver/Src\stm32f1xx_hal_flash.c ****   {
 641              		.loc 1 659 5 view .LVU192
 642 0004 13F0800F 		tst	r3, #128
 643 0008 0BD0     		beq	.L48
 662:C:/Users/vasil/STM32Cube/Repository/STM32Cube_FW_F1_V1.8.5/Drivers/STM32F1xx_HAL_Driver/Src\stm32f1xx_hal_flash.c ****     WRITE_REG(FLASH->KEYR, FLASH_KEY2);
 644              		.loc 1 662 5 is_stmt 1 view .LVU193
 645 000a 084B     		ldr	r3, .L50
 646 000c 084A     		ldr	r2, .L50+4
 647 000e 5A60     		str	r2, [r3, #4]
 663:C:/Users/vasil/STM32Cube/Repository/STM32Cube_FW_F1_V1.8.5/Drivers/STM32F1xx_HAL_Driver/Src\stm32f1xx_hal_flash.c **** 
 648              		.loc 1 663 5 view .LVU194
 649 0010 02F18832 		add	r2, r2, #-2004318072
 650 0014 5A60     		str	r2, [r3, #4]
 666:C:/Users/vasil/STM32Cube/Repository/STM32Cube_FW_F1_V1.8.5/Drivers/STM32F1xx_HAL_Driver/Src\stm32f1xx_hal_flash.c ****     {
 651              		.loc 1 666 5 view .LVU195
 666:C:/Users/vasil/STM32Cube/Repository/STM32Cube_FW_F1_V1.8.5/Drivers/STM32F1xx_HAL_Driver/Src\stm32f1xx_hal_flash.c ****     {
 652              		.loc 1 666 8 is_stmt 0 view .LVU196
 653 0016 1B69     		ldr	r3, [r3, #16]
 666:C:/Users/vasil/STM32Cube/Repository/STM32Cube_FW_F1_V1.8.5/Drivers/STM32F1xx_HAL_Driver/Src\stm32f1xx_hal_flash.c ****     {
 654              		.loc 1 666 7 view .LVU197
 655 0018 13F0800F 		tst	r3, #128
 656 001c 03D1     		bne	.L49
 657:C:/Users/vasil/STM32Cube/Repository/STM32Cube_FW_F1_V1.8.5/Drivers/STM32F1xx_HAL_Driver/Src\stm32f1xx_hal_flash.c **** 
 657              		.loc 1 657 21 view .LVU198
 658 001e 0020     		movs	r0, #0
 659 0020 7047     		bx	lr
 660              	.L48:
 661 0022 0020     		movs	r0, #0
 662 0024 7047     		bx	lr
 663              	.L49:
 668:C:/Users/vasil/STM32Cube/Repository/STM32Cube_FW_F1_V1.8.5/Drivers/STM32F1xx_HAL_Driver/Src\stm32f1xx_hal_flash.c ****     }
 664              		.loc 1 668 14 view .LVU199
 665 0026 0120     		movs	r0, #1
 666              	.LVL36:
 686:C:/Users/vasil/STM32Cube/Repository/STM32Cube_FW_F1_V1.8.5/Drivers/STM32F1xx_HAL_Driver/Src\stm32f1xx_hal_flash.c **** }
ARM GAS  C:\Users\vasil\AppData\Local\Temp\ccvloAs2.s 			page 32


 667              		.loc 1 686 3 is_stmt 1 view .LVU200
 687:C:/Users/vasil/STM32Cube/Repository/STM32Cube_FW_F1_V1.8.5/Drivers/STM32F1xx_HAL_Driver/Src\stm32f1xx_hal_flash.c **** 
 668              		.loc 1 687 1 is_stmt 0 view .LVU201
 669 0028 7047     		bx	lr
 670              	.L51:
 671 002a 00BF     		.align	2
 672              	.L50:
 673 002c 00200240 		.word	1073881088
 674 0030 23016745 		.word	1164378403
 675              		.cfi_endproc
 676              	.LFE70:
 678              		.section	.text.HAL_FLASH_Lock,"ax",%progbits
 679              		.align	1
 680              		.global	HAL_FLASH_Lock
 681              		.syntax unified
 682              		.thumb
 683              		.thumb_func
 685              	HAL_FLASH_Lock:
 686              	.LFB71:
 694:C:/Users/vasil/STM32Cube/Repository/STM32Cube_FW_F1_V1.8.5/Drivers/STM32F1xx_HAL_Driver/Src\stm32f1xx_hal_flash.c ****   /* Set the LOCK Bit to lock the FLASH Registers access */
 687              		.loc 1 694 1 is_stmt 1 view -0
 688              		.cfi_startproc
 689              		@ args = 0, pretend = 0, frame = 0
 690              		@ frame_needed = 0, uses_anonymous_args = 0
 691              		@ link register save eliminated.
 696:C:/Users/vasil/STM32Cube/Repository/STM32Cube_FW_F1_V1.8.5/Drivers/STM32F1xx_HAL_Driver/Src\stm32f1xx_hal_flash.c ****   
 692              		.loc 1 696 3 view .LVU203
 693 0000 034A     		ldr	r2, .L53
 694 0002 1369     		ldr	r3, [r2, #16]
 695 0004 43F08003 		orr	r3, r3, #128
 696 0008 1361     		str	r3, [r2, #16]
 703:C:/Users/vasil/STM32Cube/Repository/STM32Cube_FW_F1_V1.8.5/Drivers/STM32F1xx_HAL_Driver/Src\stm32f1xx_hal_flash.c **** }
 697              		.loc 1 703 3 view .LVU204
 704:C:/Users/vasil/STM32Cube/Repository/STM32Cube_FW_F1_V1.8.5/Drivers/STM32F1xx_HAL_Driver/Src\stm32f1xx_hal_flash.c **** 
 698              		.loc 1 704 1 is_stmt 0 view .LVU205
 699 000a 0020     		movs	r0, #0
 700 000c 7047     		bx	lr
 701              	.L54:
 702 000e 00BF     		.align	2
 703              	.L53:
 704 0010 00200240 		.word	1073881088
 705              		.cfi_endproc
 706              	.LFE71:
 708              		.section	.text.HAL_FLASH_OB_Unlock,"ax",%progbits
 709              		.align	1
 710              		.global	HAL_FLASH_OB_Unlock
 711              		.syntax unified
 712              		.thumb
 713              		.thumb_func
 715              	HAL_FLASH_OB_Unlock:
 716              	.LFB72:
 711:C:/Users/vasil/STM32Cube/Repository/STM32Cube_FW_F1_V1.8.5/Drivers/STM32F1xx_HAL_Driver/Src\stm32f1xx_hal_flash.c ****   if (HAL_IS_BIT_CLR(FLASH->CR, FLASH_CR_OPTWRE))
 717              		.loc 1 711 1 is_stmt 1 view -0
 718              		.cfi_startproc
 719              		@ args = 0, pretend = 0, frame = 0
 720              		@ frame_needed = 0, uses_anonymous_args = 0
 721              		@ link register save eliminated.
ARM GAS  C:\Users\vasil\AppData\Local\Temp\ccvloAs2.s 			page 33


 712:C:/Users/vasil/STM32Cube/Repository/STM32Cube_FW_F1_V1.8.5/Drivers/STM32F1xx_HAL_Driver/Src\stm32f1xx_hal_flash.c ****   {
 722              		.loc 1 712 3 view .LVU207
 712:C:/Users/vasil/STM32Cube/Repository/STM32Cube_FW_F1_V1.8.5/Drivers/STM32F1xx_HAL_Driver/Src\stm32f1xx_hal_flash.c ****   {
 723              		.loc 1 712 7 is_stmt 0 view .LVU208
 724 0000 074B     		ldr	r3, .L58
 725 0002 1B69     		ldr	r3, [r3, #16]
 712:C:/Users/vasil/STM32Cube/Repository/STM32Cube_FW_F1_V1.8.5/Drivers/STM32F1xx_HAL_Driver/Src\stm32f1xx_hal_flash.c ****   {
 726              		.loc 1 712 6 view .LVU209
 727 0004 13F4007F 		tst	r3, #512
 728 0008 07D1     		bne	.L57
 715:C:/Users/vasil/STM32Cube/Repository/STM32Cube_FW_F1_V1.8.5/Drivers/STM32F1xx_HAL_Driver/Src\stm32f1xx_hal_flash.c ****     WRITE_REG(FLASH->OPTKEYR, FLASH_OPTKEY2);
 729              		.loc 1 715 5 is_stmt 1 view .LVU210
 730 000a 054B     		ldr	r3, .L58
 731 000c 054A     		ldr	r2, .L58+4
 732 000e 9A60     		str	r2, [r3, #8]
 716:C:/Users/vasil/STM32Cube/Repository/STM32Cube_FW_F1_V1.8.5/Drivers/STM32F1xx_HAL_Driver/Src\stm32f1xx_hal_flash.c ****   }
 733              		.loc 1 716 5 view .LVU211
 734 0010 02F18832 		add	r2, r2, #-2004318072
 735 0014 9A60     		str	r2, [r3, #8]
 723:C:/Users/vasil/STM32Cube/Repository/STM32Cube_FW_F1_V1.8.5/Drivers/STM32F1xx_HAL_Driver/Src\stm32f1xx_hal_flash.c **** }
 736              		.loc 1 723 3 view .LVU212
 723:C:/Users/vasil/STM32Cube/Repository/STM32Cube_FW_F1_V1.8.5/Drivers/STM32F1xx_HAL_Driver/Src\stm32f1xx_hal_flash.c **** }
 737              		.loc 1 723 10 is_stmt 0 view .LVU213
 738 0016 0020     		movs	r0, #0
 739 0018 7047     		bx	lr
 740              	.L57:
 720:C:/Users/vasil/STM32Cube/Repository/STM32Cube_FW_F1_V1.8.5/Drivers/STM32F1xx_HAL_Driver/Src\stm32f1xx_hal_flash.c ****   }  
 741              		.loc 1 720 12 view .LVU214
 742 001a 0120     		movs	r0, #1
 724:C:/Users/vasil/STM32Cube/Repository/STM32Cube_FW_F1_V1.8.5/Drivers/STM32F1xx_HAL_Driver/Src\stm32f1xx_hal_flash.c **** 
 743              		.loc 1 724 1 view .LVU215
 744 001c 7047     		bx	lr
 745              	.L59:
 746 001e 00BF     		.align	2
 747              	.L58:
 748 0020 00200240 		.word	1073881088
 749 0024 23016745 		.word	1164378403
 750              		.cfi_endproc
 751              	.LFE72:
 753              		.section	.text.HAL_FLASH_OB_Lock,"ax",%progbits
 754              		.align	1
 755              		.global	HAL_FLASH_OB_Lock
 756              		.syntax unified
 757              		.thumb
 758              		.thumb_func
 760              	HAL_FLASH_OB_Lock:
 761              	.LFB73:
 731:C:/Users/vasil/STM32Cube/Repository/STM32Cube_FW_F1_V1.8.5/Drivers/STM32F1xx_HAL_Driver/Src\stm32f1xx_hal_flash.c ****   /* Clear the OPTWRE Bit to lock the FLASH Option Byte Registers access */
 762              		.loc 1 731 1 is_stmt 1 view -0
 763              		.cfi_startproc
 764              		@ args = 0, pretend = 0, frame = 0
 765              		@ frame_needed = 0, uses_anonymous_args = 0
 766              		@ link register save eliminated.
 733:C:/Users/vasil/STM32Cube/Repository/STM32Cube_FW_F1_V1.8.5/Drivers/STM32F1xx_HAL_Driver/Src\stm32f1xx_hal_flash.c ****   
 767              		.loc 1 733 3 view .LVU217
 768 0000 034A     		ldr	r2, .L61
 769 0002 1369     		ldr	r3, [r2, #16]
ARM GAS  C:\Users\vasil\AppData\Local\Temp\ccvloAs2.s 			page 34


 770 0004 23F40073 		bic	r3, r3, #512
 771 0008 1361     		str	r3, [r2, #16]
 735:C:/Users/vasil/STM32Cube/Repository/STM32Cube_FW_F1_V1.8.5/Drivers/STM32F1xx_HAL_Driver/Src\stm32f1xx_hal_flash.c **** }
 772              		.loc 1 735 3 view .LVU218
 736:C:/Users/vasil/STM32Cube/Repository/STM32Cube_FW_F1_V1.8.5/Drivers/STM32F1xx_HAL_Driver/Src\stm32f1xx_hal_flash.c ****   
 773              		.loc 1 736 1 is_stmt 0 view .LVU219
 774 000a 0020     		movs	r0, #0
 775 000c 7047     		bx	lr
 776              	.L62:
 777 000e 00BF     		.align	2
 778              	.L61:
 779 0010 00200240 		.word	1073881088
 780              		.cfi_endproc
 781              	.LFE73:
 783              		.section	.text.HAL_FLASH_OB_Launch,"ax",%progbits
 784              		.align	1
 785              		.global	HAL_FLASH_OB_Launch
 786              		.syntax unified
 787              		.thumb
 788              		.thumb_func
 790              	HAL_FLASH_OB_Launch:
 791              	.LFB74:
 744:C:/Users/vasil/STM32Cube/Repository/STM32Cube_FW_F1_V1.8.5/Drivers/STM32F1xx_HAL_Driver/Src\stm32f1xx_hal_flash.c ****   /* Initiates a system reset request to launch the option byte loading */
 792              		.loc 1 744 1 is_stmt 1 view -0
 793              		.cfi_startproc
 794              		@ args = 0, pretend = 0, frame = 0
 795              		@ frame_needed = 0, uses_anonymous_args = 0
 796 0000 08B5     		push	{r3, lr}
 797              		.cfi_def_cfa_offset 8
 798              		.cfi_offset 3, -8
 799              		.cfi_offset 14, -4
 746:C:/Users/vasil/STM32Cube/Repository/STM32Cube_FW_F1_V1.8.5/Drivers/STM32F1xx_HAL_Driver/Src\stm32f1xx_hal_flash.c **** }
 800              		.loc 1 746 3 view .LVU221
 801 0002 FFF7FEFF 		bl	HAL_NVIC_SystemReset
 802              	.LVL37:
 747:C:/Users/vasil/STM32Cube/Repository/STM32Cube_FW_F1_V1.8.5/Drivers/STM32F1xx_HAL_Driver/Src\stm32f1xx_hal_flash.c **** 
 803              		.loc 1 747 1 is_stmt 0 view .LVU222
 804 0006 08BD     		pop	{r3, pc}
 805              		.cfi_endproc
 806              	.LFE74:
 808              		.section	.text.HAL_FLASH_GetError,"ax",%progbits
 809              		.align	1
 810              		.global	HAL_FLASH_GetError
 811              		.syntax unified
 812              		.thumb
 813              		.thumb_func
 815              	HAL_FLASH_GetError:
 816              	.LFB75:
 773:C:/Users/vasil/STM32Cube/Repository/STM32Cube_FW_F1_V1.8.5/Drivers/STM32F1xx_HAL_Driver/Src\stm32f1xx_hal_flash.c ****    return pFlash.ErrorCode;
 817              		.loc 1 773 1 is_stmt 1 view -0
 818              		.cfi_startproc
 819              		@ args = 0, pretend = 0, frame = 0
 820              		@ frame_needed = 0, uses_anonymous_args = 0
 821              		@ link register save eliminated.
 774:C:/Users/vasil/STM32Cube/Repository/STM32Cube_FW_F1_V1.8.5/Drivers/STM32F1xx_HAL_Driver/Src\stm32f1xx_hal_flash.c **** }
 822              		.loc 1 774 4 view .LVU224
 774:C:/Users/vasil/STM32Cube/Repository/STM32Cube_FW_F1_V1.8.5/Drivers/STM32F1xx_HAL_Driver/Src\stm32f1xx_hal_flash.c **** }
ARM GAS  C:\Users\vasil\AppData\Local\Temp\ccvloAs2.s 			page 35


 823              		.loc 1 774 17 is_stmt 0 view .LVU225
 824 0000 014B     		ldr	r3, .L66
 825 0002 D869     		ldr	r0, [r3, #28]
 775:C:/Users/vasil/STM32Cube/Repository/STM32Cube_FW_F1_V1.8.5/Drivers/STM32F1xx_HAL_Driver/Src\stm32f1xx_hal_flash.c **** 
 826              		.loc 1 775 1 view .LVU226
 827 0004 7047     		bx	lr
 828              	.L67:
 829 0006 00BF     		.align	2
 830              	.L66:
 831 0008 00000000 		.word	.LANCHOR0
 832              		.cfi_endproc
 833              	.LFE75:
 835              		.section	.text.FLASH_WaitForLastOperation,"ax",%progbits
 836              		.align	1
 837              		.global	FLASH_WaitForLastOperation
 838              		.syntax unified
 839              		.thumb
 840              		.thumb_func
 842              	FLASH_WaitForLastOperation:
 843              	.LVL38:
 844              	.LFB77:
 825:C:/Users/vasil/STM32Cube/Repository/STM32Cube_FW_F1_V1.8.5/Drivers/STM32F1xx_HAL_Driver/Src\stm32f1xx_hal_flash.c ****   /* Wait for the FLASH operation to complete by polling on BUSY flag to be reset.
 845              		.loc 1 825 1 is_stmt 1 view -0
 846              		.cfi_startproc
 847              		@ args = 0, pretend = 0, frame = 0
 848              		@ frame_needed = 0, uses_anonymous_args = 0
 825:C:/Users/vasil/STM32Cube/Repository/STM32Cube_FW_F1_V1.8.5/Drivers/STM32F1xx_HAL_Driver/Src\stm32f1xx_hal_flash.c ****   /* Wait for the FLASH operation to complete by polling on BUSY flag to be reset.
 849              		.loc 1 825 1 is_stmt 0 view .LVU228
 850 0000 38B5     		push	{r3, r4, r5, lr}
 851              		.cfi_def_cfa_offset 16
 852              		.cfi_offset 3, -16
 853              		.cfi_offset 4, -12
 854              		.cfi_offset 5, -8
 855              		.cfi_offset 14, -4
 856 0002 0446     		mov	r4, r0
 830:C:/Users/vasil/STM32Cube/Repository/STM32Cube_FW_F1_V1.8.5/Drivers/STM32F1xx_HAL_Driver/Src\stm32f1xx_hal_flash.c ****      
 857              		.loc 1 830 3 is_stmt 1 view .LVU229
 830:C:/Users/vasil/STM32Cube/Repository/STM32Cube_FW_F1_V1.8.5/Drivers/STM32F1xx_HAL_Driver/Src\stm32f1xx_hal_flash.c ****      
 858              		.loc 1 830 24 is_stmt 0 view .LVU230
 859 0004 FFF7FEFF 		bl	HAL_GetTick
 860              	.LVL39:
 830:C:/Users/vasil/STM32Cube/Repository/STM32Cube_FW_F1_V1.8.5/Drivers/STM32F1xx_HAL_Driver/Src\stm32f1xx_hal_flash.c ****      
 861              		.loc 1 830 24 view .LVU231
 862 0008 0546     		mov	r5, r0
 863              	.LVL40:
 832:C:/Users/vasil/STM32Cube/Repository/STM32Cube_FW_F1_V1.8.5/Drivers/STM32F1xx_HAL_Driver/Src\stm32f1xx_hal_flash.c ****   { 
 864              		.loc 1 832 3 is_stmt 1 view .LVU232
 865              	.L70:
 832:C:/Users/vasil/STM32Cube/Repository/STM32Cube_FW_F1_V1.8.5/Drivers/STM32F1xx_HAL_Driver/Src\stm32f1xx_hal_flash.c ****   { 
 866              		.loc 1 832 9 view .LVU233
 867 000a 164B     		ldr	r3, .L79
 868 000c DB68     		ldr	r3, [r3, #12]
 869 000e 13F0010F 		tst	r3, #1
 870 0012 0AD0     		beq	.L78
 834:C:/Users/vasil/STM32Cube/Repository/STM32Cube_FW_F1_V1.8.5/Drivers/STM32F1xx_HAL_Driver/Src\stm32f1xx_hal_flash.c ****     {
 871              		.loc 1 834 5 view .LVU234
 834:C:/Users/vasil/STM32Cube/Repository/STM32Cube_FW_F1_V1.8.5/Drivers/STM32F1xx_HAL_Driver/Src\stm32f1xx_hal_flash.c ****     {
ARM GAS  C:\Users\vasil\AppData\Local\Temp\ccvloAs2.s 			page 36


 872              		.loc 1 834 8 is_stmt 0 view .LVU235
 873 0014 B4F1FF3F 		cmp	r4, #-1
 874 0018 F7D0     		beq	.L70
 836:C:/Users/vasil/STM32Cube/Repository/STM32Cube_FW_F1_V1.8.5/Drivers/STM32F1xx_HAL_Driver/Src\stm32f1xx_hal_flash.c ****       {
 875              		.loc 1 836 7 is_stmt 1 view .LVU236
 836:C:/Users/vasil/STM32Cube/Repository/STM32Cube_FW_F1_V1.8.5/Drivers/STM32F1xx_HAL_Driver/Src\stm32f1xx_hal_flash.c ****       {
 876              		.loc 1 836 9 is_stmt 0 view .LVU237
 877 001a 24B1     		cbz	r4, .L71
 836:C:/Users/vasil/STM32Cube/Repository/STM32Cube_FW_F1_V1.8.5/Drivers/STM32F1xx_HAL_Driver/Src\stm32f1xx_hal_flash.c ****       {
 878              		.loc 1 836 31 discriminator 1 view .LVU238
 879 001c FFF7FEFF 		bl	HAL_GetTick
 880              	.LVL41:
 836:C:/Users/vasil/STM32Cube/Repository/STM32Cube_FW_F1_V1.8.5/Drivers/STM32F1xx_HAL_Driver/Src\stm32f1xx_hal_flash.c ****       {
 881              		.loc 1 836 44 discriminator 1 view .LVU239
 882 0020 401B     		subs	r0, r0, r5
 836:C:/Users/vasil/STM32Cube/Repository/STM32Cube_FW_F1_V1.8.5/Drivers/STM32F1xx_HAL_Driver/Src\stm32f1xx_hal_flash.c ****       {
 883              		.loc 1 836 26 discriminator 1 view .LVU240
 884 0022 A042     		cmp	r0, r4
 885 0024 F1D9     		bls	.L70
 886              	.L71:
 838:C:/Users/vasil/STM32Cube/Repository/STM32Cube_FW_F1_V1.8.5/Drivers/STM32F1xx_HAL_Driver/Src\stm32f1xx_hal_flash.c ****       }
 887              		.loc 1 838 9 is_stmt 1 view .LVU241
 838:C:/Users/vasil/STM32Cube/Repository/STM32Cube_FW_F1_V1.8.5/Drivers/STM32F1xx_HAL_Driver/Src\stm32f1xx_hal_flash.c ****       }
 888              		.loc 1 838 16 is_stmt 0 view .LVU242
 889 0026 0320     		movs	r0, #3
 890 0028 1BE0     		b	.L72
 891              	.L78:
 844:C:/Users/vasil/STM32Cube/Repository/STM32Cube_FW_F1_V1.8.5/Drivers/STM32F1xx_HAL_Driver/Src\stm32f1xx_hal_flash.c ****   {
 892              		.loc 1 844 3 is_stmt 1 view .LVU243
 844:C:/Users/vasil/STM32Cube/Repository/STM32Cube_FW_F1_V1.8.5/Drivers/STM32F1xx_HAL_Driver/Src\stm32f1xx_hal_flash.c ****   {
 893              		.loc 1 844 7 is_stmt 0 view .LVU244
 894 002a 0E4B     		ldr	r3, .L79
 895 002c DB68     		ldr	r3, [r3, #12]
 844:C:/Users/vasil/STM32Cube/Repository/STM32Cube_FW_F1_V1.8.5/Drivers/STM32F1xx_HAL_Driver/Src\stm32f1xx_hal_flash.c ****   {
 896              		.loc 1 844 6 view .LVU245
 897 002e 13F0200F 		tst	r3, #32
 898 0032 02D0     		beq	.L74
 847:C:/Users/vasil/STM32Cube/Repository/STM32Cube_FW_F1_V1.8.5/Drivers/STM32F1xx_HAL_Driver/Src\stm32f1xx_hal_flash.c ****   }
 899              		.loc 1 847 5 is_stmt 1 discriminator 2 view .LVU246
 847:C:/Users/vasil/STM32Cube/Repository/STM32Cube_FW_F1_V1.8.5/Drivers/STM32F1xx_HAL_Driver/Src\stm32f1xx_hal_flash.c ****   }
 900              		.loc 1 847 5 discriminator 2 view .LVU247
 847:C:/Users/vasil/STM32Cube/Repository/STM32Cube_FW_F1_V1.8.5/Drivers/STM32F1xx_HAL_Driver/Src\stm32f1xx_hal_flash.c ****   }
 901              		.loc 1 847 5 discriminator 2 view .LVU248
 902 0034 0B4B     		ldr	r3, .L79
 903 0036 2022     		movs	r2, #32
 904 0038 DA60     		str	r2, [r3, #12]
 905              	.L74:
 847:C:/Users/vasil/STM32Cube/Repository/STM32Cube_FW_F1_V1.8.5/Drivers/STM32F1xx_HAL_Driver/Src\stm32f1xx_hal_flash.c ****   }
 906              		.loc 1 847 5 discriminator 4 view .LVU249
 850:C:/Users/vasil/STM32Cube/Repository/STM32Cube_FW_F1_V1.8.5/Drivers/STM32F1xx_HAL_Driver/Src\stm32f1xx_hal_flash.c ****      __HAL_FLASH_GET_FLAG(FLASH_FLAG_OPTVERR) || 
 907              		.loc 1 850 3 discriminator 4 view .LVU250
 850:C:/Users/vasil/STM32Cube/Repository/STM32Cube_FW_F1_V1.8.5/Drivers/STM32F1xx_HAL_Driver/Src\stm32f1xx_hal_flash.c ****      __HAL_FLASH_GET_FLAG(FLASH_FLAG_OPTVERR) || 
 908              		.loc 1 850 6 is_stmt 0 discriminator 4 view .LVU251
 909 003a 0A4B     		ldr	r3, .L79
 910 003c DB68     		ldr	r3, [r3, #12]
 850:C:/Users/vasil/STM32Cube/Repository/STM32Cube_FW_F1_V1.8.5/Drivers/STM32F1xx_HAL_Driver/Src\stm32f1xx_hal_flash.c ****      __HAL_FLASH_GET_FLAG(FLASH_FLAG_OPTVERR) || 
 911              		.loc 1 850 5 discriminator 4 view .LVU252
ARM GAS  C:\Users\vasil\AppData\Local\Temp\ccvloAs2.s 			page 37


 912 003e 13F0100F 		tst	r3, #16
 913 0042 0BD1     		bne	.L75
 851:C:/Users/vasil/STM32Cube/Repository/STM32Cube_FW_F1_V1.8.5/Drivers/STM32F1xx_HAL_Driver/Src\stm32f1xx_hal_flash.c ****      __HAL_FLASH_GET_FLAG(FLASH_FLAG_PGERR))
 914              		.loc 1 851 6 discriminator 1 view .LVU253
 915 0044 074B     		ldr	r3, .L79
 916 0046 DB69     		ldr	r3, [r3, #28]
 850:C:/Users/vasil/STM32Cube/Repository/STM32Cube_FW_F1_V1.8.5/Drivers/STM32F1xx_HAL_Driver/Src\stm32f1xx_hal_flash.c ****      __HAL_FLASH_GET_FLAG(FLASH_FLAG_OPTVERR) || 
 917              		.loc 1 850 47 discriminator 1 view .LVU254
 918 0048 13F0010F 		tst	r3, #1
 919 004c 06D1     		bne	.L75
 852:C:/Users/vasil/STM32Cube/Repository/STM32Cube_FW_F1_V1.8.5/Drivers/STM32F1xx_HAL_Driver/Src\stm32f1xx_hal_flash.c ****   {
 920              		.loc 1 852 6 view .LVU255
 921 004e 054B     		ldr	r3, .L79
 922 0050 DB68     		ldr	r3, [r3, #12]
 851:C:/Users/vasil/STM32Cube/Repository/STM32Cube_FW_F1_V1.8.5/Drivers/STM32F1xx_HAL_Driver/Src\stm32f1xx_hal_flash.c ****      __HAL_FLASH_GET_FLAG(FLASH_FLAG_PGERR))
 923              		.loc 1 851 47 view .LVU256
 924 0052 13F0040F 		tst	r3, #4
 925 0056 01D1     		bne	.L75
 860:C:/Users/vasil/STM32Cube/Repository/STM32Cube_FW_F1_V1.8.5/Drivers/STM32F1xx_HAL_Driver/Src\stm32f1xx_hal_flash.c **** }
 926              		.loc 1 860 10 view .LVU257
 927 0058 0020     		movs	r0, #0
 928 005a 02E0     		b	.L72
 929              	.L75:
 855:C:/Users/vasil/STM32Cube/Repository/STM32Cube_FW_F1_V1.8.5/Drivers/STM32F1xx_HAL_Driver/Src\stm32f1xx_hal_flash.c ****     return HAL_ERROR;
 930              		.loc 1 855 5 is_stmt 1 view .LVU258
 931 005c FFF7FEFF 		bl	FLASH_SetErrorCode
 932              	.LVL42:
 856:C:/Users/vasil/STM32Cube/Repository/STM32Cube_FW_F1_V1.8.5/Drivers/STM32F1xx_HAL_Driver/Src\stm32f1xx_hal_flash.c ****   }
 933              		.loc 1 856 5 view .LVU259
 856:C:/Users/vasil/STM32Cube/Repository/STM32Cube_FW_F1_V1.8.5/Drivers/STM32F1xx_HAL_Driver/Src\stm32f1xx_hal_flash.c ****   }
 934              		.loc 1 856 12 is_stmt 0 view .LVU260
 935 0060 0120     		movs	r0, #1
 936              	.L72:
 861:C:/Users/vasil/STM32Cube/Repository/STM32Cube_FW_F1_V1.8.5/Drivers/STM32F1xx_HAL_Driver/Src\stm32f1xx_hal_flash.c **** 
 937              		.loc 1 861 1 view .LVU261
 938 0062 38BD     		pop	{r3, r4, r5, pc}
 939              	.LVL43:
 940              	.L80:
 861:C:/Users/vasil/STM32Cube/Repository/STM32Cube_FW_F1_V1.8.5/Drivers/STM32F1xx_HAL_Driver/Src\stm32f1xx_hal_flash.c **** 
 941              		.loc 1 861 1 view .LVU262
 942              		.align	2
 943              	.L79:
 944 0064 00200240 		.word	1073881088
 945              		.cfi_endproc
 946              	.LFE77:
 948              		.section	.text.HAL_FLASH_Program,"ax",%progbits
 949              		.align	1
 950              		.global	HAL_FLASH_Program
 951              		.syntax unified
 952              		.thumb
 953              		.thumb_func
 955              	HAL_FLASH_Program:
 956              	.LVL44:
 957              	.LFB65:
 167:C:/Users/vasil/STM32Cube/Repository/STM32Cube_FW_F1_V1.8.5/Drivers/STM32F1xx_HAL_Driver/Src\stm32f1xx_hal_flash.c ****   HAL_StatusTypeDef status = HAL_ERROR;
 958              		.loc 1 167 1 is_stmt 1 view -0
 959              		.cfi_startproc
ARM GAS  C:\Users\vasil\AppData\Local\Temp\ccvloAs2.s 			page 38


 960              		@ args = 0, pretend = 0, frame = 0
 961              		@ frame_needed = 0, uses_anonymous_args = 0
 167:C:/Users/vasil/STM32Cube/Repository/STM32Cube_FW_F1_V1.8.5/Drivers/STM32F1xx_HAL_Driver/Src\stm32f1xx_hal_flash.c ****   HAL_StatusTypeDef status = HAL_ERROR;
 962              		.loc 1 167 1 is_stmt 0 view .LVU264
 963 0000 2DE9F843 		push	{r3, r4, r5, r6, r7, r8, r9, lr}
 964              		.cfi_def_cfa_offset 32
 965              		.cfi_offset 3, -32
 966              		.cfi_offset 4, -28
 967              		.cfi_offset 5, -24
 968              		.cfi_offset 6, -20
 969              		.cfi_offset 7, -16
 970              		.cfi_offset 8, -12
 971              		.cfi_offset 9, -8
 972              		.cfi_offset 14, -4
 973 0004 1E46     		mov	r6, r3
 168:C:/Users/vasil/STM32Cube/Repository/STM32Cube_FW_F1_V1.8.5/Drivers/STM32F1xx_HAL_Driver/Src\stm32f1xx_hal_flash.c ****   uint8_t index = 0;
 974              		.loc 1 168 3 is_stmt 1 view .LVU265
 975              	.LVL45:
 169:C:/Users/vasil/STM32Cube/Repository/STM32Cube_FW_F1_V1.8.5/Drivers/STM32F1xx_HAL_Driver/Src\stm32f1xx_hal_flash.c ****   uint8_t nbiterations = 0;
 976              		.loc 1 169 3 view .LVU266
 170:C:/Users/vasil/STM32Cube/Repository/STM32Cube_FW_F1_V1.8.5/Drivers/STM32F1xx_HAL_Driver/Src\stm32f1xx_hal_flash.c ****   
 977              		.loc 1 170 3 view .LVU267
 173:C:/Users/vasil/STM32Cube/Repository/STM32Cube_FW_F1_V1.8.5/Drivers/STM32F1xx_HAL_Driver/Src\stm32f1xx_hal_flash.c **** 
 978              		.loc 1 173 3 view .LVU268
 173:C:/Users/vasil/STM32Cube/Repository/STM32Cube_FW_F1_V1.8.5/Drivers/STM32F1xx_HAL_Driver/Src\stm32f1xx_hal_flash.c **** 
 979              		.loc 1 173 3 view .LVU269
 980 0006 244B     		ldr	r3, .L93
 981 0008 1B7E     		ldrb	r3, [r3, #24]	@ zero_extendqisi2
 982 000a 012B     		cmp	r3, #1
 983 000c 41D0     		beq	.L87
 984 000e 0446     		mov	r4, r0
 985 0010 0F46     		mov	r7, r1
 986 0012 9046     		mov	r8, r2
 173:C:/Users/vasil/STM32Cube/Repository/STM32Cube_FW_F1_V1.8.5/Drivers/STM32F1xx_HAL_Driver/Src\stm32f1xx_hal_flash.c **** 
 987              		.loc 1 173 3 discriminator 2 view .LVU270
 988 0014 204B     		ldr	r3, .L93
 989 0016 0122     		movs	r2, #1
 990              	.LVL46:
 173:C:/Users/vasil/STM32Cube/Repository/STM32Cube_FW_F1_V1.8.5/Drivers/STM32F1xx_HAL_Driver/Src\stm32f1xx_hal_flash.c **** 
 991              		.loc 1 173 3 is_stmt 0 discriminator 2 view .LVU271
 992 0018 1A76     		strb	r2, [r3, #24]
 173:C:/Users/vasil/STM32Cube/Repository/STM32Cube_FW_F1_V1.8.5/Drivers/STM32F1xx_HAL_Driver/Src\stm32f1xx_hal_flash.c **** 
 993              		.loc 1 173 3 is_stmt 1 discriminator 2 view .LVU272
 176:C:/Users/vasil/STM32Cube/Repository/STM32Cube_FW_F1_V1.8.5/Drivers/STM32F1xx_HAL_Driver/Src\stm32f1xx_hal_flash.c ****   assert_param(IS_FLASH_PROGRAM_ADDRESS(Address));
 994              		.loc 1 176 3 discriminator 2 view .LVU273
 177:C:/Users/vasil/STM32Cube/Repository/STM32Cube_FW_F1_V1.8.5/Drivers/STM32F1xx_HAL_Driver/Src\stm32f1xx_hal_flash.c **** 
 995              		.loc 1 177 3 discriminator 2 view .LVU274
 184:C:/Users/vasil/STM32Cube/Repository/STM32Cube_FW_F1_V1.8.5/Drivers/STM32F1xx_HAL_Driver/Src\stm32f1xx_hal_flash.c **** #if defined(FLASH_BANK2_END)
 996              		.loc 1 184 5 discriminator 2 view .LVU275
 184:C:/Users/vasil/STM32Cube/Repository/STM32Cube_FW_F1_V1.8.5/Drivers/STM32F1xx_HAL_Driver/Src\stm32f1xx_hal_flash.c **** #if defined(FLASH_BANK2_END)
 997              		.loc 1 184 14 is_stmt 0 discriminator 2 view .LVU276
 998 001a 4CF25030 		movw	r0, #50000
 999              	.LVL47:
 184:C:/Users/vasil/STM32Cube/Repository/STM32Cube_FW_F1_V1.8.5/Drivers/STM32F1xx_HAL_Driver/Src\stm32f1xx_hal_flash.c **** #if defined(FLASH_BANK2_END)
 1000              		.loc 1 184 14 discriminator 2 view .LVU277
 1001 001e FFF7FEFF 		bl	FLASH_WaitForLastOperation
 1002              	.LVL48:
ARM GAS  C:\Users\vasil\AppData\Local\Temp\ccvloAs2.s 			page 39


 194:C:/Users/vasil/STM32Cube/Repository/STM32Cube_FW_F1_V1.8.5/Drivers/STM32F1xx_HAL_Driver/Src\stm32f1xx_hal_flash.c ****   {
 1003              		.loc 1 194 3 is_stmt 1 discriminator 2 view .LVU278
 194:C:/Users/vasil/STM32Cube/Repository/STM32Cube_FW_F1_V1.8.5/Drivers/STM32F1xx_HAL_Driver/Src\stm32f1xx_hal_flash.c ****   {
 1004              		.loc 1 194 5 is_stmt 0 discriminator 2 view .LVU279
 1005 0022 0346     		mov	r3, r0
 1006 0024 78BB     		cbnz	r0, .L83
 196:C:/Users/vasil/STM32Cube/Repository/STM32Cube_FW_F1_V1.8.5/Drivers/STM32F1xx_HAL_Driver/Src\stm32f1xx_hal_flash.c ****     {
 1007              		.loc 1 196 5 is_stmt 1 view .LVU280
 196:C:/Users/vasil/STM32Cube/Repository/STM32Cube_FW_F1_V1.8.5/Drivers/STM32F1xx_HAL_Driver/Src\stm32f1xx_hal_flash.c ****     {
 1008              		.loc 1 196 7 is_stmt 0 view .LVU281
 1009 0026 012C     		cmp	r4, #1
 1010 0028 08D0     		beq	.L88
 201:C:/Users/vasil/STM32Cube/Repository/STM32Cube_FW_F1_V1.8.5/Drivers/STM32F1xx_HAL_Driver/Src\stm32f1xx_hal_flash.c ****     {
 1011              		.loc 1 201 10 is_stmt 1 view .LVU282
 201:C:/Users/vasil/STM32Cube/Repository/STM32Cube_FW_F1_V1.8.5/Drivers/STM32F1xx_HAL_Driver/Src\stm32f1xx_hal_flash.c ****     {
 1012              		.loc 1 201 12 is_stmt 0 view .LVU283
 1013 002a 022C     		cmp	r4, #2
 1014 002c 03D0     		beq	.L91
 209:C:/Users/vasil/STM32Cube/Repository/STM32Cube_FW_F1_V1.8.5/Drivers/STM32F1xx_HAL_Driver/Src\stm32f1xx_hal_flash.c ****     }
 1015              		.loc 1 209 20 view .LVU284
 1016 002e 4FF00409 		mov	r9, #4
 1017              	.L84:
 1018              	.LVL49:
 212:C:/Users/vasil/STM32Cube/Repository/STM32Cube_FW_F1_V1.8.5/Drivers/STM32F1xx_HAL_Driver/Src\stm32f1xx_hal_flash.c ****     {
 1019              		.loc 1 212 5 is_stmt 1 view .LVU285
 212:C:/Users/vasil/STM32Cube/Repository/STM32Cube_FW_F1_V1.8.5/Drivers/STM32F1xx_HAL_Driver/Src\stm32f1xx_hal_flash.c ****     {
 1020              		.loc 1 212 16 is_stmt 0 view .LVU286
 1021 0032 1C46     		mov	r4, r3
 1022              	.LVL50:
 212:C:/Users/vasil/STM32Cube/Repository/STM32Cube_FW_F1_V1.8.5/Drivers/STM32F1xx_HAL_Driver/Src\stm32f1xx_hal_flash.c ****     {
 1023              		.loc 1 212 5 view .LVU287
 1024 0034 07E0     		b	.L85
 1025              	.LVL51:
 1026              	.L91:
 204:C:/Users/vasil/STM32Cube/Repository/STM32Cube_FW_F1_V1.8.5/Drivers/STM32F1xx_HAL_Driver/Src\stm32f1xx_hal_flash.c ****     }
 1027              		.loc 1 204 20 view .LVU288
 1028 0036 4FF00209 		mov	r9, #2
 1029 003a FAE7     		b	.L84
 1030              	.L88:
 199:C:/Users/vasil/STM32Cube/Repository/STM32Cube_FW_F1_V1.8.5/Drivers/STM32F1xx_HAL_Driver/Src\stm32f1xx_hal_flash.c ****     }
 1031              		.loc 1 199 20 view .LVU289
 1032 003c 4FF00109 		mov	r9, #1
 1033 0040 F7E7     		b	.L84
 1034              	.LVL52:
 1035              	.L92:
 212:C:/Users/vasil/STM32Cube/Repository/STM32Cube_FW_F1_V1.8.5/Drivers/STM32F1xx_HAL_Driver/Src\stm32f1xx_hal_flash.c ****     {
 1036              		.loc 1 212 49 is_stmt 1 discriminator 2 view .LVU290
 1037 0042 0134     		adds	r4, r4, #1
 1038              	.LVL53:
 212:C:/Users/vasil/STM32Cube/Repository/STM32Cube_FW_F1_V1.8.5/Drivers/STM32F1xx_HAL_Driver/Src\stm32f1xx_hal_flash.c ****     {
 1039              		.loc 1 212 49 is_stmt 0 discriminator 2 view .LVU291
 1040 0044 E4B2     		uxtb	r4, r4
 1041              	.LVL54:
 1042              	.L85:
 212:C:/Users/vasil/STM32Cube/Repository/STM32Cube_FW_F1_V1.8.5/Drivers/STM32F1xx_HAL_Driver/Src\stm32f1xx_hal_flash.c ****     {
 1043              		.loc 1 212 28 is_stmt 1 discriminator 1 view .LVU292
 1044 0046 4C45     		cmp	r4, r9
ARM GAS  C:\Users\vasil\AppData\Local\Temp\ccvloAs2.s 			page 40


 1045 0048 1DD2     		bcs	.L83
 214:C:/Users/vasil/STM32Cube/Repository/STM32Cube_FW_F1_V1.8.5/Drivers/STM32F1xx_HAL_Driver/Src\stm32f1xx_hal_flash.c **** 
 1046              		.loc 1 214 7 view .LVU293
 214:C:/Users/vasil/STM32Cube/Repository/STM32Cube_FW_F1_V1.8.5/Drivers/STM32F1xx_HAL_Driver/Src\stm32f1xx_hal_flash.c **** 
 1047              		.loc 1 214 77 is_stmt 0 view .LVU294
 1048 004a 2101     		lsls	r1, r4, #4
 214:C:/Users/vasil/STM32Cube/Repository/STM32Cube_FW_F1_V1.8.5/Drivers/STM32F1xx_HAL_Driver/Src\stm32f1xx_hal_flash.c **** 
 1049              		.loc 1 214 70 view .LVU295
 1050 004c C1F12002 		rsb	r2, r1, #32
 1051 0050 A1F12003 		sub	r3, r1, #32
 1052              	.LVL55:
 214:C:/Users/vasil/STM32Cube/Repository/STM32Cube_FW_F1_V1.8.5/Drivers/STM32F1xx_HAL_Driver/Src\stm32f1xx_hal_flash.c **** 
 1053              		.loc 1 214 70 view .LVU296
 1054 0054 28FA01F1 		lsr	r1, r8, r1
 1055 0058 06FA02F2 		lsl	r2, r6, r2
 1056 005c 1143     		orrs	r1, r1, r2
 1057 005e 26FA03F3 		lsr	r3, r6, r3
 1058 0062 1943     		orrs	r1, r1, r3
 214:C:/Users/vasil/STM32Cube/Repository/STM32Cube_FW_F1_V1.8.5/Drivers/STM32F1xx_HAL_Driver/Src\stm32f1xx_hal_flash.c **** 
 1059              		.loc 1 214 7 view .LVU297
 1060 0064 89B2     		uxth	r1, r1
 1061 0066 07EB4400 		add	r0, r7, r4, lsl #1
 1062 006a FFF7FEFF 		bl	FLASH_Program_HalfWord
 1063              	.LVL56:
 221:C:/Users/vasil/STM32Cube/Repository/STM32Cube_FW_F1_V1.8.5/Drivers/STM32F1xx_HAL_Driver/Src\stm32f1xx_hal_flash.c ****     
 1064              		.loc 1 221 9 is_stmt 1 view .LVU298
 221:C:/Users/vasil/STM32Cube/Repository/STM32Cube_FW_F1_V1.8.5/Drivers/STM32F1xx_HAL_Driver/Src\stm32f1xx_hal_flash.c ****     
 1065              		.loc 1 221 18 is_stmt 0 view .LVU299
 1066 006e 4CF25030 		movw	r0, #50000
 1067 0072 FFF7FEFF 		bl	FLASH_WaitForLastOperation
 1068              	.LVL57:
 224:C:/Users/vasil/STM32Cube/Repository/STM32Cube_FW_F1_V1.8.5/Drivers/STM32F1xx_HAL_Driver/Src\stm32f1xx_hal_flash.c **** #if defined(FLASH_BANK2_END)
 1069              		.loc 1 224 9 is_stmt 1 view .LVU300
 1070 0076 094B     		ldr	r3, .L93+4
 1071 0078 1D69     		ldr	r5, [r3, #16]
 1072 007a 25F00105 		bic	r5, r5, #1
 1073 007e 1D61     		str	r5, [r3, #16]
 237:C:/Users/vasil/STM32Cube/Repository/STM32Cube_FW_F1_V1.8.5/Drivers/STM32F1xx_HAL_Driver/Src\stm32f1xx_hal_flash.c ****       {
 1074              		.loc 1 237 7 view .LVU301
 237:C:/Users/vasil/STM32Cube/Repository/STM32Cube_FW_F1_V1.8.5/Drivers/STM32F1xx_HAL_Driver/Src\stm32f1xx_hal_flash.c ****       {
 1075              		.loc 1 237 10 is_stmt 0 view .LVU302
 1076 0080 0346     		mov	r3, r0
 1077 0082 0028     		cmp	r0, #0
 1078 0084 DDD0     		beq	.L92
 1079              	.LVL58:
 1080              	.L83:
 245:C:/Users/vasil/STM32Cube/Repository/STM32Cube_FW_F1_V1.8.5/Drivers/STM32F1xx_HAL_Driver/Src\stm32f1xx_hal_flash.c **** 
 1081              		.loc 1 245 3 is_stmt 1 view .LVU303
 245:C:/Users/vasil/STM32Cube/Repository/STM32Cube_FW_F1_V1.8.5/Drivers/STM32F1xx_HAL_Driver/Src\stm32f1xx_hal_flash.c **** 
 1082              		.loc 1 245 3 view .LVU304
 1083 0086 044A     		ldr	r2, .L93
 1084 0088 0021     		movs	r1, #0
 1085 008a 1176     		strb	r1, [r2, #24]
 245:C:/Users/vasil/STM32Cube/Repository/STM32Cube_FW_F1_V1.8.5/Drivers/STM32F1xx_HAL_Driver/Src\stm32f1xx_hal_flash.c **** 
 1086              		.loc 1 245 3 view .LVU305
 247:C:/Users/vasil/STM32Cube/Repository/STM32Cube_FW_F1_V1.8.5/Drivers/STM32F1xx_HAL_Driver/Src\stm32f1xx_hal_flash.c **** }
 1087              		.loc 1 247 3 view .LVU306
ARM GAS  C:\Users\vasil\AppData\Local\Temp\ccvloAs2.s 			page 41


 1088              	.LVL59:
 1089              	.L82:
 248:C:/Users/vasil/STM32Cube/Repository/STM32Cube_FW_F1_V1.8.5/Drivers/STM32F1xx_HAL_Driver/Src\stm32f1xx_hal_flash.c **** 
 1090              		.loc 1 248 1 is_stmt 0 view .LVU307
 1091 008c 1846     		mov	r0, r3
 1092 008e BDE8F883 		pop	{r3, r4, r5, r6, r7, r8, r9, pc}
 1093              	.LVL60:
 1094              	.L87:
 173:C:/Users/vasil/STM32Cube/Repository/STM32Cube_FW_F1_V1.8.5/Drivers/STM32F1xx_HAL_Driver/Src\stm32f1xx_hal_flash.c **** 
 1095              		.loc 1 173 3 view .LVU308
 1096 0092 0223     		movs	r3, #2
 1097 0094 FAE7     		b	.L82
 1098              	.L94:
 1099 0096 00BF     		.align	2
 1100              	.L93:
 1101 0098 00000000 		.word	.LANCHOR0
 1102 009c 00200240 		.word	1073881088
 1103              		.cfi_endproc
 1104              	.LFE65:
 1106              		.global	pFlash
 1107              		.section	.bss.pFlash,"aw",%nobits
 1108              		.align	3
 1109              		.set	.LANCHOR0,. + 0
 1112              	pFlash:
 1113 0000 00000000 		.space	32
 1113      00000000 
 1113      00000000 
 1113      00000000 
 1113      00000000 
 1114              		.text
 1115              	.Letext0:
 1116              		.file 2 "c:\\users\\vasil\\appdata\\roaming\\code\\user\\globalstorage\\bmd.stm32-for-vscode\\@xpa
 1117              		.file 3 "c:\\users\\vasil\\appdata\\roaming\\code\\user\\globalstorage\\bmd.stm32-for-vscode\\@xpa
 1118              		.file 4 "C:/Users/vasil/STM32Cube/Repository/STM32Cube_FW_F1_V1.8.5/Drivers/CMSIS/Device/ST/STM32F
 1119              		.file 5 "C:/Users/vasil/STM32Cube/Repository/STM32Cube_FW_F1_V1.8.5/Drivers/CMSIS/Device/ST/STM32F
 1120              		.file 6 "C:/Users/vasil/STM32Cube/Repository/STM32Cube_FW_F1_V1.8.5/Drivers/STM32F1xx_HAL_Driver/I
 1121              		.file 7 "C:/Users/vasil/STM32Cube/Repository/STM32Cube_FW_F1_V1.8.5/Drivers/STM32F1xx_HAL_Driver/I
 1122              		.file 8 "C:/Users/vasil/STM32Cube/Repository/STM32Cube_FW_F1_V1.8.5/Drivers/STM32F1xx_HAL_Driver/I
 1123              		.file 9 "C:/Users/vasil/STM32Cube/Repository/STM32Cube_FW_F1_V1.8.5/Drivers/STM32F1xx_HAL_Driver/I
ARM GAS  C:\Users\vasil\AppData\Local\Temp\ccvloAs2.s 			page 42


DEFINED SYMBOLS
                            *ABS*:0000000000000000 stm32f1xx_hal_flash.c
C:\Users\vasil\AppData\Local\Temp\ccvloAs2.s:18     .text.FLASH_Program_HalfWord:0000000000000000 $t
C:\Users\vasil\AppData\Local\Temp\ccvloAs2.s:23     .text.FLASH_Program_HalfWord:0000000000000000 FLASH_Program_HalfWord
C:\Users\vasil\AppData\Local\Temp\ccvloAs2.s:50     .text.FLASH_Program_HalfWord:0000000000000014 $d
C:\Users\vasil\AppData\Local\Temp\ccvloAs2.s:56     .text.FLASH_SetErrorCode:0000000000000000 $t
C:\Users\vasil\AppData\Local\Temp\ccvloAs2.s:61     .text.FLASH_SetErrorCode:0000000000000000 FLASH_SetErrorCode
C:\Users\vasil\AppData\Local\Temp\ccvloAs2.s:152    .text.FLASH_SetErrorCode:0000000000000068 $d
C:\Users\vasil\AppData\Local\Temp\ccvloAs2.s:158    .text.HAL_FLASH_Program_IT:0000000000000000 $t
C:\Users\vasil\AppData\Local\Temp\ccvloAs2.s:164    .text.HAL_FLASH_Program_IT:0000000000000000 HAL_FLASH_Program_IT
C:\Users\vasil\AppData\Local\Temp\ccvloAs2.s:274    .text.HAL_FLASH_Program_IT:0000000000000064 $d
C:\Users\vasil\AppData\Local\Temp\ccvloAs2.s:280    .text.HAL_FLASH_EndOfOperationCallback:0000000000000000 $t
C:\Users\vasil\AppData\Local\Temp\ccvloAs2.s:286    .text.HAL_FLASH_EndOfOperationCallback:0000000000000000 HAL_FLASH_EndOfOperationCallback
C:\Users\vasil\AppData\Local\Temp\ccvloAs2.s:301    .text.HAL_FLASH_OperationErrorCallback:0000000000000000 $t
C:\Users\vasil\AppData\Local\Temp\ccvloAs2.s:307    .text.HAL_FLASH_OperationErrorCallback:0000000000000000 HAL_FLASH_OperationErrorCallback
C:\Users\vasil\AppData\Local\Temp\ccvloAs2.s:322    .text.HAL_FLASH_IRQHandler:0000000000000000 $t
C:\Users\vasil\AppData\Local\Temp\ccvloAs2.s:328    .text.HAL_FLASH_IRQHandler:0000000000000000 HAL_FLASH_IRQHandler
C:\Users\vasil\AppData\Local\Temp\ccvloAs2.s:616    .text.HAL_FLASH_IRQHandler:000000000000014c $d
C:\Users\vasil\AppData\Local\Temp\ccvloAs2.s:622    .text.HAL_FLASH_Unlock:0000000000000000 $t
C:\Users\vasil\AppData\Local\Temp\ccvloAs2.s:628    .text.HAL_FLASH_Unlock:0000000000000000 HAL_FLASH_Unlock
C:\Users\vasil\AppData\Local\Temp\ccvloAs2.s:673    .text.HAL_FLASH_Unlock:000000000000002c $d
C:\Users\vasil\AppData\Local\Temp\ccvloAs2.s:679    .text.HAL_FLASH_Lock:0000000000000000 $t
C:\Users\vasil\AppData\Local\Temp\ccvloAs2.s:685    .text.HAL_FLASH_Lock:0000000000000000 HAL_FLASH_Lock
C:\Users\vasil\AppData\Local\Temp\ccvloAs2.s:704    .text.HAL_FLASH_Lock:0000000000000010 $d
C:\Users\vasil\AppData\Local\Temp\ccvloAs2.s:709    .text.HAL_FLASH_OB_Unlock:0000000000000000 $t
C:\Users\vasil\AppData\Local\Temp\ccvloAs2.s:715    .text.HAL_FLASH_OB_Unlock:0000000000000000 HAL_FLASH_OB_Unlock
C:\Users\vasil\AppData\Local\Temp\ccvloAs2.s:748    .text.HAL_FLASH_OB_Unlock:0000000000000020 $d
C:\Users\vasil\AppData\Local\Temp\ccvloAs2.s:754    .text.HAL_FLASH_OB_Lock:0000000000000000 $t
C:\Users\vasil\AppData\Local\Temp\ccvloAs2.s:760    .text.HAL_FLASH_OB_Lock:0000000000000000 HAL_FLASH_OB_Lock
C:\Users\vasil\AppData\Local\Temp\ccvloAs2.s:779    .text.HAL_FLASH_OB_Lock:0000000000000010 $d
C:\Users\vasil\AppData\Local\Temp\ccvloAs2.s:784    .text.HAL_FLASH_OB_Launch:0000000000000000 $t
C:\Users\vasil\AppData\Local\Temp\ccvloAs2.s:790    .text.HAL_FLASH_OB_Launch:0000000000000000 HAL_FLASH_OB_Launch
C:\Users\vasil\AppData\Local\Temp\ccvloAs2.s:809    .text.HAL_FLASH_GetError:0000000000000000 $t
C:\Users\vasil\AppData\Local\Temp\ccvloAs2.s:815    .text.HAL_FLASH_GetError:0000000000000000 HAL_FLASH_GetError
C:\Users\vasil\AppData\Local\Temp\ccvloAs2.s:831    .text.HAL_FLASH_GetError:0000000000000008 $d
C:\Users\vasil\AppData\Local\Temp\ccvloAs2.s:836    .text.FLASH_WaitForLastOperation:0000000000000000 $t
C:\Users\vasil\AppData\Local\Temp\ccvloAs2.s:842    .text.FLASH_WaitForLastOperation:0000000000000000 FLASH_WaitForLastOperation
C:\Users\vasil\AppData\Local\Temp\ccvloAs2.s:944    .text.FLASH_WaitForLastOperation:0000000000000064 $d
C:\Users\vasil\AppData\Local\Temp\ccvloAs2.s:949    .text.HAL_FLASH_Program:0000000000000000 $t
C:\Users\vasil\AppData\Local\Temp\ccvloAs2.s:955    .text.HAL_FLASH_Program:0000000000000000 HAL_FLASH_Program
C:\Users\vasil\AppData\Local\Temp\ccvloAs2.s:1101   .text.HAL_FLASH_Program:0000000000000098 $d
C:\Users\vasil\AppData\Local\Temp\ccvloAs2.s:1112   .bss.pFlash:0000000000000000 pFlash
C:\Users\vasil\AppData\Local\Temp\ccvloAs2.s:1108   .bss.pFlash:0000000000000000 $d

UNDEFINED SYMBOLS
FLASH_PageErase
HAL_NVIC_SystemReset
HAL_GetTick
